
libicui18n.a(ucln_in.ao):
00000000000001d0 s GCC_except_table0
00000000000001fc s GCC_except_table5
                 U __Unwind_Resume
00000000000000d0 t __ZL12i18n_cleanupv
0000000000000480 b __ZL17gCleanupFunctions
0000000000000220 s __ZL9copyright
00000000000000a0 T __ZN6icu_575MutexC1EP6UMutex
0000000000000160 T __ZN6icu_575MutexC2EP6UMutex
0000000000000140 T __ZN6icu_575MutexD1Ev
0000000000000190 T __ZN6icu_575MutexD2Ev
                 U __ZSt9terminatev
00000000000001c0 T ___clang_call_terminate
                 U ___cxa_begin_catch
                 U ___gxx_personality_v0
0000000000000000 T _ucln_i18n_registerCleanup_57
                 U _ucln_registerCleanup_57
                 U _umtx_lock_57
                 U _umtx_unlock_57

libicui18n.a(fmtable.ao):
0000000000003c90 s GCC_except_table104
000000000000399c s GCC_except_table11
0000000000003cbc s GCC_except_table112
0000000000003cd4 s GCC_except_table118
0000000000003d00 s GCC_except_table119
00000000000039c8 s GCC_except_table13
00000000000039f4 s GCC_except_table15
0000000000003a20 s GCC_except_table16
0000000000003a5c s GCC_except_table18
0000000000003a98 s GCC_except_table20
0000000000003ac4 s GCC_except_table22
0000000000003af0 s GCC_except_table24
0000000000003b1c s GCC_except_table25
0000000000003b3c s GCC_except_table27
0000000000003b68 s GCC_except_table29
0000000000003918 s GCC_except_table3
0000000000003bbc s GCC_except_table40
0000000000003bd4 s GCC_except_table44
0000000000003bf4 s GCC_except_table57
0000000000003944 s GCC_except_table7
0000000000003c14 s GCC_except_table70
0000000000003c50 s GCC_except_table75
0000000000003c70 s GCC_except_table80
0000000000003970 s GCC_except_table9
                 U __Unwind_Resume
0000000000001510 t __ZL9U_FAILURE10UErrorCode
00000000000030a0 t __ZL9U_SUCCESS10UErrorCode
00000000000033e0 T __ZN6icu_5710CharString4dataEv
                 U __ZN6icu_5710CharString6appendEPKciR10UErrorCode
0000000000003850 T __ZN6icu_5710CharString6appendERKNS_11StringPieceER10UErrorCode
0000000000003580 T __ZN6icu_5710CharString6appendERKS0_R10UErrorCode
0000000000002ce0 T __ZN6icu_5710CharStringC1ERKNS_11StringPieceER10UErrorCode
00000000000014e0 T __ZN6icu_5710CharStringC1ERKS0_R10UErrorCode
0000000000002a60 T __ZN6icu_5710CharStringC1Ev
00000000000037c0 T __ZN6icu_5710CharStringC2ERKNS_11StringPieceER10UErrorCode
00000000000034b0 T __ZN6icu_5710CharStringC2ERKS0_R10UErrorCode
0000000000003760 T __ZN6icu_5710CharStringC2Ev
0000000000001530 T __ZN6icu_5710CharStringD1Ev
00000000000036c0 T __ZN6icu_5710CharStringD2Ev
0000000000002340 T __ZN6icu_5711Formattable10adoptArrayEPS0_i
0000000000002390 T __ZN6icu_5711Formattable11adoptObjectEPNS_7UObjectE
0000000000002300 T __ZN6icu_5711Formattable11adoptStringEPNS_13UnicodeStringE
0000000000002be0 T __ZN6icu_5711Formattable14adoptDigitListEPNS_9DigitListE
0000000000002e00 T __ZN6icu_5711Formattable14toUFormattableEv
0000000000002ee0 T __ZN6icu_5711Formattable16fromUFormattableEPKPv
0000000000002e60 T __ZN6icu_5711Formattable16fromUFormattableEPPv
0000000000002650 T __ZN6icu_5711Formattable16getDecimalNumberER10UErrorCode
0000000000000000 T __ZN6icu_5711Formattable16getStaticClassIDEv
0000000000000590 T __ZN6icu_5711Formattable16setDecimalNumberERKNS_11StringPieceER10UErrorCode
0000000000002a80 T __ZN6icu_5711Formattable20getInternalDigitListEv
0000000000002750 T __ZN6icu_5711Formattable21internalGetCharStringER10UErrorCode
0000000000000030 T __ZN6icu_5711Formattable4initEv
00000000000012d0 T __ZN6icu_5711Formattable7disposeEv
00000000000021a0 T __ZN6icu_5711Formattable7setDateEd
0000000000002120 T __ZN6icu_5711Formattable7setLongEi
00000000000022a0 T __ZN6icu_5711Formattable8setArrayEPKS0_i
0000000000002160 T __ZN6icu_5711Formattable8setInt64Ex
0000000000002550 T __ZN6icu_5711Formattable9getStringER10UErrorCode
00000000000020e0 T __ZN6icu_5711Formattable9setDoubleEd
00000000000021e0 T __ZN6icu_5711Formattable9setStringERKNS_13UnicodeStringE
0000000000000e10 T __ZN6icu_5711FormattableC1EPKS0_i
0000000000000a00 T __ZN6icu_5711FormattableC1EPNS_13UnicodeStringE
0000000000000ae0 T __ZN6icu_5711FormattableC1EPNS_7UObjectE
00000000000007c0 T __ZN6icu_5711FormattableC1ERKNS_11StringPieceER10UErrorCode
0000000000000920 T __ZN6icu_5711FormattableC1ERKNS_13UnicodeStringE
00000000000012a0 T __ZN6icu_5711FormattableC1ERKS0_
0000000000000300 T __ZN6icu_5711FormattableC1Ed
0000000000000220 T __ZN6icu_5711FormattableC1EdNS0_6ISDATEE
00000000000003d0 T __ZN6icu_5711FormattableC1Ei
0000000000000150 T __ZN6icu_5711FormattableC1Ev
00000000000004b0 T __ZN6icu_5711FormattableC1Ex
0000000000000b10 T __ZN6icu_5711FormattableC2EPKS0_i
0000000000000950 T __ZN6icu_5711FormattableC2EPNS_13UnicodeStringE
0000000000000a30 T __ZN6icu_5711FormattableC2EPNS_7UObjectE
00000000000004e0 T __ZN6icu_5711FormattableC2ERKNS_11StringPieceER10UErrorCode
00000000000007f0 T __ZN6icu_5711FormattableC2ERKNS_13UnicodeStringE
0000000000000e40 T __ZN6icu_5711FormattableC2ERKS0_
0000000000000250 T __ZN6icu_5711FormattableC2Ed
0000000000000170 T __ZN6icu_5711FormattableC2EdNS0_6ISDATEE
0000000000000330 T __ZN6icu_5711FormattableC2Ei
0000000000000080 T __ZN6icu_5711FormattableC2Ev
0000000000000400 T __ZN6icu_5711FormattableC2Ex
0000000000001940 T __ZN6icu_5711FormattableD0Ev
0000000000001920 T __ZN6icu_5711FormattableD1Ev
0000000000001890 T __ZN6icu_5711FormattableD2Ev
0000000000000f10 T __ZN6icu_5711FormattableaSERKS0_
00000000000032c0 T __ZN6icu_5711FormattableixEi
0000000000003470 T __ZN6icu_5711ReplaceableC2Ev
                 U __ZN6icu_5711StringPieceC1EPKc
0000000000003700 T __ZN6icu_5711StringPieceC1EPKci
0000000000003730 T __ZN6icu_5711StringPieceC2EPKci
                 U __ZN6icu_5713UnicodeString10setToBogusEv
                 U __ZN6icu_5713UnicodeString19getTerminatedBufferEv
                 U __ZN6icu_5713UnicodeStringC1ERKS0_
0000000000000130 T __ZN6icu_5713UnicodeStringC1Ev
0000000000003430 T __ZN6icu_5713UnicodeStringC2Ev
                 U __ZN6icu_5713UnicodeStringD1Ev
                 U __ZN6icu_5713UnicodeStringaSERKS0_
0000000000003690 T __ZN6icu_5715MaybeStackArrayIcLi40EE12releaseArrayEv
0000000000003540 T __ZN6icu_5715MaybeStackArrayIcLi40EEC1Ev
00000000000035f0 T __ZN6icu_5715MaybeStackArrayIcLi40EEC2Ev
00000000000035d0 T __ZN6icu_5715MaybeStackArrayIcLi40EED1Ev
0000000000003660 T __ZN6icu_5715MaybeStackArrayIcLi40EED2Ev
0000000000003560 T __ZN6icu_5715MaybeStackArrayIcLi40EEixEl
                 U __ZN6icu_577UMemorydaEPv
                 U __ZN6icu_577UMemorydlEPv
                 U __ZN6icu_577UMemorynaEm
                 U __ZN6icu_577UMemorynwEm
0000000000000ef0 T __ZN6icu_577UObjectC2ERKS0_
0000000000000110 T __ZN6icu_577UObjectC2Ev
                 U __ZN6icu_577UObjectD2Ev
                 U __ZN6icu_579DigitList10getDecimalERNS_10CharStringER10UErrorCode
                 U __ZN6icu_579DigitList12fitsIntoLongEa
                 U __ZN6icu_579DigitList13fitsIntoInt64Ea
                 U __ZN6icu_579DigitList3setERKNS_11StringPieceER10UErrorCodej
                 U __ZN6icu_579DigitList3setEd
                 U __ZN6icu_579DigitList3setEi
                 U __ZN6icu_579DigitList3setEx
                 U __ZN6icu_579DigitList5clearEv
                 U __ZN6icu_579DigitList7getLongEv
                 U __ZN6icu_579DigitList8getInt64Ev
                 U __ZN6icu_579DigitListC1ERKS0_
                 U __ZN6icu_579DigitListC1Ev
                 U __ZN6icu_579DigitListD1Ev
0000000000002bc0 T __ZN6icu_579DigitListdlEPvS1_NS_10EStackModeE
0000000000002ba0 T __ZN6icu_579DigitListnwEmPvNS_10EStackModeE
00000000000014b0 t __ZN6icu_57L11objectCloneEPKNS_7UObjectE
0000000000001850 t __ZN6icu_57L12objectEqualsEPKNS_7UObjectES2_
0000000000000bf0 t __ZN6icu_57L15createArrayCopyEPKNS_11FormattableEi
0000000000001c90 t __ZN6icu_57L17instanceOfMeasureEPKNS_7UObjectE
0000000000002460 t __ZN6icu_57L8setErrorER10UErrorCodeS0_
0000000000002710 T __ZNK6icu_5710CharString13toStringPieceEv
0000000000003620 T __ZNK6icu_5710CharString4dataEv
00000000000033c0 T __ZNK6icu_5710CharString6lengthEv
0000000000000010 T __ZNK6icu_5711Formattable17getDynamicClassIDEv
0000000000001970 T __ZNK6icu_5711Formattable5cloneEv
0000000000002f60 T __ZNK6icu_5711Formattable7getDateER10UErrorCode
0000000000001aa0 T __ZNK6icu_5711Formattable7getLongER10UErrorCode
0000000000002a20 T __ZNK6icu_5711Formattable7getLongEv
0000000000001a20 T __ZNK6icu_5711Formattable7getTypeEv
00000000000025e0 T __ZNK6icu_5711Formattable8getArrayERiR10UErrorCode
0000000000002530 T __ZNK6icu_5711Formattable8getBogusEv
0000000000001d30 T __ZNK6icu_5711Formattable8getInt64ER10UErrorCode
0000000000002a40 T __ZNK6icu_5711Formattable8getInt64Ev
0000000000001f60 T __ZNK6icu_5711Formattable9getDoubleER10UErrorCode
0000000000002a00 T __ZNK6icu_5711Formattable9getDoubleEv
0000000000002090 T __ZNK6icu_5711Formattable9getObjectEv
00000000000024a0 T __ZNK6icu_5711Formattable9getStringER10UErrorCode
00000000000023d0 T __ZNK6icu_5711Formattable9getStringERNS_13UnicodeStringER10UErrorCode
0000000000001a40 T __ZNK6icu_5711Formattable9isNumericEv
0000000000001550 T __ZNK6icu_5711FormattableeqERKS0_
0000000000001820 T __ZNK6icu_5711FormattableneERKS0_
00000000000038a0 T __ZNK6icu_5711StringPiece4dataEv
00000000000038c0 T __ZNK6icu_5711StringPiece6lengthEv
0000000000003900 T __ZNK6icu_5713UnicodeString14getShortLengthEv
00000000000038e0 T __ZNK6icu_5713UnicodeString14hasShortLengthEv
0000000000003180 T __ZNK6icu_5713UnicodeString6lengthEv
00000000000036e0 T __ZNK6icu_5713UnicodeString7isBogusEv
                 U __ZNK6icu_5713UnicodeString8doEqualsERKS0_i
0000000000001770 T __ZNK6icu_5713UnicodeStringeqERKS0_
0000000000003640 T __ZNK6icu_5715MaybeStackArrayIcLi40EE8getAliasEv
0000000000001d10 T __ZNK6icu_577Measure9getNumberEv
                 U __ZNK6icu_577MeasureeqERKNS_7UObjectE
                 U __ZNK6icu_579DigitList9getDoubleEv
                 U __ZSt9terminatev
0000000000003da0 S __ZTIN6icu_5711FormattableE
                 U __ZTIN6icu_577MeasureE
                 U __ZTIN6icu_577UObjectE
0000000000003dc0 S __ZTSN6icu_5711FormattableE
                 U __ZTVN10__cxxabiv120__si_class_type_infoE
0000000000003d70 S __ZTVN6icu_5711FormattableE
                 U __ZTVN6icu_5711ReplaceableE
                 U __ZTVN6icu_5713UnicodeStringE
                 U __ZTVN6icu_577UObjectE
00000000000061b0 b __ZZN6icu_5711Formattable16getStaticClassIDEvE7classID
0000000000001910 T ___clang_call_terminate
                 U ___cxa_begin_catch
                 U ___dynamic_cast
                 U ___gxx_personality_v0
                 U ___stack_chk_fail
                 U ___stack_chk_guard
0000000000002e20 T _ufmt_close_57
0000000000003210 T _ufmt_getArrayItemByIndex_57
00000000000031d0 T _ufmt_getArrayLength_57
0000000000002f30 T _ufmt_getDate_57
00000000000032f0 T _ufmt_getDecNumChars_57
0000000000002fd0 T _ufmt_getDouble_57
0000000000003400 T _ufmt_getInt64_57
0000000000003000 T _ufmt_getLong_57
0000000000003030 T _ufmt_getObject_57
0000000000002e80 T _ufmt_getType_57
00000000000030c0 T _ufmt_getUChars_57
0000000000002f00 T _ufmt_isNumeric_57
0000000000002d10 T _ufmt_open_57
                 U _uprv_free_57

libicui18n.a(format.ao):
0000000000000b48 s GCC_except_table12
0000000000000b68 s GCC_except_table15
0000000000000b94 s GCC_except_table19
0000000000000b28 s GCC_except_table5
                 U __Unwind_Resume
0000000000000420 t __ZL9U_FAILURE10UErrorCode
                 U __ZN6icu_5711LocaleBased12setLocaleIDsEPKcS2_
0000000000000850 T __ZN6icu_5711LocaleBasedC1EPKcS2_
0000000000000920 T __ZN6icu_5711LocaleBasedC1EPcS1_
0000000000000ad0 T __ZN6icu_5711LocaleBasedC2EPKcS2_
0000000000000b00 T __ZN6icu_5711LocaleBasedC2EPcS1_
0000000000000000 T __ZN6icu_5713FieldPosition16getStaticClassIDEv
0000000000000150 T __ZN6icu_5713FieldPositionC1ERKS0_
0000000000000440 T __ZN6icu_5713FieldPositionC1Ei
0000000000000950 T __ZN6icu_5713FieldPositionC2ERKS0_
00000000000009b0 T __ZN6icu_5713FieldPositionC2Ei
0000000000000070 T __ZN6icu_5713FieldPositionD0Ev
0000000000000050 T __ZN6icu_5713FieldPositionD1Ev
0000000000000030 T __ZN6icu_5713FieldPositionD2Ev
0000000000000590 T __ZN6icu_5713ParsePositionC1Ei
0000000000000a20 T __ZN6icu_5713ParsePositionC2Ei
                 U __ZN6icu_5713ParsePositionD1Ev
0000000000000650 T __ZN6icu_576Format11syntaxErrorERKNS_13UnicodeStringEiR11UParseError
00000000000008d0 T __ZN6icu_576Format12setLocaleIDsEPKcS2_
0000000000000240 T __ZN6icu_576FormatC2ERKS0_
0000000000000180 T __ZN6icu_576FormatC2Ev
0000000000000230 T __ZN6icu_576FormatD0Ev
0000000000000220 T __ZN6icu_576FormatD1Ev
0000000000000200 T __ZN6icu_576FormatD2Ev
00000000000002e0 T __ZN6icu_576FormataSERKS0_
                 U __ZN6icu_577UMemorydlEPv
                 U __ZN6icu_577UMemorynwEm
00000000000002c0 T __ZN6icu_577UObjectC2ERKS0_
00000000000001e0 T __ZN6icu_577UObjectC2Ev
                 U __ZN6icu_577UObjectD2Ev
                 U __ZNK6icu_5711LocaleBased11getLocaleIDE18ULocDataLocaleTypeR10UErrorCode
                 U __ZNK6icu_5711LocaleBased9getLocaleE18ULocDataLocaleTypeR10UErrorCode
0000000000000010 T __ZNK6icu_5713FieldPosition17getDynamicClassIDEv
00000000000000a0 T __ZNK6icu_5713FieldPosition5cloneEv
00000000000005c0 T __ZNK6icu_5713ParsePosition8getIndexEv
0000000000000ab0 T __ZNK6icu_5713UnicodeString14getShortLengthEv
0000000000000a90 T __ZNK6icu_5713UnicodeString14hasShortLengthEv
00000000000007a0 T __ZNK6icu_5713UnicodeString6lengthEv
0000000000000760 T __ZNK6icu_5713UnicodeString7extractEiiPti
                 U __ZNK6icu_5713UnicodeString9doExtractEiiPti
0000000000000880 T __ZNK6icu_576Format11getLocaleIDE18ULocDataLocaleTypeR10UErrorCode
00000000000004c0 T __ZNK6icu_576Format11parseObjectERKNS_13UnicodeStringERNS_11FormattableER10UErrorCode
0000000000000470 T __ZNK6icu_576Format6formatERKNS_11FormattableERNS_13UnicodeStringEPNS_21FieldPositionIteratorER10UErrorCode
0000000000000350 T __ZNK6icu_576Format6formatERKNS_11FormattableERNS_13UnicodeStringER10UErrorCode
00000000000007f0 T __ZNK6icu_576Format9getLocaleE18ULocDataLocaleTypeR10UErrorCode
00000000000005e0 T __ZNK6icu_576FormateqERKS0_
                 U __ZNK6icu_577UObject17getDynamicClassIDEv
0000000000000c40 S __ZTIN6icu_5713FieldPositionE
0000000000000c60 S __ZTIN6icu_576FormatE
                 U __ZTIN6icu_577UObjectE
0000000000000c80 S __ZTSN6icu_5713FieldPositionE
0000000000000ca0 S __ZTSN6icu_576FormatE
                 U __ZTVN10__cxxabiv120__si_class_type_infoE
0000000000000c10 S __ZTVN6icu_5713FieldPositionE
                 U __ZTVN6icu_5713ParsePositionE
0000000000000bc0 S __ZTVN6icu_576FormatE
                 U __ZTVN6icu_577UObjectE
00000000000017c0 b __ZZN6icu_5713FieldPosition16getStaticClassIDEvE7classID
                 U ___cxa_bad_typeid
                 U ___cxa_pure_virtual
                 U ___gxx_personality_v0
                 U _memset
                 U _strcpy

libicui18n.a(msgfmt.ao):
00000000000098b4 s GCC_except_table103
00000000000098e0 s GCC_except_table104
000000000000990c s GCC_except_table108
00000000000094fc s GCC_except_table11
0000000000009998 s GCC_except_table123
00000000000099c4 s GCC_except_table125
00000000000099f0 s GCC_except_table129
000000000000955c s GCC_except_table13
0000000000009a38 s GCC_except_table131
0000000000009a58 s GCC_except_table137
0000000000009a84 s GCC_except_table154
0000000000009ab0 s GCC_except_table171
0000000000009af8 s GCC_except_table179
00000000000095bc s GCC_except_table18
0000000000009b24 s GCC_except_table182
0000000000009b50 s GCC_except_table186
0000000000009b7c s GCC_except_table191
00000000000095e4 s GCC_except_table29
0000000000009604 s GCC_except_table35
000000000000943c s GCC_except_table4
0000000000009640 s GCC_except_table46
000000000000966c s GCC_except_table58
0000000000009698 s GCC_except_table62
00000000000096c4 s GCC_except_table70
0000000000009718 s GCC_except_table73
0000000000009744 s GCC_except_table74
0000000000009770 s GCC_except_table82
0000000000009808 s GCC_except_table85
0000000000009834 s GCC_except_table88
000000000000949c s GCC_except_table9
0000000000009860 s GCC_except_table98
                 U __Unwind_Resume
000000000000a010 s __ZL10ID_INTEGER
0000000000009fb0 s __ZL10ID_ORDINAL
000000000000a000 s __ZL10ID_PERCENT
0000000000009ec0 s __ZL11DATE_STYLES
0000000000009fe0 s __ZL11ID_CURRENCY
0000000000009fc0 s __ZL11ID_DURATION
0000000000009f90 s __ZL11ID_SPELLOUT
0000000000009ea6 s __ZL11NULL_STRING
0000000000009eb0 s __ZL12OTHER_STRING
0000000000009d10 s __ZL14DATE_STYLE_IDS
0000000000009ce0 s __ZL16NUMBER_STYLE_IDS
00000000000023f0 t __ZL19equalFormatsForHash8UElementS_
0000000000009f70 s __ZL7ID_DATE
000000000000a044 s __ZL7ID_FULL
000000000000a03a s __ZL7ID_LONG
0000000000009f7a s __ZL7ID_TIME
0000000000009fd2 s __ZL8ID_EMPTY
000000000000a020 s __ZL8ID_SHORT
0000000000009ca0 s __ZL8TYPE_IDS
000000000000a02c s __ZL9ID_MEDIUM
0000000000009f62 s __ZL9ID_NUMBER
0000000000000d50 t __ZL9U_FAILURE10UErrorCode
00000000000014c0 t __ZL9U_SUCCESS10UErrorCode
0000000000008980 T __ZN6icu_5710AppendableC2Ev
0000000000009020 T __ZN6icu_5710CharStringC1Ev
0000000000009080 T __ZN6icu_5710CharStringC2Ev
0000000000009060 T __ZN6icu_5710CharStringD1Ev
00000000000091f0 T __ZN6icu_5710CharStringD2Ev
                 U __ZN6icu_5710DateFormat18createDateInstanceENS0_6EStyleERKNS_6LocaleE
                 U __ZN6icu_5710DateFormat18createTimeInstanceENS0_6EStyleERKNS_6LocaleE
                 U __ZN6icu_5710DateFormat22createDateTimeInstanceENS0_6EStyleES1_RKNS_6LocaleE
0000000000006c00 T __ZN6icu_5710LocalArrayINS_11FormattableEEC1EPS1_
0000000000009340 T __ZN6icu_5710LocalArrayINS_11FormattableEEC2EPS1_
0000000000006e80 T __ZN6icu_5710LocalArrayINS_11FormattableEED1Ev
0000000000009390 T __ZN6icu_5710LocalArrayINS_11FormattableEED2Ev
                 U __ZN6icu_5711Formattable10adoptArrayEPS0_i
                 U __ZN6icu_5711Formattable9setDoubleEd
                 U __ZN6icu_5711Formattable9setStringERKNS_13UnicodeStringE
                 U __ZN6icu_5711FormattableC1Ed
                 U __ZN6icu_5711FormattableC1Ev
                 U __ZN6icu_5711FormattableD1Ev
                 U __ZN6icu_5711FormattableaSERKS0_
0000000000005010 T __ZN6icu_5711MessageImpl11jdkAposModeERKNS_14MessagePatternE
                 U __ZN6icu_5711MessageImpl24appendReducedApostrophesERKNS_13UnicodeStringEiiRS1_
                 U __ZN6icu_5711PluralRules9forLocaleERKNS_6LocaleE11UPluralTypeR10UErrorCode
0000000000008a40 T __ZN6icu_5711ReplaceableC2Ev
                 U __ZN6icu_5712ChoiceFormat13parseArgumentERKNS_14MessagePatternEiRKNS_13UnicodeStringERNS_13ParsePositionE
                 U __ZN6icu_5712ChoiceFormat14findSubMessageERKNS_14MessagePatternEid
0000000000002b00 T __ZN6icu_5712LocalPointerINS_6FormatEEC1EPS1_
0000000000009290 T __ZN6icu_5712LocalPointerINS_6FormatEEC2EPS1_
0000000000002b50 T __ZN6icu_5712LocalPointerINS_6FormatEED1Ev
00000000000092e0 T __ZN6icu_5712LocalPointerINS_6FormatEED2Ev
                 U __ZN6icu_5712NumberFormat14createInstanceERKNS_6LocaleER10UErrorCode
                 U __ZN6icu_5712NumberFormat21createPercentInstanceERKNS_6LocaleER10UErrorCode
                 U __ZN6icu_5712NumberFormat22createCurrencyInstanceERKNS_6LocaleER10UErrorCode
                 U __ZN6icu_5712PatternProps14trimWhiteSpaceEPKtRi
0000000000008160 T __ZN6icu_5712PluralFormat14PluralSelectorC2Ev
                 U __ZN6icu_5712PluralFormat14PluralSelectorD2Ev
                 U __ZN6icu_5712PluralFormat14findSubMessageERKNS_14MessagePatternEiRKNS0_14PluralSelectorEPvdR10UErrorCode
                 U __ZN6icu_5712SelectFormat14findSubMessageERKNS_14MessagePatternEiRKNS_13UnicodeStringER10UErrorCode
0000000000005730 t __ZN6icu_5712_GLOBAL__N_121PluralSelectorContextC1EiRKNS_13UnicodeStringERKNS_11FormattableEdR10UErrorCode
0000000000008a80 t __ZN6icu_5712_GLOBAL__N_121PluralSelectorContextC2EiRKNS_13UnicodeStringERKNS_11FormattableEdR10UErrorCode
0000000000005780 t __ZN6icu_5712_GLOBAL__N_121PluralSelectorContextD1Ev
0000000000008cb0 t __ZN6icu_5712_GLOBAL__N_121PluralSelectorContextD2Ev
0000000000009040 T __ZN6icu_5713DigitIntervalC1Ev
00000000000091d0 T __ZN6icu_5713DigitIntervalC2Ev
0000000000003240 T __ZN6icu_5713MessageFormat10getArgNameEi
0000000000002870 T __ZN6icu_5713MessageFormat10setFormatsEPPKNS_6FormatEi
0000000000002420 T __ZN6icu_5713MessageFormat11DummyFormatC1Ev
00000000000086e0 T __ZN6icu_5713MessageFormat11DummyFormatC2Ev
00000000000086b0 T __ZN6icu_5713MessageFormat11DummyFormatD0Ev
0000000000008690 T __ZN6icu_5713MessageFormat11DummyFormatD1Ev
0000000000009270 T __ZN6icu_5713MessageFormat11DummyFormatD2Ev
0000000000002b70 T __ZN6icu_5713MessageFormat11adoptFormatERKNS_13UnicodeStringEPNS_6FormatER10UErrorCode
00000000000029e0 T __ZN6icu_5713MessageFormat11adoptFormatEiPNS_6FormatE
0000000000000a00 T __ZN6icu_5713MessageFormat11copyObjectsERKS0_R10UErrorCode
00000000000077f0 T __ZN6icu_5713MessageFormat11findKeywordERKNS_13UnicodeStringEPKPKt
0000000000002710 T __ZN6icu_5713MessageFormat12adoptFormatsEPPNS_6FormatEi
0000000000001ed0 T __ZN6icu_5713MessageFormat12applyPatternERKNS_13UnicodeStringE29UMessagePatternApostropheModeP11UParseErrorR10UErrorCode
0000000000001770 T __ZN6icu_5713MessageFormat12applyPatternERKNS_13UnicodeStringER10UErrorCode
00000000000017c0 T __ZN6icu_5713MessageFormat12applyPatternERKNS_13UnicodeStringER11UParseErrorR10UErrorCode
0000000000007ce0 T __ZN6icu_5713MessageFormat12equalFormatsEPKvS2_
0000000000000d70 T __ZN6icu_5713MessageFormat12resetPatternEv
0000000000002440 T __ZN6icu_5713MessageFormat14argNameMatchesEiRKNS_13UnicodeStringEi
0000000000003300 T __ZN6icu_5713MessageFormat14getFormatNamesER10UErrorCode
0000000000001000 T __ZN6icu_5713MessageFormat16allocateArgTypesEiR10UErrorCode
0000000000000000 T __ZN6icu_5713MessageFormat16getStaticClassIDEv
0000000000002220 T __ZN6icu_5713MessageFormat17setArgStartFormatEiPNS_6FormatER10UErrorCode
0000000000007120 T __ZN6icu_5713MessageFormat19autoQuoteApostropheERKNS_13UnicodeStringER10UErrorCode
0000000000001850 T __ZN6icu_5713MessageFormat20cacheExplicitFormatsER10UErrorCode
0000000000001700 T __ZN6icu_5713MessageFormat22PluralSelectorProvider5resetEv
0000000000000280 T __ZN6icu_5713MessageFormat22PluralSelectorProviderC1ERKS0_11UPluralType
0000000000008100 T __ZN6icu_5713MessageFormat22PluralSelectorProviderC2ERKS0_11UPluralType
00000000000081e0 T __ZN6icu_5713MessageFormat22PluralSelectorProviderD0Ev
00000000000002d0 T __ZN6icu_5713MessageFormat22PluralSelectorProviderD1Ev
0000000000008180 T __ZN6icu_5713MessageFormat22PluralSelectorProviderD2Ev
0000000000007370 T __ZN6icu_5713MessageFormat23createAppropriateFormatERNS_13UnicodeStringES2_RNS_11Formattable4TypeER11UParseErrorR10UErrorCode
0000000000002590 T __ZN6icu_5713MessageFormat23setCustomArgStartFormatEiPNS_6FormatER10UErrorCode
0000000000003740 T __ZN6icu_5713MessageFormat6formatERKNS_13UnicodeStringEPKNS_11FormattableEiRS1_R10UErrorCode
0000000000002e70 T __ZN6icu_5713MessageFormat9getFormatERKNS_13UnicodeStringER10UErrorCode
0000000000002f60 T __ZN6icu_5713MessageFormat9setFormatERKNS_13UnicodeStringERKNS_6FormatER10UErrorCode
0000000000002dc0 T __ZN6icu_5713MessageFormat9setFormatEiRKNS_6FormatE
00000000000015e0 T __ZN6icu_5713MessageFormat9setLocaleERKNS_6LocaleE
00000000000002f0 T __ZN6icu_5713MessageFormatC1ERKNS_13UnicodeStringER10UErrorCode
0000000000000530 T __ZN6icu_5713MessageFormatC1ERKNS_13UnicodeStringERKNS_6LocaleER10UErrorCode
00000000000007b0 T __ZN6icu_5713MessageFormatC1ERKNS_13UnicodeStringERKNS_6LocaleER11UParseErrorR10UErrorCode
0000000000000df0 T __ZN6icu_5713MessageFormatC1ERKS0_
0000000000000060 T __ZN6icu_5713MessageFormatC2ERKNS_13UnicodeStringER10UErrorCode
0000000000000320 T __ZN6icu_5713MessageFormatC2ERKNS_13UnicodeStringERKNS_6LocaleER10UErrorCode
0000000000000570 T __ZN6icu_5713MessageFormatC2ERKNS_13UnicodeStringERKNS_6LocaleER11UParseErrorR10UErrorCode
00000000000007f0 T __ZN6icu_5713MessageFormatC2ERKS0_
0000000000000fd0 T __ZN6icu_5713MessageFormatD0Ev
0000000000000fb0 T __ZN6icu_5713MessageFormatD1Ev
0000000000000e20 T __ZN6icu_5713MessageFormatD2Ev
0000000000001100 T __ZN6icu_5713MessageFormataSERKS0_
0000000000006ba0 T __ZN6icu_5713ParsePosition13setErrorIndexEi
0000000000006cb0 T __ZN6icu_5713ParsePosition8setIndexEi
0000000000006c30 T __ZN6icu_5713ParsePositionC1Ei
0000000000008cf0 T __ZN6icu_5713ParsePositionC2Ei
                 U __ZN6icu_5713ParsePositionD1Ev
                 U __ZN6icu_5713UnicodeString10setToBogusEv
                 U __ZN6icu_5713UnicodeString13releaseBufferEi
0000000000008eb0 T __ZN6icu_5713UnicodeString6appendEPKti
0000000000002090 T __ZN6icu_5713UnicodeString6appendERKS0_
00000000000057c0 T __ZN6icu_5713UnicodeString6appendERKS0_ii
0000000000004f20 T __ZN6icu_5713UnicodeString6appendEt
                 U __ZN6icu_5713UnicodeString7toLowerERKNS_6LocaleE
                 U __ZN6icu_5713UnicodeString8doAppendEPKtii
                 U __ZN6icu_5713UnicodeString8doAppendERKS0_ii
                 U __ZN6icu_5713UnicodeString8moveFromERS0_
                 U __ZN6icu_5713UnicodeString9getBufferEi
                 U __ZN6icu_5713UnicodeStringC1EaPKti
                 U __ZN6icu_5713UnicodeStringC1Et
0000000000004fa0 T __ZN6icu_5713UnicodeStringC1Ev
0000000000008a00 T __ZN6icu_5713UnicodeStringC2Ev
                 U __ZN6icu_5713UnicodeStringD1Ev
0000000000007340 T __ZN6icu_5713UnicodeStringaSEOS0_
0000000000008f50 T __ZN6icu_5713VisibleDigitsC1Ev
0000000000008f90 T __ZN6icu_5713VisibleDigitsC2Ev
0000000000008f70 T __ZN6icu_5713VisibleDigitsD1Ev
0000000000009210 T __ZN6icu_5713VisibleDigitsD2Ev
                 U __ZN6icu_5714MessagePattern20validateArgumentNameERKNS_13UnicodeStringE
0000000000001f90 T __ZN6icu_5714MessagePattern32clearPatternAndSetApostropheModeE29UMessagePatternApostropheMode
0000000000005bb0 T __ZN6icu_5714MessagePattern4Part15hasNumericValueE23UMessagePatternPartType
                 U __ZN6icu_5714MessagePattern5clearEv
                 U __ZN6icu_5714MessagePattern5parseERKNS_13UnicodeStringEP11UParseErrorR10UErrorCode
                 U __ZN6icu_5714MessagePatternC1ER10UErrorCode
                 U __ZN6icu_5714MessagePatternC1ERKS0_
                 U __ZN6icu_5714MessagePatternD1Ev
                 U __ZN6icu_5714MessagePatternaSERKS0_
00000000000091a0 T __ZN6icu_5715MaybeStackArrayIcLi40EE12releaseArrayEv
00000000000090e0 T __ZN6icu_5715MaybeStackArrayIcLi40EEC1Ev
0000000000009140 T __ZN6icu_5715MaybeStackArrayIcLi40EEC2Ev
0000000000009120 T __ZN6icu_5715MaybeStackArrayIcLi40EED1Ev
0000000000009170 T __ZN6icu_5715MaybeStackArrayIcLi40EED2Ev
0000000000009100 T __ZN6icu_5715MaybeStackArrayIcLi40EEixEl
0000000000006cd0 T __ZN6icu_5716LocalPointerBaseINS_11FormattableEE6orphanEv
0000000000009370 T __ZN6icu_5716LocalPointerBaseINS_11FormattableEEC2EPS1_
0000000000009430 T __ZN6icu_5716LocalPointerBaseINS_11FormattableEED2Ev
0000000000002b30 T __ZN6icu_5716LocalPointerBaseINS_6FormatEE6orphanEv
00000000000092c0 T __ZN6icu_5716LocalPointerBaseINS_6FormatEEC2EPS1_
0000000000009330 T __ZN6icu_5716LocalPointerBaseINS_6FormatEED2Ev
0000000000004d40 T __ZN6icu_5717AppendableWrapper15formatAndAppendEPKNS_6FormatERKNS_11FormattableER10UErrorCode
0000000000004bf0 T __ZN6icu_5717AppendableWrapper15formatAndAppendEPKNS_6FormatERKNS_11FormattableERKNS_13UnicodeStringER10UErrorCode
0000000000004f50 T __ZN6icu_5717AppendableWrapper6appendEPKti
0000000000004eb0 T __ZN6icu_5717AppendableWrapper6appendERKNS_13UnicodeStringE
0000000000004b40 T __ZN6icu_5717AppendableWrapper6appendERKNS_13UnicodeStringEii
0000000000004e90 T __ZN6icu_5717AppendableWrapper6lengthEv
0000000000003ac0 T __ZN6icu_5717AppendableWrapperC1ERNS_10AppendableE
00000000000089e0 T __ZN6icu_5717AppendableWrapperC2ERNS_10AppendableE
                 U __ZN6icu_5717StringEnumeration4nextEPiR10UErrorCode
                 U __ZN6icu_5717StringEnumeration5unextEPiR10UErrorCode
                 U __ZN6icu_5717StringEnumerationC2Ev
                 U __ZN6icu_5717StringEnumerationD2Ev
0000000000000030 T __ZN6icu_5721FormatNameEnumeration16getStaticClassIDEv
0000000000007fe0 T __ZN6icu_5721FormatNameEnumeration5resetER10UErrorCode
0000000000007f40 T __ZN6icu_5721FormatNameEnumeration5snextER10UErrorCode
00000000000035b0 T __ZN6icu_5721FormatNameEnumerationC1EPNS_7UVectorER10UErrorCode
0000000000007ef0 T __ZN6icu_5721FormatNameEnumerationC2EPNS_7UVectorER10UErrorCode
00000000000080d0 T __ZN6icu_5721FormatNameEnumerationD0Ev
00000000000080b0 T __ZN6icu_5721FormatNameEnumerationD1Ev
0000000000008050 T __ZN6icu_5721FormatNameEnumerationD2Ev
                 U __ZN6icu_5721RuleBasedNumberFormatC1ENS_15URBNFRuleSetTagERKNS_6LocaleER10UErrorCode
0000000000003a90 T __ZN6icu_5723UnicodeStringAppendableC1ERNS_13UnicodeStringE
0000000000008940 T __ZN6icu_5723UnicodeStringAppendableC2ERNS_13UnicodeStringE
                 U __ZN6icu_5723UnicodeStringAppendableD1Ev
0000000000008650 T __ZN6icu_5725VisibleDigitsWithExponentC1Ev
0000000000008ee0 T __ZN6icu_5725VisibleDigitsWithExponentC2Ev
0000000000008670 T __ZN6icu_5725VisibleDigitsWithExponentD1Ev
0000000000009230 T __ZN6icu_5725VisibleDigitsWithExponentD2Ev
                 U __ZN6icu_576Format12setLocaleIDsEPKcS2_
                 U __ZN6icu_576FormatC2ERKS0_
                 U __ZN6icu_576FormatC2Ev
                 U __ZN6icu_576FormatD2Ev
                 U __ZN6icu_576FormataSERKS0_
                 U __ZN6icu_576Locale10getDefaultEv
                 U __ZN6icu_576LocaleC1EPKcS2_S2_S2_
                 U __ZN6icu_576LocaleC1ERKS0_
                 U __ZN6icu_576LocaleD1Ev
                 U __ZN6icu_576LocaleaSERKS0_
                 U __ZN6icu_577UMemorydaEPv
                 U __ZN6icu_577UMemorydlEPv
                 U __ZN6icu_577UMemorynaEm
                 U __ZN6icu_577UMemorynwEm
00000000000089c0 T __ZN6icu_577UObjectC2Ev
                 U __ZN6icu_577UVector10addElementEPvR10UErrorCode
                 U __ZN6icu_577UVector10setDeleterEPFvPvE
                 U __ZN6icu_577UVectorC1ER10UErrorCode
0000000000006df0 t __ZN6icu_57L4itosEiRNS_13UnicodeStringE
0000000000007b20 t __ZN6icu_57L8makeRBNFENS_15URBNFRuleSetTagERKNS_6LocaleERKNS_13UnicodeStringER10UErrorCode
0000000000006cf0 T __ZNK6icu_5710LocalArrayINS_11FormattableEEixEl
                 U __ZNK6icu_5711Formattable7getTypeEv
0000000000003910 T __ZNK6icu_5711Formattable8getArrayERi
                 U __ZNK6icu_5711Formattable9getDoubleER10UErrorCode
                 U __ZNK6icu_5711Formattable9getStringER10UErrorCode
                 U __ZNK6icu_5711Formattable9isNumericEv
                 U __ZNK6icu_5711PluralRules6selectERKNS_25VisibleDigitsWithExponentE
                 U __ZNK6icu_5711PluralRules6selectEd
                 U __ZNK6icu_5713DecimalFormat29initVisibleDigitsWithExponentERKNS_11FormattableERNS_25VisibleDigitsWithExponentER10UErrorCode
0000000000003080 T __ZNK6icu_5713MessageFormat10getFormatsERi
0000000000007ed0 T __ZNK6icu_5713MessageFormat11DummyFormat11parseObjectERKNS_13UnicodeStringERNS_11FormattableERNS_13ParsePositionE
0000000000007d40 T __ZNK6icu_5713MessageFormat11DummyFormat5cloneEv
0000000000007e80 T __ZNK6icu_5713MessageFormat11DummyFormat6formatERKNS_11FormattableERNS_13UnicodeStringEPNS_21FieldPositionIteratorER10UErrorCode
0000000000007df0 T __ZNK6icu_5713MessageFormat11DummyFormat6formatERKNS_11FormattableERNS_13UnicodeStringER10UErrorCode
0000000000007e30 T __ZNK6icu_5713MessageFormat11DummyFormat6formatERKNS_11FormattableERNS_13UnicodeStringERNS_13FieldPositionER10UErrorCode
0000000000007d20 T __ZNK6icu_5713MessageFormat11DummyFormateqERKNS_6FormatE
00000000000070a0 T __ZNK6icu_5713MessageFormat11parseObjectERKNS_13UnicodeStringERNS_11FormattableERNS_13ParsePositionE
00000000000057a0 T __ZNK6icu_5713MessageFormat14updateMetaDataERNS_17AppendableWrapperEiPNS_13FieldPositionEPKNS_11FormattableE
0000000000007cc0 T __ZNK6icu_5713MessageFormat15getArgTypeCountEv
0000000000000010 T __ZNK6icu_5713MessageFormat17getDynamicClassIDEv
0000000000002630 T __ZNK6icu_5713MessageFormat18getCachedFormatterEi
0000000000007c90 T __ZNK6icu_5713MessageFormat18usesNamedArgumentsEv
0000000000007a40 T __ZNK6icu_5713MessageFormat19createIntegerFormatERKNS_6LocaleER10UErrorCode
0000000000005970 T __ZNK6icu_5713MessageFormat19findOtherSubMessageEi
0000000000003990 T __ZNK6icu_5713MessageFormat20getArgFromListByNameEPKNS_11FormattableEPKNS_13UnicodeStringEiRS4_
0000000000005040 T __ZNK6icu_5713MessageFormat20getDefaultDateFormatER10UErrorCode
0000000000002100 T __ZNK6icu_5713MessageFormat20nextTopLevelArgStartEi
0000000000008210 T __ZNK6icu_5713MessageFormat22PluralSelectorProvider6selectEPvdR10UErrorCode
0000000000004c70 T __ZNK6icu_5713MessageFormat22getDefaultNumberFormatER10UErrorCode
00000000000050d0 T __ZNK6icu_5713MessageFormat23formatComplexSubMessageEiPKvPKNS_11FormattableEPKNS_13UnicodeStringEiRNS_17AppendableWrapperER10UErrorCode
0000000000005be0 T __ZNK6icu_5713MessageFormat24findFirstPluralNumberArgEiRKNS_13UnicodeStringE
00000000000057f0 T __ZNK6icu_5713MessageFormat33getLiteralStringUntilNextArgumentEi
0000000000001530 T __ZNK6icu_5713MessageFormat5cloneEv
0000000000006ea0 T __ZNK6icu_5713MessageFormat5parseERKNS_13UnicodeStringERNS_13ParsePositionERi
0000000000006ef0 T __ZNK6icu_5713MessageFormat5parseERKNS_13UnicodeStringERiR10UErrorCode
0000000000005d50 T __ZNK6icu_5713MessageFormat5parseEiRKNS_13UnicodeStringERNS_13ParsePositionERiR10UErrorCode
0000000000003630 T __ZNK6icu_5713MessageFormat6formatEPKNS_11FormattableEPKNS_13UnicodeStringEiRS4_PNS_13FieldPositionER10UErrorCode
00000000000035e0 T __ZNK6icu_5713MessageFormat6formatEPKNS_11FormattableEiRNS_13UnicodeStringERNS_13FieldPositionER10UErrorCode
0000000000003930 T __ZNK6icu_5713MessageFormat6formatEPKNS_13UnicodeStringEPKNS_11FormattableEiRS1_R10UErrorCode
0000000000003850 T __ZNK6icu_5713MessageFormat6formatERKNS_11FormattableERNS_13UnicodeStringERNS_13FieldPositionER10UErrorCode
0000000000003af0 T __ZNK6icu_5713MessageFormat6formatEiPKvPKNS_11FormattableEPKNS_13UnicodeStringEiRNS_17AppendableWrapperEPNS_13FieldPositionER10UErrorCode
0000000000001750 T __ZNK6icu_5713MessageFormat9getLocaleEv
0000000000001fc0 T __ZNK6icu_5713MessageFormat9toPatternERNS_13UnicodeStringE
00000000000011f0 T __ZNK6icu_5713MessageFormateqERKNS_6FormatE
0000000000006bc0 T __ZNK6icu_5713ParsePosition8getIndexEv
0000000000008840 T __ZNK6icu_5713UnicodeString10pinIndicesERiS1_
00000000000088f0 T __ZNK6icu_5713UnicodeString13getArrayStartEv
                 U __ZNK6icu_5713UnicodeString13tempSubStringEii
0000000000008e90 T __ZNK6icu_5713UnicodeString14getShortLengthEv
0000000000008e70 T __ZNK6icu_5713UnicodeString14hasShortLengthEv
0000000000006da0 T __ZNK6icu_5713UnicodeString6lengthEv
0000000000007c40 T __ZNK6icu_5713UnicodeString7compareEPKti
0000000000003a30 T __ZNK6icu_5713UnicodeString7compareERKS0_
0000000000008720 T __ZNK6icu_5713UnicodeString7compareEiiRKS0_
0000000000006c60 T __ZNK6icu_5713UnicodeString7compareEiiRKS0_ii
                 U __ZNK6icu_5713UnicodeString7indexOfEPKtiiii
0000000000006d20 T __ZNK6icu_5713UnicodeString7indexOfERKS0_i
0000000000008dd0 T __ZNK6icu_5713UnicodeString7indexOfERKS0_iiii
0000000000004fc0 T __ZNK6icu_5713UnicodeString7indexOfEt
0000000000008820 T __ZNK6icu_5713UnicodeString7isBogusEv
0000000000005d20 T __ZNK6icu_5713UnicodeString7isEmptyEv
0000000000008d60 T __ZNK6icu_5713UnicodeString8pinIndexERi
                 U __ZNK6icu_5713UnicodeString9doCompareEiiPKtii
0000000000008780 T __ZNK6icu_5713UnicodeString9doCompareEiiRKS0_ii
                 U __ZNK6icu_5713UnicodeString9doIndexOfEtii
00000000000072d0 T __ZNK6icu_5713UnicodeString9getBufferEv
0000000000002070 T __ZNK6icu_5714MessagePattern10countPartsEv
00000000000021f0 T __ZNK6icu_5714MessagePattern11getPartTypeEi
00000000000032b0 T __ZNK6icu_5714MessagePattern12getSubstringERKNS0_4PartE
                 U __ZNK6icu_5714MessagePattern15getPluralOffsetEi
00000000000020e0 T __ZNK6icu_5714MessagePattern16getPatternStringEv
0000000000001f70 T __ZNK6icu_5714MessagePattern17getApostropheModeEv
00000000000021a0 T __ZNK6icu_5714MessagePattern17getLimitPartIndexEi
0000000000006be0 T __ZNK6icu_5714MessagePattern17hasNamedArgumentsEv
0000000000002520 T __ZNK6icu_5714MessagePattern20partSubstringMatchesERKNS0_4PartERKNS_13UnicodeStringE
0000000000004e40 T __ZNK6icu_5714MessagePattern4Part10getArgTypeEv
0000000000002510 T __ZNK6icu_5714MessagePattern4Part7getTypeEv
0000000000004b20 T __ZNK6icu_5714MessagePattern4Part8getIndexEv
0000000000004b00 T __ZNK6icu_5714MessagePattern4Part8getLimitEv
0000000000002570 T __ZNK6icu_5714MessagePattern4Part8getValueEv
00000000000024e0 T __ZNK6icu_5714MessagePattern7getPartEi
                 U __ZNK6icu_5714MessagePatterneqERKS0_
0000000000001460 T __ZNK6icu_5714MessagePatternneERKS0_
0000000000002da0 T __ZNK6icu_5716LocalPointerBaseINS_6FormatEE7isValidEv
                 U __ZNK6icu_5717StringEnumeration5cloneEv
                 U __ZNK6icu_5717StringEnumerationeqERKS0_
                 U __ZNK6icu_5717StringEnumerationneERKS0_
0000000000000040 T __ZNK6icu_5721FormatNameEnumeration17getDynamicClassIDEv
0000000000008000 T __ZNK6icu_5721FormatNameEnumeration5countER10UErrorCode
                 U __ZNK6icu_576Format6formatERKNS_11FormattableERNS_13UnicodeStringEPNS_21FieldPositionIteratorER10UErrorCode
                 U __ZNK6icu_576Format6formatERKNS_11FormattableERNS_13UnicodeStringER10UErrorCode
                 U __ZNK6icu_576FormateqERKS0_
00000000000014e0 T __ZNK6icu_576FormatneERKS0_
00000000000002b0 T __ZNK6icu_576Locale7getNameEv
                 U __ZNK6icu_576LocaleeqERKS0_
0000000000001490 T __ZNK6icu_576LocaleneERKS0_
                 U __ZNK6icu_577UObject17getDynamicClassIDEv
0000000000007fc0 T __ZNK6icu_577UVector4sizeEv
                 U __ZNK6icu_577UVector9elementAtEi
                 U __ZSt9terminatev
                 U __ZTIN6icu_5712ChoiceFormatE
                 U __ZTIN6icu_5712NumberFormatE
                 U __ZTIN6icu_5712PluralFormat14PluralSelectorE
                 U __ZTIN6icu_5712PluralFormatE
                 U __ZTIN6icu_5712SelectFormatE
                 U __ZTIN6icu_5713DecimalFormatE
0000000000009c80 S __ZTIN6icu_5713MessageFormat11DummyFormatE
0000000000009e60 S __ZTIN6icu_5713MessageFormat22PluralSelectorProviderE
0000000000009dd0 S __ZTIN6icu_5713MessageFormatE
                 U __ZTIN6icu_5716SimpleDateFormatE
                 U __ZTIN6icu_5717StringEnumerationE
0000000000009e40 S __ZTIN6icu_5721FormatNameEnumerationE
                 U __ZTIN6icu_576FormatE
0000000000009e80 S __ZTSN6icu_5713MessageFormat11DummyFormatE
0000000000009f30 S __ZTSN6icu_5713MessageFormat22PluralSelectorProviderE
0000000000009ee0 S __ZTSN6icu_5713MessageFormatE
0000000000009f00 S __ZTSN6icu_5721FormatNameEnumerationE
                 U __ZTVN10__cxxabiv120__si_class_type_infoE
                 U __ZTVN6icu_5710AppendableE
                 U __ZTVN6icu_5711ReplaceableE
                 U __ZTVN6icu_5712PluralFormat14PluralSelectorE
0000000000009de8 S __ZTVN6icu_5713MessageFormat11DummyFormatE
0000000000009da8 S __ZTVN6icu_5713MessageFormat22PluralSelectorProviderE
0000000000009ba0 S __ZTVN6icu_5713MessageFormatE
                 U __ZTVN6icu_5713ParsePositionE
                 U __ZTVN6icu_5713UnicodeStringE
0000000000009d40 S __ZTVN6icu_5721FormatNameEnumerationE
                 U __ZTVN6icu_5723UnicodeStringAppendableE
                 U __ZTVN6icu_577UObjectE
000000000000db28 b __ZZN6icu_5713MessageFormat16getStaticClassIDEvE7classID
000000000000db29 b __ZZN6icu_5721FormatNameEnumeration16getStaticClassIDEvE7classID
0000000000000fa0 T ___clang_call_terminate
                 U ___cxa_begin_catch
                 U ___dynamic_cast
                 U ___gxx_personality_v0
                 U ___stack_chk_fail
                 U ___stack_chk_guard
                 U _memcpy
                 U _memset
                 U _u_strlen_57
                 U _uhash_close_57
                 U _uhash_compareLong_57
                 U _uhash_count_57
                 U _uhash_hashLong_57
                 U _uhash_iget_57
                 U _uhash_iput_57
                 U _uhash_iputi_57
                 U _uhash_nextElement_57
                 U _uhash_open_57
                 U _uhash_removeAll_57
                 U _uhash_setValueDeleter_57
                 U _umsg_autoQuoteApostrophe_57
                 U _uprv_deleteUObject_57
                 U _uprv_free_57
                 U _uprv_itou_57
                 U _uprv_malloc_57
                 U _uprv_realloc_57

libicui18n.a(umsg.ao):
0000000000002f90 s GCC_except_table11
0000000000002fcc s GCC_except_table18
0000000000002ff8 s GCC_except_table21
0000000000003024 s GCC_except_table22
0000000000002ed8 s GCC_except_table4
0000000000002f20 s GCC_except_table5
                 U __Unwind_Resume
0000000000001ff0 t __ZL9U_FAILURE10UErrorCode
0000000000002010 t __ZL9U_SUCCESS10UErrorCode
                 U __ZN6icu_5711Formattable7setDateEd
                 U __ZN6icu_5711Formattable7setLongEi
                 U __ZN6icu_5711Formattable8setInt64Ex
                 U __ZN6icu_5711Formattable9setDoubleEd
                 U __ZN6icu_5711Formattable9setStringERKNS_13UnicodeStringE
                 U __ZN6icu_5711FormattableC1Ev
                 U __ZN6icu_5711FormattableD1Ev
0000000000002dd0 T __ZN6icu_5711ReplaceableC2Ev
0000000000002720 T __ZN6icu_5713FieldPositionC1Ei
0000000000002e30 T __ZN6icu_5713FieldPositionC2Ei
                 U __ZN6icu_5713FieldPositionD1Ev
                 U __ZN6icu_5713MessageFormatC1ERKNS_13UnicodeStringERKNS_6LocaleER11UParseErrorR10UErrorCode
                 U __ZN6icu_5713UnicodeString5setToEPtii
                 U __ZN6icu_5713UnicodeStringC1EPKt
                 U __ZN6icu_5713UnicodeStringC1EPKti
                 U __ZN6icu_5713UnicodeStringC1EaPKti
0000000000002550 T __ZN6icu_5713UnicodeStringC1Ev
0000000000002d90 T __ZN6icu_5713UnicodeStringC2Ev
                 U __ZN6icu_5713UnicodeStringD1Ev
                 U __ZN6icu_5713UnicodeStringaSERKS0_
0000000000000000 T __ZN6icu_5720MessageFormatAdapter14getArgTypeListERKNS_13MessageFormatERi
0000000000002030 T __ZN6icu_5720MessageFormatAdapter19hasArgTypeConflictsERKNS_13MessageFormatE
                 U __ZN6icu_576LocaleC1EPKcS2_S2_S2_
                 U __ZN6icu_576LocaleD1Ev
                 U __ZN6icu_577UMemorydaEPv
                 U __ZN6icu_577UMemorydlEPv
                 U __ZN6icu_577UMemorynaEm
                 U __ZN6icu_577UMemorynwEm
0000000000002e10 T __ZN6icu_577UObjectC2Ev
0000000000002900 T __ZNK6icu_5711Formattable7getDateEv
0000000000002940 T __ZNK6icu_5711Formattable7getLongEv
                 U __ZNK6icu_5711Formattable7getTypeEv
0000000000002960 T __ZNK6icu_5711Formattable8getInt64Ev
0000000000002920 T __ZNK6icu_5711Formattable9getDoubleEv
0000000000002980 T __ZNK6icu_5711Formattable9getStringERNS_13UnicodeStringE
0000000000000030 T __ZNK6icu_5713MessageFormat14getArgTypeListERi
                 U __ZNK6icu_5713MessageFormat6formatEPKNS_11FormattableEiRNS_13UnicodeStringERNS_13FieldPositionER10UErrorCode
0000000000002ec0 T __ZNK6icu_5713UnicodeString14getShortLengthEv
0000000000002ea0 T __ZNK6icu_5713UnicodeString14hasShortLengthEv
00000000000029c0 T __ZNK6icu_5713UnicodeString6lengthEv
                 U __ZNK6icu_5713UnicodeString7extractEPtiR10UErrorCode
0000000000002a10 T __ZNK6icu_5713UnicodeString7extractEiiPti
                 U __ZNK6icu_5713UnicodeString9doExtractEiiPti
0000000000002260 T __ZNK6icu_576Locale7getNameEv
                 U __ZTVN6icu_5711ReplaceableE
                 U __ZTVN6icu_5713FieldPositionE
                 U __ZTVN6icu_5713UnicodeStringE
                 U __ZTVN6icu_577UObjectE
                 U ___gxx_personality_v0
                 U ___stack_chk_fail
                 U ___stack_chk_guard
                 U _memset
0000000000001160 T _u_formatMessageWithError_57
0000000000000060 T _u_formatMessage_57
0000000000001da0 T _u_parseMessageWithError_57
00000000000013b0 T _u_parseMessage_57
                 U _u_strlen_57
                 U _u_terminateUChars_57
0000000000001330 T _u_vformatMessageWithError_57
0000000000000220 T _u_vformatMessage_57
0000000000001f70 T _u_vparseMessageWithError_57
0000000000001550 T _u_vparseMessage_57
0000000000002280 T _umsg_applyPattern_57
0000000000002a50 T _umsg_autoQuoteApostrophe_57
0000000000002050 T _umsg_clone_57
0000000000001110 T _umsg_close_57
0000000000002570 T _umsg_format_57
0000000000002210 T _umsg_getLocale_57
00000000000002a0 T _umsg_open_57
0000000000002750 T _umsg_parse_57
0000000000002100 T _umsg_setLocale_57
00000000000023d0 T _umsg_toPattern_57
0000000000000660 T _umsg_vformat_57
00000000000015d0 T _umsg_vparse_57

libicui18n.a(numfmt.ao):
00000000000070b0 s GCC_except_table113
00000000000070ec s GCC_except_table117
0000000000007118 s GCC_except_table119
00000000000072cc s GCC_except_table152
00000000000072f8 s GCC_except_table153
0000000000007324 s GCC_except_table156
0000000000007350 s GCC_except_table165
0000000000007368 s GCC_except_table167
0000000000007394 s GCC_except_table171
00000000000073e8 s GCC_except_table181
0000000000007400 s GCC_except_table187
000000000000742c s GCC_except_table192
0000000000006e98 s GCC_except_table20
0000000000007444 s GCC_except_table201
000000000000745c s GCC_except_table204
000000000000747c s GCC_except_table211
000000000000749c s GCC_except_table221
00000000000074c8 s GCC_except_table226
00000000000074e8 s GCC_except_table236
0000000000006ec4 s GCC_except_table30
0000000000006ef0 s GCC_except_table39
0000000000006e6c s GCC_except_table4
0000000000006f38 s GCC_except_table51
0000000000006f80 s GCC_except_table54
0000000000006fac s GCC_except_table56
0000000000006fd8 s GCC_except_table57
0000000000007004 s GCC_except_table58
0000000000007030 s GCC_except_table61
0000000000007084 s GCC_except_table88
                 U __Unwind_Resume
0000000000007cf0 d __ZL11gFormatKeys
0000000000007ca0 d __ZL12nscacheMutex
00000000000055b0 t __ZL14numfmt_cleanupv
0000000000007ce0 d __ZL15gNumberElements
000000000000c590 b __ZL16gNSCacheInitOnce
000000000000c588 b __ZL16gServiceInitOnce
000000000000752c s __ZL19gDoubleCurrencySign
0000000000007528 s __ZL19gSingleCurrencySign
000000000000c580 b __ZL21NumberingSystem_cache
0000000000005b80 t __ZL21deleteNumberingSystemPv
0000000000007650 s __ZL21gLastResortDecimalPat
0000000000007686 s __ZL21gLastResortPercentPat
0000000000007670 s __ZL22gLastResortCurrencyPat
0000000000007694 s __ZL24gLastResortScientificPat
00000000000076a0 s __ZL25gLastResortIsoCurrencyPat
0000000000007960 s __ZL25gLastResortNumberPatterns
00000000000076c0 s __ZL28gLastResortPluralCurrencyPat
00000000000076e0 s __ZL32gLastResortAccountingCurrencyPat
0000000000007d78 d __ZL5gLatn
000000000000c578 b __ZL8gService
0000000000000790 t __ZL9U_FAILURE10UErrorCode
0000000000000260 t __ZL9U_SUCCESS10UErrorCode
0000000000007ce8 d __ZL9gPatterns
                 U __ZN6icu_5710CharString20appendInvariantCharsERKNS_13UnicodeStringER10UErrorCode
0000000000004b20 T __ZN6icu_5710CharString4dataEv
0000000000004a30 T __ZN6icu_5710CharStringC1Ev
0000000000005d00 T __ZN6icu_5710CharStringC2Ev
0000000000004ba0 T __ZN6icu_5710CharStringD1Ev
00000000000060a0 T __ZN6icu_5710CharStringD2Ev
                 U __ZN6icu_5710ICUService10unregisterEPKvR10UErrorCode
                 U __ZN6icu_5710ICUService11clearCachesEv
                 U __ZN6icu_5710ICUService15registerFactoryEPNS_17ICUServiceFactoryER10UErrorCode
                 U __ZN6icu_5710ICUService19createSimpleFactoryEPNS_7UObjectERKNS_13UnicodeStringEaR10UErrorCode
                 U __ZN6icu_5710ICUService21reInitializeFactoriesEv
                 U __ZN6icu_5710ICUService5resetEv
                 U __ZN6icu_5711Formattable16setDecimalNumberERKNS_11StringPieceER10UErrorCode
                 U __ZN6icu_5711FormattableC1Ev
                 U __ZN6icu_5711FormattableD1Ev
                 U __ZN6icu_5711ICUNotifier11addListenerEPKNS_13EventListenerER10UErrorCode
                 U __ZN6icu_5711ICUNotifier13notifyChangedEv
                 U __ZN6icu_5711ICUNotifier14removeListenerEPKNS_13EventListenerER10UErrorCode
0000000000005320 T __ZN6icu_5711ReplaceableC2Ev
0000000000000c80 T __ZN6icu_5712ArgExtractorC1ERKNS_12NumberFormatERKNS_11FormattableER10UErrorCode
0000000000000b30 T __ZN6icu_5712ArgExtractorC2ERKNS_12NumberFormatERKNS_11FormattableER10UErrorCode
0000000000000cd0 T __ZN6icu_5712ArgExtractorD1Ev
0000000000000cc0 T __ZN6icu_5712ArgExtractorD2Ev
0000000000006c50 T __ZN6icu_5712CacheKeyBaseC2ERKS0_
00000000000069d0 T __ZN6icu_5712CacheKeyBaseC2Ev
                 U __ZN6icu_5712CacheKeyBaseD2Ev
0000000000001310 T __ZN6icu_5712LocalPointerINS_12NumberFormatEEC1EPS1_
0000000000006310 T __ZN6icu_5712LocalPointerINS_12NumberFormatEEC2EPS1_
0000000000001360 T __ZN6icu_5712LocalPointerINS_12NumberFormatEED1Ev
0000000000006360 T __ZN6icu_5712LocalPointerINS_12NumberFormatEED2Ev
0000000000001fc0 T __ZN6icu_5712LocalPointerINS_14CurrencyAmountEEC1EPS1_R10UErrorCode
00000000000063c0 T __ZN6icu_5712LocalPointerINS_14CurrencyAmountEEC2EPS1_R10UErrorCode
0000000000002030 T __ZN6icu_5712LocalPointerINS_14CurrencyAmountEED1Ev
0000000000006490 T __ZN6icu_5712LocalPointerINS_14CurrencyAmountEED2Ev
0000000000004700 T __ZN6icu_5712LocalPointerINS_15NumberingSystemEE12adoptInsteadEPS1_
0000000000004680 T __ZN6icu_5712LocalPointerINS_15NumberingSystemEEC1EPS1_
0000000000006d10 T __ZN6icu_5712LocalPointerINS_15NumberingSystemEEC2EPS1_
0000000000004cc0 T __ZN6icu_5712LocalPointerINS_15NumberingSystemEED1Ev
0000000000006d60 T __ZN6icu_5712LocalPointerINS_15NumberingSystemEED2Ev
00000000000047d0 T __ZN6icu_5712LocalPointerINS_20DecimalFormatSymbolsEE29adoptInsteadAndCheckErrorCodeEPS1_R10UErrorCode
0000000000004770 T __ZN6icu_5712LocalPointerINS_20DecimalFormatSymbolsEEC1EPS1_
0000000000006dc0 T __ZN6icu_5712LocalPointerINS_20DecimalFormatSymbolsEEC2EPS1_
0000000000004ca0 T __ZN6icu_5712LocalPointerINS_20DecimalFormatSymbolsEED1Ev
0000000000006e10 T __ZN6icu_5712LocalPointerINS_20DecimalFormatSymbolsEED2Ev
0000000000002d40 T __ZN6icu_5712NumberFormat10setContextE15UDisplayContextR10UErrorCode
0000000000002070 T __ZN6icu_5712NumberFormat10setLenientEa
0000000000002630 T __ZN6icu_5712NumberFormat10unregisterEPKvR10UErrorCode
0000000000002c00 T __ZN6icu_5712NumberFormat11setCurrencyEPKtR10UErrorCode
0000000000002890 T __ZN6icu_5712NumberFormat12makeInstanceERKNS_6LocaleE18UNumberFormatStyleR10UErrorCode
0000000000003240 T __ZN6icu_5712NumberFormat12makeInstanceERKNS_6LocaleE18UNumberFormatStyleaR10UErrorCode
0000000000002090 T __ZN6icu_5712NumberFormat14createInstanceER10UErrorCode
00000000000020c0 T __ZN6icu_5712NumberFormat14createInstanceERKNS_6LocaleE18UNumberFormatStyleR10UErrorCode
0000000000002180 T __ZN6icu_5712NumberFormat14createInstanceERKNS_6LocaleER10UErrorCode
00000000000024c0 T __ZN6icu_5712NumberFormat15registerFactoryEPNS_19NumberFormatFactoryER10UErrorCode
00000000000029a0 T __ZN6icu_5712NumberFormat15setGroupingUsedEa
0000000000000000 T __ZN6icu_5712NumberFormat16getStaticClassIDEv
0000000000003210 T __ZN6icu_5712NumberFormat16isStyleSupportedE18UNumberFormatStyle
00000000000022d0 T __ZN6icu_5712NumberFormat19getAvailableLocalesERi
0000000000002700 T __ZN6icu_5712NumberFormat19getAvailableLocalesEv
0000000000002050 T __ZN6icu_5712NumberFormat19setParseIntegerOnlyEa
00000000000028c0 T __ZN6icu_5712NumberFormat20createSharedInstanceERKNS_6LocaleE18UNumberFormatStyleR10UErrorCode
0000000000002210 T __ZN6icu_5712NumberFormat21createPercentInstanceER10UErrorCode
0000000000002240 T __ZN6icu_5712NumberFormat21createPercentInstanceERKNS_6LocaleER10UErrorCode
00000000000021b0 T __ZN6icu_5712NumberFormat22createCurrencyInstanceER10UErrorCode
00000000000021e0 T __ZN6icu_5712NumberFormat22createCurrencyInstanceERKNS_6LocaleER10UErrorCode
0000000000002750 T __ZN6icu_5712NumberFormat22internalCreateInstanceERKNS_6LocaleE18UNumberFormatStyleR10UErrorCode
00000000000029e0 T __ZN6icu_5712NumberFormat23setMaximumIntegerDigitsEi
0000000000002a70 T __ZN6icu_5712NumberFormat23setMinimumIntegerDigitsEi
0000000000002270 T __ZN6icu_5712NumberFormat24createScientificInstanceER10UErrorCode
00000000000022a0 T __ZN6icu_5712NumberFormat24createScientificInstanceERKNS_6LocaleER10UErrorCode
0000000000007520 S __ZN6icu_5712NumberFormat24gDefaultMaxIntegerDigitsE
0000000000007524 S __ZN6icu_5712NumberFormat24gDefaultMinIntegerDigitsE
0000000000002b00 T __ZN6icu_5712NumberFormat24setMaximumFractionDigitsEi
0000000000002b90 T __ZN6icu_5712NumberFormat24setMinimumFractionDigitsEi
0000000000000400 T __ZN6icu_5712NumberFormatC2ERKS0_
0000000000000280 T __ZN6icu_5712NumberFormatC2Ev
0000000000000340 T __ZN6icu_5712NumberFormatD0Ev
0000000000000330 T __ZN6icu_5712NumberFormatD1Ev
0000000000000310 T __ZN6icu_5712NumberFormatD2Ev
0000000000000480 T __ZN6icu_5712NumberFormataSERKS0_
0000000000006650 T __ZN6icu_5712SharedObject7copyPtrINS_18SharedNumberFormatEEEvPKT_RS5_
00000000000066c0 T __ZN6icu_5712SharedObject8clearPtrINS_18SharedNumberFormatEEEvRPKT_
0000000000005a90 T __ZN6icu_5712SharedObjectC2Ev
                 U __ZN6icu_5712SharedObjectD2Ev
0000000000003100 T __ZN6icu_5712UnifiedCache11getByLocaleINS_18SharedNumberFormatEEEvRKNS_6LocaleERPKT_R10UErrorCode
                 U __ZN6icu_5712UnifiedCache11getInstanceER10UErrorCode
                 U __ZN6icu_5713DecimalFormat16setCurrencyUsageE14UCurrencyUsageP10UErrorCode
                 U __ZN6icu_5713DecimalFormatC1ERKNS_13UnicodeStringEPNS_20DecimalFormatSymbolsE18UNumberFormatStyleR10UErrorCode
00000000000019d0 T __ZN6icu_5713FieldPositionC1Ei
00000000000053c0 T __ZN6icu_5713FieldPositionC2Ei
                 U __ZN6icu_5713FieldPositionD1Ev
                 U __ZN6icu_5713LocaleUtility18initNameFromLocaleERKNS_6LocaleERNS_13UnicodeStringE
0000000000001ff0 T __ZN6icu_5713ParsePosition8setIndexEi
0000000000001c00 T __ZN6icu_5713ParsePositionC1Ei
0000000000005430 T __ZN6icu_5713ParsePositionC2Ei
                 U __ZN6icu_5713ParsePositionD1Ev
0000000000004bc0 T __ZN6icu_5713UnicodeString14findAndReplaceERKS0_S2_
                 U __ZN6icu_5713UnicodeString14findAndReplaceEiiRKS0_iiS2_ii
0000000000004910 T __ZN6icu_5713UnicodeString5setToEPKti
0000000000004960 T __ZN6icu_5713UnicodeString5setToERKS0_
0000000000004aa0 T __ZN6icu_5713UnicodeString5setToERKS0_i
0000000000004a50 T __ZN6icu_5713UnicodeString5setToERKS0_ii
                 U __ZN6icu_5713UnicodeString5setToEaPKti
                 U __ZN6icu_5713UnicodeString7unBogusEv
                 U __ZN6icu_5713UnicodeString8copyFromERKS0_a
                 U __ZN6icu_5713UnicodeString9doReplaceEiiPKtii
                 U __ZN6icu_5713UnicodeString9doReplaceEiiRKS0_ii
                 U __ZN6icu_5713UnicodeStringC1ERKS0_
                 U __ZN6icu_5713UnicodeStringC1EaPKti
0000000000000140 T __ZN6icu_5713UnicodeStringC1Ev
00000000000052e0 T __ZN6icu_5713UnicodeStringC2Ev
                 U __ZN6icu_5713UnicodeStringD1Ev
00000000000045b0 T __ZN6icu_5713umtx_initOnceERNS_9UInitOnceEPFvvE
                 U __ZN6icu_5714CurrencyAmountC1ERKNS_11FormattableEPKtR10UErrorCode
0000000000006530 T __ZN6icu_5714LocaleCacheKeyINS_18SharedNumberFormatEEC1ERKNS_6LocaleE
0000000000006b60 T __ZN6icu_5714LocaleCacheKeyINS_18SharedNumberFormatEEC1ERKS2_
0000000000006700 T __ZN6icu_5714LocaleCacheKeyINS_18SharedNumberFormatEEC2ERKNS_6LocaleE
0000000000006b90 T __ZN6icu_5714LocaleCacheKeyINS_18SharedNumberFormatEEC2ERKS2_
00000000000067d0 T __ZN6icu_5714LocaleCacheKeyINS_18SharedNumberFormatEED0Ev
0000000000006560 T __ZN6icu_5714LocaleCacheKeyINS_18SharedNumberFormatEED1Ev
0000000000006cc0 T __ZN6icu_5714LocaleCacheKeyINS_18SharedNumberFormatEED2Ev
0000000000005e20 T __ZN6icu_5715MaybeStackArrayIcLi40EE12releaseArrayEv
0000000000005d60 T __ZN6icu_5715MaybeStackArrayIcLi40EEC1Ev
0000000000005dc0 T __ZN6icu_5715MaybeStackArrayIcLi40EEC2Ev
0000000000005da0 T __ZN6icu_5715MaybeStackArrayIcLi40EED1Ev
0000000000005df0 T __ZN6icu_5715MaybeStackArrayIcLi40EED2Ev
0000000000005d80 T __ZN6icu_5715MaybeStackArrayIcLi40EEixEl
                 U __ZN6icu_5715NumberingSystem14createInstanceERKNS_6LocaleER10UErrorCode
                 U __ZN6icu_5716ICULocaleService16registerInstanceEPNS_7UObjectERKNS_13UnicodeStringEaR10UErrorCode
                 U __ZN6icu_5716ICULocaleService16registerInstanceEPNS_7UObjectERKNS_6LocaleER10UErrorCode
                 U __ZN6icu_5716ICULocaleService16registerInstanceEPNS_7UObjectERKNS_6LocaleEiR10UErrorCode
                 U __ZN6icu_5716ICULocaleService16registerInstanceEPNS_7UObjectERKNS_6LocaleEiiR10UErrorCode
                 U __ZN6icu_5716ICULocaleServiceC2ERKNS_13UnicodeStringE
                 U __ZN6icu_5716ICULocaleServiceD2Ev
0000000000004870 T __ZN6icu_5716LocalPointerBaseI15UResourceBundleE6orphanEv
0000000000005c50 T __ZN6icu_5716LocalPointerBaseI15UResourceBundleEC2EPS1_
0000000000006120 T __ZN6icu_5716LocalPointerBaseI15UResourceBundleED2Ev
0000000000006340 T __ZN6icu_5716LocalPointerBaseINS_12NumberFormatEEC2EPS1_
00000000000063b0 T __ZN6icu_5716LocalPointerBaseINS_12NumberFormatEED2Ev
0000000000002010 T __ZN6icu_5716LocalPointerBaseINS_14CurrencyAmountEE6orphanEv
0000000000006460 T __ZN6icu_5716LocalPointerBaseINS_14CurrencyAmountEEC2EPS1_
0000000000006480 T __ZN6icu_5716LocalPointerBaseINS_14CurrencyAmountEED2Ev
0000000000006d40 T __ZN6icu_5716LocalPointerBaseINS_15NumberingSystemEEC2EPS1_
0000000000006db0 T __ZN6icu_5716LocalPointerBaseINS_15NumberingSystemEED2Ev
0000000000004c40 T __ZN6icu_5716LocalPointerBaseINS_20DecimalFormatSymbolsEE6orphanEv
0000000000006df0 T __ZN6icu_5716LocalPointerBaseINS_20DecimalFormatSymbolsEEC2EPS1_
0000000000006e60 T __ZN6icu_5716LocalPointerBaseINS_20DecimalFormatSymbolsEED2Ev
                 U __ZN6icu_5716LocaleKeyFactoryC2Ei
                 U __ZN6icu_5716LocaleKeyFactoryD2Ev
00000000000059d0 T __ZN6icu_5716umtx_loadAcquireERNSt3__16atomicIiEE
00000000000030b0 T __ZN6icu_5718SharedNumberFormatC1EPNS_12NumberFormatE
0000000000005a50 T __ZN6icu_5718SharedNumberFormatC2EPNS_12NumberFormatE
00000000000003d0 T __ZN6icu_5718SharedNumberFormatD0Ev
00000000000003b0 T __ZN6icu_5718SharedNumberFormatD1Ev
0000000000000350 T __ZN6icu_5718SharedNumberFormatD2Ev
0000000000000100 T __ZN6icu_5719NumberFormatFactoryC2Ev
0000000000000040 T __ZN6icu_5719NumberFormatFactoryD0Ev
0000000000000030 T __ZN6icu_5719NumberFormatFactoryD1Ev
0000000000000010 T __ZN6icu_5719NumberFormatFactoryD2Ev
                 U __ZN6icu_5720DecimalFormatSymbolsC1ERKNS_6LocaleER10UErrorCode
                 U __ZN6icu_5720umtx_initImplPreInitERNS_9UInitOnceE
                 U __ZN6icu_5721RuleBasedNumberFormatC1ENS_15URBNFRuleSetTagERKNS_6LocaleER10UErrorCode
                 U __ZN6icu_5721umtx_initImplPostInitERNS_9UInitOnceE
00000000000058d0 T __ZN6icu_5722ICUNumberFormatFactoryC1Ev
00000000000058f0 T __ZN6icu_5722ICUNumberFormatFactoryC2Ev
0000000000002330 T __ZN6icu_5722ICUNumberFormatFactoryD0Ev
0000000000002310 T __ZN6icu_5722ICUNumberFormatFactoryD1Ev
00000000000022f0 T __ZN6icu_5722ICUNumberFormatFactoryD2Ev
0000000000005650 T __ZN6icu_5722ICUNumberFormatServiceC1Ev
0000000000005710 T __ZN6icu_5722ICUNumberFormatServiceC2Ev
0000000000002490 T __ZN6icu_5722ICUNumberFormatServiceD0Ev
0000000000002470 T __ZN6icu_5722ICUNumberFormatServiceD1Ev
0000000000002450 T __ZN6icu_5722ICUNumberFormatServiceD2Ev
                 U __ZN6icu_5724ICUResourceBundleFactoryC2Ev
                 U __ZN6icu_5724ICUResourceBundleFactoryD2Ev
0000000000000050 T __ZN6icu_5725SimpleNumberFormatFactoryC2ERKNS_6LocaleEa
00000000000001c0 T __ZN6icu_5725SimpleNumberFormatFactoryD0Ev
00000000000001b0 T __ZN6icu_5725SimpleNumberFormatFactoryD1Ev
0000000000000160 T __ZN6icu_5725SimpleNumberFormatFactoryD2Ev
0000000000004890 T __ZN6icu_5727LocalUResourceBundlePointer12adoptInsteadEP15UResourceBundle
00000000000047a0 T __ZN6icu_5727LocalUResourceBundlePointerC1EP15UResourceBundle
0000000000005c20 T __ZN6icu_5727LocalUResourceBundlePointerC2EP15UResourceBundle
0000000000004c80 T __ZN6icu_5727LocalUResourceBundlePointerD1Ev
00000000000060c0 T __ZN6icu_5727LocalUResourceBundlePointerD2Ev
00000000000046b0 T __ZN6icu_575MutexC1EP6UMutex
0000000000005bc0 T __ZN6icu_575MutexC2EP6UMutex
00000000000046e0 T __ZN6icu_575MutexD1Ev
0000000000005bf0 T __ZN6icu_575MutexD2Ev
                 U __ZN6icu_576Format12setLocaleIDsEPKcS2_
                 U __ZN6icu_576FormatC2ERKS0_
                 U __ZN6icu_576FormatC2Ev
                 U __ZN6icu_576FormatD2Ev
                 U __ZN6icu_576FormataSERKS0_
                 U __ZN6icu_576Locale10getDefaultEv
                 U __ZN6icu_576Locale14createFromNameEPKc
                 U __ZN6icu_576Locale19getAvailableLocalesERi
                 U __ZN6icu_576LocaleC1EPKcS2_S2_S2_
                 U __ZN6icu_576LocaleC1ERKS0_
                 U __ZN6icu_576LocaleC1Ev
                 U __ZN6icu_576LocaleD1Ev
                 U __ZN6icu_576LocaleaSERKS0_
                 U __ZN6icu_577UMemorydlEPv
                 U __ZN6icu_577UMemorynwEm
0000000000006ca0 T __ZN6icu_577UObjectC2ERKS0_
00000000000052c0 T __ZN6icu_577UObjectC2Ev
                 U __ZN6icu_577UObjectD2Ev
0000000000006c10 T __ZN6icu_578CacheKeyINS_18SharedNumberFormatEEC2ERKS2_
0000000000006770 T __ZN6icu_578CacheKeyINS_18SharedNumberFormatEEC2Ev
0000000000006a30 T __ZN6icu_578CacheKeyINS_18SharedNumberFormatEED0Ev
0000000000006a20 T __ZN6icu_578CacheKeyINS_18SharedNumberFormatEED1Ev
00000000000067b0 T __ZN6icu_578CacheKeyINS_18SharedNumberFormatEED2Ev
0000000000006160 T __ZN6icu_579Hashtable3putERKNS_13UnicodeStringEPvR10UErrorCode
0000000000006270 T __ZN6icu_579Hashtable4initEPFi8UElementEPFaS1_S1_ES5_R10UErrorCode
0000000000006130 T __ZN6icu_579HashtableC1ER10UErrorCode
0000000000006230 T __ZN6icu_579HashtableC2ER10UErrorCode
00000000000023e0 T __ZN6icu_579HashtableD1Ev
00000000000054a0 T __ZN6icu_579HashtableD2Ev
0000000000002600 T __ZN6icu_579NFFactoryC1EPNS_19NumberFormatFactoryE
0000000000005930 T __ZN6icu_579NFFactoryC2EPNS_19NumberFormatFactoryE
0000000000002420 T __ZN6icu_579NFFactoryD0Ev
0000000000002400 T __ZN6icu_579NFFactoryD1Ev
0000000000002360 T __ZN6icu_579NFFactoryD2Ev
0000000000005670 T __ZN6icu_579UInitOnce5resetEv
00000000000059a0 T __ZN6icu_579UInitOnce7isResetEv
00000000000026b0 t __ZN6icu_57L11haveServiceEv
0000000000004600 t __ZN6icu_57L11nscacheInitEv
00000000000025d0 t __ZN6icu_57L22getNumberFormatServiceEv
0000000000005500 t __ZN6icu_57L23initNumberFormatServiceEv
                 U __ZNK6icu_5710ICUService14countFactoriesEv
                 U __ZNK6icu_5710ICUService14notifyListenerERNS_13EventListenerE
                 U __ZNK6icu_5710ICUService15acceptsListenerERKNS_13EventListenerE
                 U __ZNK6icu_5710ICUService6getKeyERNS_13ICUServiceKeyEPNS_13UnicodeStringEPKNS_17ICUServiceFactoryER10UErrorCode
                 U __ZNK6icu_5710ICUService6getKeyERNS_13ICUServiceKeyEPNS_13UnicodeStringER10UErrorCode
0000000000001380 T __ZNK6icu_5711Formattable12getDigitListEv
00000000000013c0 T __ZNK6icu_5711Formattable7getLongEv
                 U __ZNK6icu_5711Formattable7getTypeEv
00000000000013e0 T __ZNK6icu_5711Formattable8getInt64Ev
00000000000013a0 T __ZNK6icu_5711Formattable9getDoubleEv
                 U __ZNK6icu_5711Formattable9getObjectEv
                 U __ZNK6icu_5711Formattable9isNumericEv
00000000000012d0 T __ZNK6icu_5712ArgExtractor11wasCurrencyEv
00000000000012b0 T __ZNK6icu_5712ArgExtractor3isoEv
0000000000001290 T __ZNK6icu_5712ArgExtractor6numberEv
0000000000005380 T __ZNK6icu_5712CurrencyUnit14getISOCurrencyEv
0000000000002db0 T __ZNK6icu_5712NumberFormat10getContextE19UDisplayContextTypeR10UErrorCode
00000000000012f0 T __ZNK6icu_5712NumberFormat11getCurrencyEv
00000000000018f0 T __ZNK6icu_5712NumberFormat11parseObjectERKNS_13UnicodeStringERNS_11FormattableERNS_13ParsePositionE
0000000000001c50 T __ZNK6icu_5712NumberFormat13parseCurrencyERKNS_13UnicodeStringERNS_13ParsePositionE
0000000000002980 T __ZNK6icu_5712NumberFormat14isGroupingUsedEv
0000000000002c90 T __ZNK6icu_5712NumberFormat20getEffectiveCurrencyEPtR10UErrorCode
00000000000029c0 T __ZNK6icu_5712NumberFormat23getMaximumIntegerDigitsEv
0000000000002a50 T __ZNK6icu_5712NumberFormat23getMinimumIntegerDigitsEv
0000000000002ae0 T __ZNK6icu_5712NumberFormat24getMaximumFractionDigitsEv
0000000000002b70 T __ZNK6icu_5712NumberFormat24getMinimumFractionDigitsEv
0000000000001b20 T __ZNK6icu_5712NumberFormat5parseERKNS_13UnicodeStringERNS_11FormattableER10UErrorCode
0000000000001400 T __ZNK6icu_5712NumberFormat6formatERKNS_11FormattableERNS_13UnicodeStringEPNS_21FieldPositionIteratorER10UErrorCode
0000000000000e10 T __ZNK6icu_5712NumberFormat6formatERKNS_11FormattableERNS_13UnicodeStringERNS_13FieldPositionER10UErrorCode
00000000000009d0 T __ZNK6icu_5712NumberFormat6formatERKNS_11StringPieceERNS_13UnicodeStringEPNS_21FieldPositionIteratorER10UErrorCode
0000000000000cf0 T __ZNK6icu_5712NumberFormat6formatERKNS_9DigitListERNS_13UnicodeStringEPNS_21FieldPositionIteratorER10UErrorCode
0000000000000d80 T __ZNK6icu_5712NumberFormat6formatERKNS_9DigitListERNS_13UnicodeStringERNS_13FieldPositionER10UErrorCode
0000000000001950 T __ZNK6icu_5712NumberFormat6formatEdRNS_13UnicodeStringE
0000000000000740 T __ZNK6icu_5712NumberFormat6formatEdRNS_13UnicodeStringEPNS_21FieldPositionIteratorER10UErrorCode
0000000000000850 T __ZNK6icu_5712NumberFormat6formatEdRNS_13UnicodeStringERNS_13FieldPositionER10UErrorCode
0000000000001a00 T __ZNK6icu_5712NumberFormat6formatEiRNS_13UnicodeStringE
00000000000007b0 T __ZNK6icu_5712NumberFormat6formatEiRNS_13UnicodeStringEPNS_21FieldPositionIteratorER10UErrorCode
00000000000008c0 T __ZNK6icu_5712NumberFormat6formatEiRNS_13UnicodeStringERNS_13FieldPositionER10UErrorCode
0000000000001a90 T __ZNK6icu_5712NumberFormat6formatExRNS_13UnicodeStringE
0000000000000800 T __ZNK6icu_5712NumberFormat6formatExRNS_13UnicodeStringEPNS_21FieldPositionIteratorER10UErrorCode
0000000000001890 T __ZNK6icu_5712NumberFormat6formatExRNS_13UnicodeStringERNS_13FieldPositionE
0000000000000940 T __ZNK6icu_5712NumberFormat6formatExRNS_13UnicodeStringERNS_13FieldPositionER10UErrorCode
0000000000004ce0 T __ZNK6icu_5712NumberFormat9isLenientEv
0000000000000590 T __ZNK6icu_5712NumberFormateqERKNS_6FormatE
                 U __ZNK6icu_5712SharedObject6addRefEa
00000000000030e0 T __ZNK6icu_5712SharedObject6addRefEv
                 U __ZNK6icu_5712SharedObject9removeRefEa
0000000000002960 T __ZNK6icu_5712SharedObject9removeRefEv
0000000000006580 T __ZNK6icu_5712UnifiedCache3getINS_18SharedNumberFormatEEEvRKNS_8CacheKeyIT_EEPKvRPKS4_R10UErrorCode
00000000000064e0 T __ZNK6icu_5712UnifiedCache3getINS_18SharedNumberFormatEEEvRKNS_8CacheKeyIT_EERPKS4_R10UErrorCode
                 U __ZNK6icu_5712UnifiedCache4_getERKNS_12CacheKeyBaseERPKNS_12SharedObjectEPKvR10UErrorCode
0000000000001c30 T __ZNK6icu_5713ParsePosition8getIndexEv
0000000000005fa0 T __ZNK6icu_5713UnicodeString10pinIndicesERiS1_
00000000000049e0 T __ZNK6icu_5713UnicodeString11lastIndexOfEt
                 U __ZNK6icu_5713UnicodeString13doLastIndexOfEtii
0000000000006050 T __ZNK6icu_5713UnicodeString13getArrayStartEv
                 U __ZNK6icu_5713UnicodeString13tempSubStringEii
0000000000005ce0 T __ZNK6icu_5713UnicodeString14getShortLengthEv
0000000000005cc0 T __ZNK6icu_5713UnicodeString14hasShortLengthEv
0000000000005c70 T __ZNK6icu_5713UnicodeString6lengthEv
0000000000004b40 T __ZNK6icu_5713UnicodeString7compareERKS0_
0000000000004990 T __ZNK6icu_5713UnicodeString7indexOfEt
0000000000005f80 T __ZNK6icu_5713UnicodeString7isBogusEv
0000000000005e50 T __ZNK6icu_5713UnicodeString8pinIndexERi
                 U __ZNK6icu_5713UnicodeString9doCompareEiiPKtii
0000000000005ee0 T __ZNK6icu_5713UnicodeString9doCompareEiiRKS0_ii
                 U __ZNK6icu_5713UnicodeString9doIndexOfEtii
0000000000005360 T __ZNK6icu_5714CurrencyAmount11getCurrencyEv
0000000000000c30 T __ZNK6icu_5714CurrencyAmount14getISOCurrencyEv
0000000000002e20 T __ZNK6icu_5714LocaleCacheKeyINS_18SharedNumberFormatEE12createObjectEPKvR10UErrorCode
0000000000006970 T __ZNK6icu_5714LocaleCacheKeyINS_18SharedNumberFormatEE16writeDescriptionEPci
0000000000006840 T __ZNK6icu_5714LocaleCacheKeyINS_18SharedNumberFormatEE5cloneEv
0000000000006800 T __ZNK6icu_5714LocaleCacheKeyINS_18SharedNumberFormatEE8hashCodeEv
00000000000068f0 T __ZNK6icu_5714LocaleCacheKeyINS_18SharedNumberFormatEEeqERKNS_12CacheKeyBaseE
0000000000005ec0 T __ZNK6icu_5715MaybeStackArrayIcLi40EE8getAliasEv
                 U __ZNK6icu_5715NumberingSystem13isAlgorithmicEv
                 U __ZNK6icu_5715NumberingSystem7getNameEv
                 U __ZNK6icu_5716ICULocaleService19getAvailableLocalesEv
                 U __ZNK6icu_5716ICULocaleService3getERKNS_6LocaleEiR10UErrorCode
                 U __ZNK6icu_5716ICULocaleService9createKeyEPKNS_13UnicodeStringER10UErrorCode
                 U __ZNK6icu_5716ICULocaleService9createKeyEPKNS_13UnicodeStringEiR10UErrorCode
0000000000004c60 T __ZNK6icu_5716LocalPointerBaseI15UResourceBundleE8getAliasEv
0000000000001340 T __ZNK6icu_5716LocalPointerBaseINS_12NumberFormatEEptEv
0000000000004750 T __ZNK6icu_5716LocalPointerBaseINS_15NumberingSystemEE8getAliasEv
00000000000048d0 T __ZNK6icu_5716LocalPointerBaseINS_20DecimalFormatSymbolsEEptEv
                 U __ZNK6icu_5716LocaleKeyFactory10handlesKeyERKNS_13ICUServiceKeyER10UErrorCode
                 U __ZNK6icu_5716LocaleKeyFactory12handleCreateERKNS_6LocaleEiPKNS_10ICUServiceER10UErrorCode
                 U __ZNK6icu_5716LocaleKeyFactory14getDisplayNameERKNS_13UnicodeStringERKNS_6LocaleERS1_
                 U __ZNK6icu_5716LocaleKeyFactory16updateVisibleIDsERNS_9HashtableER10UErrorCode
                 U __ZNK6icu_5716LocaleKeyFactory17getDynamicClassIDEv
                 U __ZNK6icu_5716LocaleKeyFactory6createERKNS_13ICUServiceKeyEPKNS_10ICUServiceER10UErrorCode
0000000000002940 T __ZNK6icu_5718SharedNumberFormatptEv
00000000000048f0 T __ZNK6icu_5720DecimalFormatSymbols18getCurrencyPatternEv
0000000000004d00 T __ZNK6icu_5722ICUNumberFormatFactory12handleCreateERKNS_6LocaleEiPKNS_10ICUServiceER10UErrorCode
0000000000005160 T __ZNK6icu_5722ICUNumberFormatService13cloneInstanceEPNS_7UObjectE
0000000000005190 T __ZNK6icu_5722ICUNumberFormatService13handleDefaultERKNS_13ICUServiceKeyEPNS_13UnicodeStringER10UErrorCode
0000000000005130 T __ZNK6icu_5722ICUNumberFormatService9isDefaultEv
                 U __ZNK6icu_5724ICUResourceBundleFactory15getSupportedIDsER10UErrorCode
                 U __ZNK6icu_5724ICUResourceBundleFactory17getDynamicClassIDEv
00000000000001f0 T __ZNK6icu_5725SimpleNumberFormatFactory15getSupportedIDsERiR10UErrorCode
00000000000001d0 T __ZNK6icu_5725SimpleNumberFormatFactory7visibleEv
                 U __ZNK6icu_576Format11getLocaleIDE18ULocDataLocaleTypeR10UErrorCode
                 U __ZNK6icu_576FormateqERKS0_
                 U __ZNK6icu_576Locale15getKeywordValueEPKcPciR10UErrorCode
0000000000003090 T __ZNK6icu_576Locale7getNameEv
                 U __ZNK6icu_576Locale8hashCodeEv
                 U __ZNK6icu_576LocaleeqERKS0_
00000000000053a0 T __ZNK6icu_577Measure7getUnitEv
0000000000000c60 T __ZNK6icu_577Measure9getNumberEv
                 U __ZNK6icu_577UObject17getDynamicClassIDEv
0000000000006b00 T __ZNK6icu_578CacheKeyINS_18SharedNumberFormatEE16writeDescriptionEPci
0000000000006a40 T __ZNK6icu_578CacheKeyINS_18SharedNumberFormatEE8hashCodeEv
0000000000006a90 T __ZNK6icu_578CacheKeyINS_18SharedNumberFormatEEeqERKNS_12CacheKeyBaseE
                 U __ZNK6icu_579DigitList9getDoubleEv
0000000000004f90 T __ZNK6icu_579NFFactory15getSupportedIDsER10UErrorCode
0000000000004d40 T __ZNK6icu_579NFFactory6createERKNS_13ICUServiceKeyEPKNS_10ICUServiceER10UErrorCode
                 U __ZSt9terminatev
                 U __ZTIN6icu_5712CacheKeyBaseE
0000000000007a90 S __ZTIN6icu_5712NumberFormatE
                 U __ZTIN6icu_5712SharedObjectE
                 U __ZTIN6icu_5714CurrencyAmountE
0000000000007df0 D __ZTIN6icu_5714LocaleCacheKeyINS_18SharedNumberFormatEEE
                 U __ZTIN6icu_5716ICULocaleServiceE
                 U __ZTIN6icu_5716LocaleKeyFactoryE
00000000000079f0 S __ZTIN6icu_5718SharedNumberFormatE
0000000000007a50 S __ZTIN6icu_5719NumberFormatFactoryE
0000000000007b00 S __ZTIN6icu_5722ICUNumberFormatFactoryE
0000000000007c10 S __ZTIN6icu_5722ICUNumberFormatServiceE
                 U __ZTIN6icu_5724ICUResourceBundleFactoryE
0000000000007a70 S __ZTIN6icu_5725SimpleNumberFormatFactoryE
                 U __ZTIN6icu_576FormatE
                 U __ZTIN6icu_577UObjectE
0000000000007dd0 D __ZTIN6icu_578CacheKeyINS_18SharedNumberFormatEEE
0000000000007b20 S __ZTIN6icu_579NFFactoryE
00000000000075b0 S __ZTSN6icu_5712NumberFormatE
0000000000007700 S __ZTSN6icu_5714LocaleCacheKeyINS_18SharedNumberFormatEEE
0000000000007540 S __ZTSN6icu_5718SharedNumberFormatE
0000000000007560 S __ZTSN6icu_5719NumberFormatFactoryE
00000000000075d0 S __ZTSN6icu_5722ICUNumberFormatFactoryE
0000000000007620 S __ZTSN6icu_5722ICUNumberFormatServiceE
0000000000007580 S __ZTSN6icu_5725SimpleNumberFormatFactoryE
0000000000007740 S __ZTSN6icu_578CacheKeyINS_18SharedNumberFormatEEE
0000000000007600 S __ZTSN6icu_579NFFactoryE
                 U __ZTVN10__cxxabiv120__si_class_type_infoE
                 U __ZTVN6icu_5711ReplaceableE
                 U __ZTVN6icu_5712CacheKeyBaseE
00000000000077b0 S __ZTVN6icu_5712NumberFormatE
                 U __ZTVN6icu_5712SharedObjectE
                 U __ZTVN6icu_5713FieldPositionE
                 U __ZTVN6icu_5713ParsePositionE
                 U __ZTVN6icu_5713UnicodeStringE
0000000000007d80 D __ZTVN6icu_5714LocaleCacheKeyINS_18SharedNumberFormatEEE
00000000000078d8 S __ZTVN6icu_5718SharedNumberFormatE
0000000000007a08 S __ZTVN6icu_5719NumberFormatFactoryE
0000000000007aa8 S __ZTVN6icu_5722ICUNumberFormatFactoryE
0000000000007b38 S __ZTVN6icu_5722ICUNumberFormatServiceE
0000000000007770 S __ZTVN6icu_5725SimpleNumberFormatFactoryE
                 U __ZTVN6icu_577UObjectE
0000000000007e08 D __ZTVN6icu_578CacheKeyINS_18SharedNumberFormatEEE
0000000000007900 S __ZTVN6icu_579NFFactoryE
000000000000c570 b __ZZN6icu_5712NumberFormat16getStaticClassIDEvE7classID
00000000000054f0 T ___clang_call_terminate
                 U ___cxa_bad_typeid
                 U ___cxa_begin_catch
                 U ___cxa_pure_virtual
                 U ___dynamic_cast
                 U ___gxx_personality_v0
                 U ___stack_chk_fail
                 U ___stack_chk_guard
                 U _memset
                 U _strcmp
                 U _strlen
                 U _strncpy
                 U _u_strcmp_57
                 U _u_strcpy_57
                 U _u_strlen_57
                 U _u_strncpy_57
                 U _ucln_i18n_registerCleanup_57
                 U _ucurr_forLocale_57
                 U _uhash_close_57
                 U _uhash_compareLong_57
                 U _uhash_compareUnicodeString_57
                 U _uhash_hashLong_57
                 U _uhash_hashUnicodeString_57
                 U _uhash_iget_57
                 U _uhash_init_57
                 U _uhash_iput_57
                 U _uhash_open_57
                 U _uhash_put_57
                 U _uhash_setKeyDeleter_57
                 U _uhash_setValueDeleter_57
                 U _uloc_getDefault_57
                 U _umtx_lock_57
                 U _umtx_unlock_57
                 U _uprv_deleteUObject_57
                 U _uprv_free_57
                 U _uprv_max_57
                 U _uprv_min_57
                 U _ures_close_57
                 U _ures_getByKeyWithFallback_57
                 U _ures_getLocaleByType_57
                 U _ures_getStringByKeyWithFallback_57
                 U _ures_open_57
                 U _ustr_hashCharsN_57
0000000000007e58 s l_.str.2
0000000000007e74 s l_.str.4

libicui18n.a(unum.ao):
0000000000004a8c s GCC_except_table0
0000000000004c08 s GCC_except_table12
0000000000004c44 s GCC_except_table13
0000000000004c8c s GCC_except_table15
0000000000004cec s GCC_except_table16
0000000000004d18 s GCC_except_table17
0000000000004d54 s GCC_except_table18
0000000000004d80 s GCC_except_table19
0000000000004dac s GCC_except_table20
0000000000004dd8 s GCC_except_table23
0000000000004e20 s GCC_except_table39
0000000000004e68 s GCC_except_table43
0000000000004e94 s GCC_except_table44
0000000000004ec0 s GCC_except_table47
0000000000004f08 s GCC_except_table49
0000000000004f34 s GCC_except_table55
0000000000004bcc s GCC_except_table6
                 U __Unwind_Resume
0000000000001dd0 t __ZL8parseResRN6icu_5711FormattableEPKPvPKtiPiP10UErrorCode
0000000000000e30 t __ZL9U_FAILURE10UErrorCode
0000000000000e50 t __ZL9U_SUCCESS10UErrorCode
0000000000004730 T __ZN6icu_5711Formattable16fromUFormattableEPKPv
00000000000044b0 T __ZN6icu_5711Formattable16fromUFormattableEPPv
                 U __ZN6icu_5711Formattable16getDecimalNumberER10UErrorCode
                 U __ZN6icu_5711FormattableC1EPNS_7UObjectE
                 U __ZN6icu_5711FormattableC1ERKNS_11StringPieceER10UErrorCode
                 U __ZN6icu_5711FormattableC1Ev
                 U __ZN6icu_5711FormattableD1Ev
0000000000004790 T __ZN6icu_5711ReplaceableC2Ev
00000000000018d0 T __ZN6icu_5711StringPieceC1EPKci
0000000000004860 T __ZN6icu_5711StringPieceC2EPKci
0000000000002970 T __ZN6icu_5712LocalPointerINS_14CurrencyAmountEEC1EPS1_
00000000000049e0 T __ZN6icu_5712LocalPointerINS_14CurrencyAmountEEC2EPS1_
0000000000002a50 T __ZN6icu_5712LocalPointerINS_14CurrencyAmountEED1Ev
0000000000004a30 T __ZN6icu_5712LocalPointerINS_14CurrencyAmountEED2Ev
                 U __ZN6icu_5712NumberFormat14createInstanceERKNS_6LocaleE18UNumberFormatStyleR10UErrorCode
                 U __ZN6icu_5713DecimalFormatC1ERKNS_13UnicodeStringEPNS_20DecimalFormatSymbolsER11UParseErrorR10UErrorCode
00000000000012c0 T __ZN6icu_5713FieldPosition8setFieldEi
00000000000012a0 T __ZN6icu_5713FieldPositionC1Ev
00000000000047f0 T __ZN6icu_5713FieldPositionC2Ev
                 U __ZN6icu_5713FieldPositionD1Ev
0000000000002950 T __ZN6icu_5713ParsePosition8setIndexEi
0000000000002930 T __ZN6icu_5713ParsePositionC1Ev
0000000000004890 T __ZN6icu_5713ParsePositionC2Ev
                 U __ZN6icu_5713ParsePositionD1Ev
                 U __ZN6icu_5713UnicodeString19getTerminatedBufferEv
                 U __ZN6icu_5713UnicodeString5setToEPtii
                 U __ZN6icu_5713UnicodeString8doAppendEPKtii
                 U __ZN6icu_5713UnicodeString8doAppendERKS0_ii
                 U __ZN6icu_5713UnicodeString8moveFromERS0_
                 U __ZN6icu_5713UnicodeStringC1EPKt
                 U __ZN6icu_5713UnicodeStringC1EPKti
                 U __ZN6icu_5713UnicodeStringC1EPtii
                 U __ZN6icu_5713UnicodeStringC1EaPKti
                 U __ZN6icu_5713UnicodeStringC1Ei
0000000000001280 T __ZN6icu_5713UnicodeStringC1Ev
0000000000004750 T __ZN6icu_5713UnicodeStringC2Ev
                 U __ZN6icu_5713UnicodeStringD1Ev
0000000000003370 T __ZN6icu_5713UnicodeStringaSEOS0_
                 U __ZN6icu_5713UnicodeStringaSERKS0_
00000000000033a0 T __ZN6icu_5713UnicodeStringpLERKS0_
00000000000033f0 T __ZN6icu_5713UnicodeStringpLEt
                 U __ZN6icu_5714CurrencyAmountC1EdPKtR10UErrorCode
0000000000004a10 T __ZN6icu_5716LocalPointerBaseINS_14CurrencyAmountEEC2EPS1_
0000000000004a80 T __ZN6icu_5716LocalPointerBaseINS_14CurrencyAmountEED2Ev
                 U __ZN6icu_5720CompactDecimalFormat14createInstanceERKNS_6LocaleE19UNumberCompactStyleR10UErrorCode
0000000000003e70 T __ZN6icu_5720DecimalFormatSymbols9setSymbolENS0_19ENumberFormatSymbolERKNS_13UnicodeStringEa
                 U __ZN6icu_5720DecimalFormatSymbolsC1ERKNS_6LocaleER10UErrorCode
                 U __ZN6icu_5720DecimalFormatSymbolsC1ERKS0_
                 U __ZN6icu_5720DecimalFormatSymbolsD1Ev
                 U __ZN6icu_5721RuleBasedNumberFormatC1ENS_15URBNFRuleSetTagERKNS_6LocaleER10UErrorCode
                 U __ZN6icu_5721RuleBasedNumberFormatC1ERKNS_13UnicodeStringERKNS_6LocaleER11UParseErrorR10UErrorCode
                 U __ZN6icu_576LocaleC1EPKcS2_S2_S2_
                 U __ZN6icu_576LocaleD1Ev
                 U __ZN6icu_577UMemorydlEPv
                 U __ZN6icu_577UMemorynwEm
00000000000047d0 T __ZN6icu_577UObjectC2Ev
                 U __ZNK6icu_5711Formattable7getLongER10UErrorCode
                 U __ZNK6icu_5711Formattable8getInt64ER10UErrorCode
                 U __ZNK6icu_5711Formattable9getDoubleER10UErrorCode
0000000000002580 T __ZNK6icu_5711StringPiece4dataEv
0000000000002560 T __ZNK6icu_5711StringPiece4sizeEv
0000000000004910 T __ZNK6icu_5712CurrencyUnit14getISOCurrencyEv
                 U __ZNK6icu_5712NumberFormat11getCurrencyEv
                 U __ZNK6icu_5713DecimalFormat17getNegativePrefixERNS_13UnicodeStringE
                 U __ZNK6icu_5713DecimalFormat17getNegativeSuffixERNS_13UnicodeStringE
                 U __ZNK6icu_5713DecimalFormat17getPositivePrefixERNS_13UnicodeStringE
                 U __ZNK6icu_5713DecimalFormat17getPositiveSuffixERNS_13UnicodeStringE
0000000000001300 T __ZNK6icu_5713FieldPosition11getEndIndexEv
00000000000012e0 T __ZNK6icu_5713FieldPosition13getBeginIndexEv
00000000000029a0 T __ZNK6icu_5713ParsePosition13getErrorIndexEv
00000000000029c0 T __ZNK6icu_5713ParsePosition8getIndexEv
                 U __ZNK6icu_5713UnicodeString11countChar32Eii
00000000000049c0 T __ZNK6icu_5713UnicodeString14getShortLengthEv
00000000000049a0 T __ZNK6icu_5713UnicodeString14hasShortLengthEv
0000000000004950 T __ZNK6icu_5713UnicodeString6lengthEv
                 U __ZNK6icu_5713UnicodeString7extractEPtiR10UErrorCode
                 U __ZNK6icu_5713UnicodeString8char32AtEi
00000000000048f0 T __ZNK6icu_5714CurrencyAmount11getCurrencyEv
0000000000002a00 T __ZNK6icu_5714CurrencyAmount14getISOCurrencyEv
00000000000029e0 T __ZNK6icu_5716LocalPointerBaseINS_14CurrencyAmountEEptEv
0000000000003ba0 T __ZNK6icu_5720DecimalFormatSymbols14getConstSymbolENS0_19ENumberFormatSymbolE
                 U __ZNK6icu_576Format11getLocaleIDE18ULocDataLocaleTypeR10UErrorCode
0000000000004930 T __ZNK6icu_577Measure7getUnitEv
0000000000002a30 T __ZNK6icu_577Measure9getNumberEv
                 U __ZTIN6icu_5712NumberFormatE
                 U __ZTIN6icu_5713DecimalFormatE
                 U __ZTIN6icu_5721RuleBasedNumberFormatE
                 U __ZTVN6icu_5711ReplaceableE
                 U __ZTVN6icu_5713FieldPositionE
                 U __ZTVN6icu_5713ParsePositionE
                 U __ZTVN6icu_5713UnicodeStringE
                 U __ZTVN6icu_577UObjectE
                 U ___dynamic_cast
                 U ___gxx_personality_v0
                 U ___stack_chk_fail
                 U ___stack_chk_guard
                 U _memset
                 U _strcpy
                 U _strlen
                 U _strncpy
                 U _u_charDigitValue_57
                 U _u_strcpy_57
                 U _u_strlen_57
                 U _ufmt_close_57
                 U _ufmt_open_57
                 U _uloc_countAvailable_57
                 U _uloc_getAvailable_57
0000000000003ff0 T _unum_applyPattern_57
0000000000000eb0 T _unum_clone_57
0000000000000e70 T _unum_close_57
0000000000002a90 T _unum_countAvailable_57
0000000000001570 T _unum_formatDecimal_57
0000000000001900 T _unum_formatDoubleCurrency_57
0000000000001320 T _unum_formatDouble_57
0000000000001050 T _unum_formatInt64_57
00000000000044d0 T _unum_formatUFormattable_57
0000000000001010 T _unum_format_57
0000000000002aa0 T _unum_getAttribute_57
0000000000002a70 T _unum_getAvailable_57
0000000000004350 T _unum_getContext_57
0000000000002c70 T _unum_getDoubleAttribute_57
0000000000004290 T _unum_getLocaleByType_57
0000000000003a60 T _unum_getSymbol_57
0000000000002de0 T _unum_getTextAttribute_57
0000000000000000 T _unum_open_57
0000000000002220 T _unum_parseDecimal_57
00000000000025a0 T _unum_parseDoubleCurrency_57
0000000000002110 T _unum_parseDouble_57
0000000000002000 T _unum_parseInt64_57
00000000000043b0 T _unum_parseToUFormattable_57
0000000000001cd0 T _unum_parse_57
0000000000002b80 T _unum_setAttribute_57
0000000000004300 T _unum_setContext_57
0000000000002d30 T _unum_setDoubleAttribute_57
0000000000003bf0 T _unum_setSymbol_57
0000000000003420 T _unum_setTextAttribute_57
0000000000003760 T _unum_toPattern_57

libicui18n.a(decimfmt.ao):
000000000000cbdc s GCC_except_table10
000000000000cc18 s GCC_except_table12
000000000000d1e0 s GCC_except_table120
000000000000d20c s GCC_except_table121
000000000000d238 s GCC_except_table137
000000000000cc54 s GCC_except_table14
000000000000cca8 s GCC_except_table16
000000000000ca80 s GCC_except_table2
000000000000d258 s GCC_except_table248
000000000000d2ac s GCC_except_table251
000000000000d2c4 s GCC_except_table252
000000000000d2f0 s GCC_except_table255
000000000000d31c s GCC_except_table269
000000000000d348 s GCC_except_table274
000000000000d360 s GCC_except_table298
000000000000cce4 s GCC_except_table33
000000000000ce30 s GCC_except_table35
000000000000ce50 s GCC_except_table36
000000000000ce8c s GCC_except_table38
000000000000ceac s GCC_except_table42
000000000000cecc s GCC_except_table44
000000000000cef4 s GCC_except_table49
000000000000cabc s GCC_except_table5
000000000000cf30 s GCC_except_table50
000000000000cf5c s GCC_except_table53
000000000000cfa4 s GCC_except_table56
000000000000cfc4 s GCC_except_table57
000000000000cff0 s GCC_except_table62
000000000000d01c s GCC_except_table63
000000000000d048 s GCC_except_table66
000000000000cba0 s GCC_except_table8
000000000000d074 s GCC_except_table85
000000000000d0a0 s GCC_except_table86
000000000000d0f4 s GCC_except_table96
000000000000d1a4 s GCC_except_table97
                 U __Unwind_Resume
0000000000001650 t __ZL9U_FAILURE10UErrorCode
00000000000016e0 t __ZL9U_SUCCESS10UErrorCode
00000000000080d0 T __ZN6icu_5710CharString4dataEv
0000000000007bc0 T __ZN6icu_5710CharString5clearEv
                 U __ZN6icu_5710CharString6appendEPKciR10UErrorCode
0000000000007de0 T __ZN6icu_5710CharString6appendERKNS_11StringPieceER10UErrorCode
                 U __ZN6icu_5710CharString6appendEcR10UErrorCode
0000000000007b40 T __ZN6icu_5710CharStringC1Ev
000000000000c270 T __ZN6icu_5710CharStringC2Ev
0000000000008130 T __ZN6icu_5710CharStringD1Ev
000000000000c5d0 T __ZN6icu_5710CharStringD2Ev
                 U __ZN6icu_5711Formattable14adoptDigitListEPNS_9DigitListE
                 U __ZN6icu_5711Formattable20getInternalDigitListEv
                 U __ZN6icu_5711Formattable7setLongEi
                 U __ZN6icu_5711Formattable9setDoubleEd
                 U __ZN6icu_5711FormattableC1Ev
                 U __ZN6icu_5711FormattableD1Ev
000000000000b840 T __ZN6icu_5711ReplaceableC2Ev
                 U __ZN6icu_5711StringPieceC1EPKc
000000000000c570 T __ZN6icu_5711StringPieceC1EPKci
000000000000c5a0 T __ZN6icu_5711StringPieceC2EPKci
000000000000b9a0 T __ZN6icu_5712AffixPatternD1Ev
000000000000b9c0 T __ZN6icu_5712AffixPatternD2Ev
                 U __ZN6icu_5712FixedDecimalC1ERKNS_13VisibleDigitsE
                 U __ZN6icu_5712FixedDecimalC1Ev
0000000000004ba0 T __ZN6icu_5712LocalPointerINS_14CurrencyAmountEEC1EPS1_R10UErrorCode
000000000000c940 T __ZN6icu_5712LocalPointerINS_14CurrencyAmountEEC2EPS1_R10UErrorCode
0000000000004c10 T __ZN6icu_5712LocalPointerINS_14CurrencyAmountEED1Ev
000000000000ca10 T __ZN6icu_5712LocalPointerINS_14CurrencyAmountEED2Ev
0000000000001720 T __ZN6icu_5712LocalPointerINS_15NumberingSystemEEC1EPS1_
000000000000c890 T __ZN6icu_5712LocalPointerINS_15NumberingSystemEEC2EPS1_
0000000000001790 T __ZN6icu_5712LocalPointerINS_15NumberingSystemEED1Ev
000000000000c8e0 T __ZN6icu_5712LocalPointerINS_15NumberingSystemEED2Ev
0000000000001690 T __ZN6icu_5712LocalPointerINS_20DecimalFormatSymbolsEE12adoptInsteadEPS1_
0000000000001620 T __ZN6icu_5712LocalPointerINS_20DecimalFormatSymbolsEEC1EPS1_
000000000000c7e0 T __ZN6icu_5712LocalPointerINS_20DecimalFormatSymbolsEEC2EPS1_
00000000000023d0 T __ZN6icu_5712LocalPointerINS_20DecimalFormatSymbolsEED1Ev
000000000000c830 T __ZN6icu_5712LocalPointerINS_20DecimalFormatSymbolsEED2Ev
                 U __ZN6icu_5712NumberFormat10setContextE15UDisplayContextR10UErrorCode
                 U __ZN6icu_5712NumberFormat10setLenientEa
                 U __ZN6icu_5712NumberFormat11setCurrencyEPKtR10UErrorCode
                 U __ZN6icu_5712NumberFormat15setGroupingUsedEa
                 U __ZN6icu_5712NumberFormat19setParseIntegerOnlyEa
                 U __ZN6icu_5712NumberFormat23setMaximumIntegerDigitsEi
                 U __ZN6icu_5712NumberFormat23setMinimumIntegerDigitsEi
                 U __ZN6icu_5712NumberFormat24gDefaultMaxIntegerDigitsE
                 U __ZN6icu_5712NumberFormat24setMaximumFractionDigitsEi
                 U __ZN6icu_5712NumberFormat24setMinimumFractionDigitsEi
                 U __ZN6icu_5712NumberFormatC2ERKS0_
                 U __ZN6icu_5712NumberFormatC2Ev
                 U __ZN6icu_5712NumberFormatD2Ev
                 U __ZN6icu_5712NumberFormataSERKS0_
                 U __ZN6icu_5712PatternProps12isWhiteSpaceEi
                 U __ZN6icu_5712PatternProps14skipWhiteSpaceEPKti
000000000000ad50 T __ZN6icu_5713DecimalFormat10setContextE15UDisplayContextR10UErrorCode
0000000000009620 T __ZN6icu_5713DecimalFormat11matchSymbolERKNS_13UnicodeStringEiiS3_PNS_10UnicodeSetEi
000000000000aa40 T __ZN6icu_5713DecimalFormat11setCurrencyEPKt
000000000000a960 T __ZN6icu_5713DecimalFormat11setCurrencyEPKtR10UErrorCode
000000000000a4d0 T __ZN6icu_5713DecimalFormat12applyPatternERKNS_13UnicodeStringER10UErrorCode
000000000000a510 T __ZN6icu_5713DecimalFormat12applyPatternERKNS_13UnicodeStringER11UParseErrorR10UErrorCode
0000000000007f00 T __ZN6icu_5713DecimalFormat12matchDecimalEiaiPKNS_10UnicodeSetEi
000000000000ad90 T __ZN6icu_5713DecimalFormat12setAttributeE22UNumberFormatAttributeiR10UErrorCode
0000000000007e30 T __ZN6icu_5713DecimalFormat13matchGroupingEiaiPKNS_10UnicodeSetEiS3_i
0000000000009ac0 T __ZN6icu_5713DecimalFormat13setMultiplierEi
00000000000092a0 T __ZN6icu_5713DecimalFormat13skipBidiMarksERKNS_13UnicodeStringEi
0000000000009c60 T __ZN6icu_5713DecimalFormat14setFormatWidthEi
0000000000009eb0 T __ZN6icu_5713DecimalFormat14setPadPositionENS0_12EPadPositionE
000000000000a1f0 T __ZN6icu_5713DecimalFormat15setGroupingSizeEi
000000000000ace0 T __ZN6icu_5713DecimalFormat15setGroupingUsedEa
0000000000009d40 T __ZN6icu_5713DecimalFormat15setPadCharacterERKNS_13UnicodeStringE
0000000000009ba0 T __ZN6icu_5713DecimalFormat15setRoundingModeENS0_13ERoundingModeE
0000000000004ce0 T __ZN6icu_5713DecimalFormat15skipUWhiteSpaceERKNS_13UnicodeStringEi
000000000000d38c S __ZN6icu_5713DecimalFormat16fgNumberPatternsE
0000000000000000 T __ZN6icu_5713DecimalFormat16getStaticClassIDEv
000000000000a9c0 T __ZN6icu_5713DecimalFormat16setCurrencyUsageE14UCurrencyUsageP10UErrorCode
000000000000b2f0 T __ZN6icu_5713DecimalFormat16setParseAllInputE27UNumberFormatAttributeValue
00000000000099a0 T __ZN6icu_5713DecimalFormat17setNegativePrefixERKNS_13UnicodeStringE
0000000000009a60 T __ZN6icu_5713DecimalFormat17setNegativeSuffixERKNS_13UnicodeStringE
0000000000009940 T __ZN6icu_5713DecimalFormat17setPositivePrefixERKNS_13UnicodeStringE
0000000000009a00 T __ZN6icu_5713DecimalFormat17setPositiveSuffixERKNS_13UnicodeStringE
00000000000090b0 T __ZN6icu_5713DecimalFormat18trimMarksFromAffixERKNS_13UnicodeStringERS1_
000000000000ad20 T __ZN6icu_5713DecimalFormat19setParseIntegerOnlyEa
000000000000d380 S __ZN6icu_5713DecimalFormat20kDoubleIntegerDigitsE
0000000000009b20 T __ZN6icu_5713DecimalFormat20setRoundingIncrementEd
000000000000a550 T __ZN6icu_5713DecimalFormat21applyLocalizedPatternERKNS_13UnicodeStringER10UErrorCode
000000000000a590 T __ZN6icu_5713DecimalFormat21applyLocalizedPatternERKNS_13UnicodeStringER11UParseErrorR10UErrorCode
000000000000d384 S __ZN6icu_5713DecimalFormat21kDoubleFractionDigitsE
00000000000098c0 T __ZN6icu_5713DecimalFormat21setCurrencyPluralInfoERKNS_18CurrencyPluralInfoE
0000000000009ff0 T __ZN6icu_5713DecimalFormat21setScientificNotationEa
0000000000009330 T __ZN6icu_5713DecimalFormat21skipPatternWhiteSpaceERKNS_13UnicodeStringEi
0000000000009810 T __ZN6icu_5713DecimalFormat23adoptCurrencyPluralInfoEPNS_18CurrencyPluralInfoE
0000000000002f20 T __ZN6icu_5713DecimalFormat23copyHashForAffixPatternEPKNS_9HashtableEPS1_R10UErrorCode
00000000000023f0 T __ZN6icu_5713DecimalFormat23initHashForAffixPatternER10UErrorCode
0000000000009730 T __ZN6icu_5713DecimalFormat23setDecimalFormatSymbolsERKNS_20DecimalFormatSymbolsE
000000000000a5d0 T __ZN6icu_5713DecimalFormat23setMaximumIntegerDigitsEi
000000000000a660 T __ZN6icu_5713DecimalFormat23setMinimumIntegerDigitsEi
0000000000009390 T __ZN6icu_5713DecimalFormat23skipUWhiteSpaceAndMarksERKNS_13UnicodeStringEi
000000000000a6b0 T __ZN6icu_5713DecimalFormat24setMaximumFractionDigitsEi
000000000000a070 T __ZN6icu_5713DecimalFormat24setMinimumExponentDigitsEa
000000000000a700 T __ZN6icu_5713DecimalFormat24setMinimumFractionDigitsEi
000000000000a2f0 T __ZN6icu_5713DecimalFormat24setMinimumGroupingDigitsEi
000000000000a270 T __ZN6icu_5713DecimalFormat24setSecondaryGroupingSizeEi
000000000000a930 T __ZN6icu_5713DecimalFormat24setSignificantDigitsUsedEa
00000000000096e0 T __ZN6icu_5713DecimalFormat25adoptDecimalFormatSymbolsEPNS_20DecimalFormatSymbolsE
0000000000002ab0 T __ZN6icu_5713DecimalFormat25deleteHashForAffixPatternEv
000000000000a150 T __ZN6icu_5713DecimalFormat26setExponentSignAlwaysShownEa
0000000000001870 T __ZN6icu_5713DecimalFormat26setupCurrencyAffixPatternsER10UErrorCode
000000000000d388 S __ZN6icu_5713DecimalFormat27kMaxScientificIntegerDigitsE
000000000000a880 T __ZN6icu_5713DecimalFormat27setMaximumSignificantDigitsEi
000000000000a7f0 T __ZN6icu_5713DecimalFormat27setMinimumSignificantDigitsEi
000000000000a3c0 T __ZN6icu_5713DecimalFormat30setDecimalPatternMatchRequiredEa
000000000000a370 T __ZN6icu_5713DecimalFormat30setDecimalSeparatorAlwaysShownEa
0000000000000110 T __ZN6icu_5713DecimalFormat4initEv
00000000000094a0 T __ZN6icu_5713DecimalFormat5matchERKNS_13UnicodeStringEiS3_
0000000000009560 T __ZN6icu_5713DecimalFormat5matchERKNS_13UnicodeStringEii
0000000000000180 T __ZN6icu_5713DecimalFormat9constructER10UErrorCodeR11UParseErrorPKNS_13UnicodeStringEPNS_20DecimalFormatSymbolsE
0000000000000fa0 T __ZN6icu_5713DecimalFormatC1ER10UErrorCode
00000000000015c0 T __ZN6icu_5713DecimalFormatC1ERKNS_13UnicodeStringEPNS_20DecimalFormatSymbolsE18UNumberFormatStyleR10UErrorCode
00000000000011a0 T __ZN6icu_5713DecimalFormatC1ERKNS_13UnicodeStringEPNS_20DecimalFormatSymbolsER10UErrorCode
00000000000012c0 T __ZN6icu_5713DecimalFormatC1ERKNS_13UnicodeStringEPNS_20DecimalFormatSymbolsER11UParseErrorR10UErrorCode
0000000000001090 T __ZN6icu_5713DecimalFormatC1ERKNS_13UnicodeStringER10UErrorCode
0000000000001490 T __ZN6icu_5713DecimalFormatC1ERKNS_13UnicodeStringERKNS_20DecimalFormatSymbolsER10UErrorCode
0000000000002e80 T __ZN6icu_5713DecimalFormatC1ERKS0_
0000000000000030 T __ZN6icu_5713DecimalFormatC2ER10UErrorCode
00000000000014d0 T __ZN6icu_5713DecimalFormatC2ERKNS_13UnicodeStringEPNS_20DecimalFormatSymbolsE18UNumberFormatStyleR10UErrorCode
00000000000010c0 T __ZN6icu_5713DecimalFormatC2ERKNS_13UnicodeStringEPNS_20DecimalFormatSymbolsER10UErrorCode
00000000000011e0 T __ZN6icu_5713DecimalFormatC2ERKNS_13UnicodeStringEPNS_20DecimalFormatSymbolsER11UParseErrorR10UErrorCode
0000000000000fd0 T __ZN6icu_5713DecimalFormatC2ERKNS_13UnicodeStringER10UErrorCode
0000000000001300 T __ZN6icu_5713DecimalFormatC2ERKNS_13UnicodeStringERKNS_20DecimalFormatSymbolsER10UErrorCode
0000000000002bf0 T __ZN6icu_5713DecimalFormatC2ERKS0_
0000000000002bc0 T __ZN6icu_5713DecimalFormatD0Ev
0000000000002ba0 T __ZN6icu_5713DecimalFormatD1Ev
00000000000029e0 T __ZN6icu_5713DecimalFormatD2Ev
0000000000002cb0 T __ZN6icu_5713DecimalFormataSERKS0_
000000000000bec0 T __ZN6icu_5713DigitIntervalC1Ev
000000000000bee0 T __ZN6icu_5713DigitIntervalC2Ev
0000000000007b20 T __ZN6icu_5713ParsePosition13setErrorIndexEi
0000000000004bd0 T __ZN6icu_5713ParsePosition8setIndexEi
0000000000007ad0 T __ZN6icu_5713ParsePositionC1Ei
000000000000c200 T __ZN6icu_5713ParsePositionC2Ei
                 U __ZN6icu_5713ParsePositionD1Ev
0000000000009220 T __ZN6icu_5713UnicodeString5setToEPKti
0000000000009270 T __ZN6icu_5713UnicodeString5setToERKS0_
                 U __ZN6icu_5713UnicodeString5setToEaPKti
                 U __ZN6icu_5713UnicodeString7unBogusEv
                 U __ZN6icu_5713UnicodeString8copyFromERKS0_a
                 U __ZN6icu_5713UnicodeString9doReplaceEiiPKtii
                 U __ZN6icu_5713UnicodeStringC1EPKti
                 U __ZN6icu_5713UnicodeStringC1ERKS0_
                 U __ZN6icu_5713UnicodeStringC1EaPKti
                 U __ZN6icu_5713UnicodeStringC1Ei
0000000000001700 T __ZN6icu_5713UnicodeStringC1Ev
000000000000b800 T __ZN6icu_5713UnicodeStringC2Ev
                 U __ZN6icu_5713UnicodeStringD1Ev
                 U __ZN6icu_5713UnicodeStringaSERKS0_
000000000000bdf0 T __ZN6icu_5713VisibleDigitsC1Ev
000000000000be30 T __ZN6icu_5713VisibleDigitsC2Ev
000000000000be10 T __ZN6icu_5713VisibleDigitsD1Ev
000000000000bf00 T __ZN6icu_5713VisibleDigitsD2Ev
                 U __ZN6icu_5714CurrencyAmountC1ERKNS_11FormattableEPKtR10UErrorCode
000000000000c390 T __ZN6icu_5715MaybeStackArrayIcLi40EE12releaseArrayEv
000000000000c2d0 T __ZN6icu_5715MaybeStackArrayIcLi40EEC1Ev
000000000000c330 T __ZN6icu_5715MaybeStackArrayIcLi40EEC2Ev
000000000000c310 T __ZN6icu_5715MaybeStackArrayIcLi40EED1Ev
000000000000c360 T __ZN6icu_5715MaybeStackArrayIcLi40EED2Ev
000000000000c2f0 T __ZN6icu_5715MaybeStackArrayIcLi40EEixEl
                 U __ZN6icu_5715NumberingSystem14createInstanceER10UErrorCode
                 U __ZN6icu_5715NumberingSystem14createInstanceERKNS_6LocaleER10UErrorCode
0000000000004bf0 T __ZN6icu_5716LocalPointerBaseINS_14CurrencyAmountEE6orphanEv
000000000000c9e0 T __ZN6icu_5716LocalPointerBaseINS_14CurrencyAmountEEC2EPS1_
000000000000ca00 T __ZN6icu_5716LocalPointerBaseINS_14CurrencyAmountEED2Ev
000000000000c8c0 T __ZN6icu_5716LocalPointerBaseINS_15NumberingSystemEEC2EPS1_
000000000000c930 T __ZN6icu_5716LocalPointerBaseINS_15NumberingSystemEED2Ev
00000000000017d0 T __ZN6icu_5716LocalPointerBaseINS_20DecimalFormatSymbolsEE6orphanEv
000000000000c810 T __ZN6icu_5716LocalPointerBaseINS_20DecimalFormatSymbolsEEC2EPS1_
000000000000c880 T __ZN6icu_5716LocalPointerBaseINS_20DecimalFormatSymbolsEED2Ev
                 U __ZN6icu_5717DecimalFormatImpl12applyPatternERKNS_13UnicodeStringER10UErrorCode
                 U __ZN6icu_5717DecimalFormatImpl12applyPatternERKNS_13UnicodeStringER11UParseErrorR10UErrorCode
                 U __ZN6icu_5717DecimalFormatImpl13setMultiplierEi
0000000000009cc0 T __ZN6icu_5717DecimalFormatImpl14setFormatWidthEi
0000000000009ef0 T __ZN6icu_5717DecimalFormatImpl14setPadPositionENS_22DigitAffixesAndPadding12EPadPositionE
                 U __ZN6icu_5717DecimalFormatImpl14updateCurrencyER10UErrorCode
                 U __ZN6icu_5717DecimalFormatImpl14updateGroupingEv
                 U __ZN6icu_5717DecimalFormatImpl15setGroupingSizeEi
0000000000009db0 T __ZN6icu_5717DecimalFormatImpl15setPadCharacterEi
0000000000009bd0 T __ZN6icu_5717DecimalFormatImpl15setRoundingModeENS_13DecimalFormat13ERoundingModeE
                 U __ZN6icu_5717DecimalFormatImpl15updatePrecisionEv
                 U __ZN6icu_5717DecimalFormatImpl16setCurrencyUsageE14UCurrencyUsageR10UErrorCode
                 U __ZN6icu_5717DecimalFormatImpl17setNegativePrefixERKNS_13UnicodeStringE
                 U __ZN6icu_5717DecimalFormatImpl17setNegativeSuffixERKNS_13UnicodeStringE
                 U __ZN6icu_5717DecimalFormatImpl17setPositivePrefixERKNS_13UnicodeStringE
                 U __ZN6icu_5717DecimalFormatImpl17setPositiveSuffixERKNS_13UnicodeStringE
                 U __ZN6icu_5717DecimalFormatImpl20setRoundingIncrementEd
                 U __ZN6icu_5717DecimalFormatImpl21applyLocalizedPatternERKNS_13UnicodeStringER10UErrorCode
                 U __ZN6icu_5717DecimalFormatImpl21applyLocalizedPatternERKNS_13UnicodeStringER11UParseErrorR10UErrorCode
                 U __ZN6icu_5717DecimalFormatImpl21setScientificNotationEa
000000000000a0e0 T __ZN6icu_5717DecimalFormatImpl24setMinimumExponentDigitsEi
                 U __ZN6icu_5717DecimalFormatImpl24setMinimumGroupingDigitsEi
                 U __ZN6icu_5717DecimalFormatImpl24setSecondaryGroupingSizeEi
                 U __ZN6icu_5717DecimalFormatImpl24setSignificantDigitsUsedEa
                 U __ZN6icu_5717DecimalFormatImpl25adoptDecimalFormatSymbolsEPNS_20DecimalFormatSymbolsE
000000000000a180 T __ZN6icu_5717DecimalFormatImpl26setExponentSignAlwaysShownEa
000000000000b340 T __ZN6icu_5717DecimalFormatImpl26setFailIfMoreThanMaxDigitsEa
                 U __ZN6icu_5717DecimalFormatImpl26setMinMaxSignificantDigitsEii
000000000000a3a0 T __ZN6icu_5717DecimalFormatImpl30setDecimalSeparatorAlwaysShownEa
                 U __ZN6icu_5717DecimalFormatImpl34applyPatternFavorCurrencyPrecisionERKNS_13UnicodeStringER10UErrorCode
                 U __ZN6icu_5717DecimalFormatImpl6assignERKS0_R10UErrorCode
000000000000b360 T __ZN6icu_5717DecimalFormatImpl8setScaleEi
                 U __ZN6icu_5717DecimalFormatImplC1EPNS_12NumberFormatERKNS_13UnicodeStringEPNS_20DecimalFormatSymbolsER11UParseErrorR10UErrorCode
                 U __ZN6icu_5717DecimalFormatImplC1EPNS_12NumberFormatERKS0_R10UErrorCode
                 U __ZN6icu_5718CurrencyPluralInfoC1ERKNS_6LocaleER10UErrorCode
                 U __ZN6icu_5720DecimalFormatPatternC1Ev
000000000000b8a0 T __ZN6icu_5720DecimalFormatPatternD1Ev
000000000000b8e0 T __ZN6icu_5720DecimalFormatPatternD2Ev
                 U __ZN6icu_5720DecimalFormatSymbolsC1ERKNS_6LocaleER10UErrorCode
                 U __ZN6icu_5720DecimalFormatSymbolsC1ERKS0_
                 U __ZN6icu_5723DecimalFormatStaticSets13getStaticSetsER10UErrorCode
                 U __ZN6icu_5723DecimalFormatStaticSets18getSimilarDecimalsEia
0000000000002750 T __ZN6icu_5724AffixPatternsForCurrencyC1ERKNS_13UnicodeStringES3_S3_S3_a
000000000000bad0 T __ZN6icu_5724AffixPatternsForCurrencyC2ERKNS_13UnicodeStringES3_S3_S3_a
000000000000acc0 T __ZN6icu_5724AffixPatternsForCurrencyD1Ev
000000000000c750 T __ZN6icu_5724AffixPatternsForCurrencyD2Ev
00000000000034b0 T __ZN6icu_5725VisibleDigitsWithExponentC1Ev
000000000000bd80 T __ZN6icu_5725VisibleDigitsWithExponentC2Ev
0000000000003530 T __ZN6icu_5725VisibleDigitsWithExponentD1Ev
000000000000bf20 T __ZN6icu_5725VisibleDigitsWithExponentD2Ev
                 U __ZN6icu_5726DecimalFormatPatternParser30applyPatternWithoutExpandAffixERKNS_13UnicodeStringERNS_20DecimalFormatPatternER11UParseErrorR10UErrorCode
                 U __ZN6icu_5726DecimalFormatPatternParserC1Ev
000000000000b8c0 T __ZN6icu_5726DecimalFormatPatternParserD1Ev
000000000000ba00 T __ZN6icu_5726DecimalFormatPatternParserD2Ev
000000000000a850 T __ZN6icu_574_maxEii
000000000000a630 T __ZN6icu_574_minEii
                 U __ZN6icu_576Locale10getDefaultEv
                 U __ZN6icu_576LocaleC1ERKS0_
                 U __ZN6icu_576LocaleD1Ev
000000000000a400 T __ZN6icu_577EnumSetI22UNumberFormatAttributeLj4096ELj4099EE3setES1_i
0000000000001600 T __ZN6icu_577EnumSetI22UNumberFormatAttributeLj4096ELj4099EE5clearEv
00000000000000f0 T __ZN6icu_577EnumSetI22UNumberFormatAttributeLj4096ELj4099EEC1Ev
000000000000c7b0 T __ZN6icu_577EnumSetI22UNumberFormatAttributeLj4096ELj4099EEC2Ev
0000000000000f80 T __ZN6icu_577EnumSetI22UNumberFormatAttributeLj4096ELj4099EED1Ev
000000000000c7d0 T __ZN6icu_577EnumSetI22UNumberFormatAttributeLj4096ELj4099EED2Ev
                 U __ZN6icu_577UMemorydlEPv
                 U __ZN6icu_577UMemorynwEm
000000000000b880 T __ZN6icu_577UObjectC2Ev
                 U __ZN6icu_579DigitList11setPositiveEa
                 U __ZN6icu_579DigitList3divERKS0_R10UErrorCode
                 U __ZN6icu_579DigitList3setERKNS_11StringPieceER10UErrorCodej
                 U __ZN6icu_579DigitList3setEi
                 U __ZN6icu_579DigitList4multERKS0_R10UErrorCode
0000000000007b60 T __ZN6icu_579DigitList9setToZeroEv
                 U __ZN6icu_579DigitListC1ERKS0_
                 U __ZN6icu_579DigitListC1Ev
                 U __ZN6icu_579DigitListD1Ev
                 U __ZN6icu_579DigitListaSERKS0_
000000000000ab80 T __ZN6icu_579Hashtable18setValueComparatorEPFa8UElementS1_E
00000000000027a0 T __ZN6icu_579Hashtable3putERKNS_13UnicodeStringEPvR10UErrorCode
000000000000bc90 T __ZN6icu_579Hashtable4initEPFi8UElementEPFaS1_S1_ES5_R10UErrorCode
00000000000028f0 T __ZN6icu_579Hashtable4putiERKNS_13UnicodeStringEiR10UErrorCode
000000000000ab50 T __ZN6icu_579HashtableC1EaR10UErrorCode
0000000000002870 T __ZN6icu_579HashtableC1Ev
000000000000c5f0 T __ZN6icu_579HashtableC2EaR10UErrorCode
000000000000bc50 T __ZN6icu_579HashtableC2Ev
00000000000029c0 T __ZN6icu_579HashtableD1Ev
000000000000bd30 T __ZN6icu_579HashtableD2Ev
0000000000002eb0 t __ZN6icu_57L10_clone_ptrINS_18CurrencyPluralInfoEEEvPPT_PKS2_
000000000000d3aa s __ZN6icu_57L10fgPatternsE
0000000000009f10 t __ZN6icu_57L13toPadPositionENS_13DecimalFormat12EPadPositionE
000000000000d3b3 s __ZN6icu_57L15fgDecimalFormatE
0000000000009e00 t __ZN6icu_57L15fromPadPositionENS_22DigitAffixesAndPadding12EPadPositionE
000000000000d3c6 s __ZN6icu_57L16fgCurrencyFormatE
000000000000d39b s __ZN6icu_57L16fgNumberElementsE
0000000000002540 t __ZN6icu_57L29applyPatternWithNoSideEffectsERKNS_13UnicodeStringER11UParseErrorRS0_S5_S5_S5_R10UErrorCode
000000000000abb0 t __ZN6icu_57L35decimfmtAffixPatternValueComparatorE8UElementS0_
000000000000d3c1 s __ZN6icu_57L6fgLatnE
00000000000080f0 T __ZNK6icu_5710CharString13toStringPieceEv
0000000000007a90 T __ZNK6icu_5710DigitAffix8toStringEv
                 U __ZNK6icu_5710UnicodeSet8containsEi
0000000000003930 T __ZNK6icu_5711Formattable12getDigitListEv
                 U __ZNK6icu_5711Formattable7getTypeEv
0000000000003950 T __ZNK6icu_5711Formattable8getInt64Ev
                 U __ZNK6icu_5711Formattable9getDoubleER10UErrorCode
                 U __ZNK6icu_5711Formattable9isNumericEv
0000000000007a70 T __ZNK6icu_5711PluralAffix15getOtherVariantEv
000000000000c3c0 T __ZNK6icu_5711StringPiece4dataEv
000000000000c3e0 T __ZNK6icu_5711StringPiece6lengthEv
                 U __ZNK6icu_5712AffixPattern8toStringERNS_13UnicodeStringE
                 U __ZNK6icu_5712NumberFormat10getContextE19UDisplayContextTypeR10UErrorCode
                 U __ZNK6icu_5712NumberFormat11getCurrencyEv
                 U __ZNK6icu_5712NumberFormat11parseObjectERKNS_13UnicodeStringERNS_11FormattableERNS_13ParsePositionE
                 U __ZNK6icu_5712NumberFormat14isGroupingUsedEv
0000000000007ab0 T __ZNK6icu_5712NumberFormat18isParseIntegerOnlyEv
                 U __ZNK6icu_5712NumberFormat23getMaximumIntegerDigitsEv
                 U __ZNK6icu_5712NumberFormat23getMinimumIntegerDigitsEv
                 U __ZNK6icu_5712NumberFormat24getMaximumFractionDigitsEv
                 U __ZNK6icu_5712NumberFormat24getMinimumFractionDigitsEv
                 U __ZNK6icu_5712NumberFormat5parseERKNS_13UnicodeStringERNS_11FormattableER10UErrorCode
                 U __ZNK6icu_5712NumberFormat6formatERKNS_11FormattableERNS_13UnicodeStringEPNS_21FieldPositionIteratorER10UErrorCode
                 U __ZNK6icu_5712NumberFormat6formatERKNS_11FormattableERNS_13UnicodeStringERNS_13FieldPositionER10UErrorCode
000000000000b7e0 T __ZNK6icu_5712NumberFormat9isLenientEv
                 U __ZNK6icu_5712NumberFormateqERKNS_6FormatE
0000000000004c30 T __ZNK6icu_5713DecimalFormat11skipPaddingERKNS_13UnicodeStringEi
0000000000007c00 T __ZNK6icu_5713DecimalFormat12compareAffixERKNS_13UnicodeStringEiaaPS2_aaPt
000000000000b380 T __ZNK6icu_5713DecimalFormat12getAttributeE22UNumberFormatAttributeR10UErrorCode
0000000000009a90 T __ZNK6icu_5713DecimalFormat13getMultiplierEv
0000000000004880 T __ZNK6icu_5713DecimalFormat13parseCurrencyERKNS_13UnicodeStringERNS_13ParsePositionE
0000000000009c10 T __ZNK6icu_5713DecimalFormat14getFormatWidthEv
0000000000009dd0 T __ZNK6icu_5713DecimalFormat14getPadPositionEv
0000000000003550 T __ZNK6icu_5713DecimalFormat15getFixedDecimalERKNS_11FormattableER10UErrorCode
0000000000003970 T __ZNK6icu_5713DecimalFormat15getFixedDecimalERNS_9DigitListER10UErrorCode
0000000000003330 T __ZNK6icu_5713DecimalFormat15getFixedDecimalEdR10UErrorCode
000000000000a1a0 T __ZNK6icu_5713DecimalFormat15getGroupingSizeEv
0000000000009b50 T __ZNK6icu_5713DecimalFormat15getRoundingModeEv
000000000000a9f0 T __ZNK6icu_5713DecimalFormat16getCurrencyUsageEv
0000000000004e10 T __ZNK6icu_5713DecimalFormat16parseForCurrencyERKNS_13UnicodeStringERNS_13ParsePositionERNS_9DigitListEPaPt
0000000000000010 T __ZNK6icu_5713DecimalFormat17getDynamicClassIDEv
0000000000009970 T __ZNK6icu_5713DecimalFormat17getNegativePrefixERNS_13UnicodeStringE
0000000000009a30 T __ZNK6icu_5713DecimalFormat17getNegativeSuffixERNS_13UnicodeStringE
0000000000009910 T __ZNK6icu_5713DecimalFormat17getPositivePrefixERNS_13UnicodeStringE
00000000000099d0 T __ZNK6icu_5713DecimalFormat17getPositiveSuffixERNS_13UnicodeStringE
00000000000086c0 T __ZNK6icu_5713DecimalFormat18compareSimpleAffixERKNS_13UnicodeStringES3_ia
000000000000a4a0 T __ZNK6icu_5713DecimalFormat18toLocalizedPatternERNS_13UnicodeStringE
0000000000008150 T __ZNK6icu_5713DecimalFormat19compareComplexAffixERKNS_13UnicodeStringES3_iaPt
000000000000aa90 T __ZNK6icu_5713DecimalFormat20getEffectiveCurrencyEPtR10UErrorCode
0000000000009af0 T __ZNK6icu_5713DecimalFormat20getRoundingIncrementEv
0000000000009fa0 T __ZNK6icu_5713DecimalFormat20isScientificNotationEv
00000000000097f0 T __ZNK6icu_5713DecimalFormat21getCurrencyPluralInfoEv
0000000000009ce0 T __ZNK6icu_5713DecimalFormat21getPadCharacterStringEv
0000000000009690 T __ZNK6icu_5713DecimalFormat23getDecimalFormatSymbolsEv
000000000000a8e0 T __ZNK6icu_5713DecimalFormat24areSignificantDigitsUsedEv
000000000000a020 T __ZNK6icu_5713DecimalFormat24getMinimumExponentDigitsEv
000000000000a2a0 T __ZNK6icu_5713DecimalFormat24getMinimumGroupingDigitsEv
000000000000a220 T __ZNK6icu_5713DecimalFormat24getSecondaryGroupingSizeEv
000000000000a100 T __ZNK6icu_5713DecimalFormat25isExponentSignAlwaysShownEv
0000000000008fe0 T __ZNK6icu_5713DecimalFormat26equalWithSignCompatibilityEii
000000000000a7a0 T __ZNK6icu_5713DecimalFormat27getMaximumSignificantDigitsEv
000000000000a750 T __ZNK6icu_5713DecimalFormat27getMinimumSignificantDigitsEv
00000000000036d0 T __ZNK6icu_5713DecimalFormat29initVisibleDigitsWithExponentERKNS_11FormattableERNS_25VisibleDigitsWithExponentER10UErrorCode
0000000000003af0 T __ZNK6icu_5713DecimalFormat29initVisibleDigitsWithExponentERNS_9DigitListERNS_25VisibleDigitsWithExponentER10UErrorCode
00000000000034d0 T __ZNK6icu_5713DecimalFormat29initVisibleDigitsWithExponentEdRNS_25VisibleDigitsWithExponentER10UErrorCode
0000000000008060 T __ZNK6icu_5713DecimalFormat29isDecimalPatternMatchRequiredEv
000000000000a320 T __ZNK6icu_5713DecimalFormat29isDecimalSeparatorAlwaysShownEv
0000000000003280 T __ZNK6icu_5713DecimalFormat5cloneEv
0000000000004030 T __ZNK6icu_5713DecimalFormat5parseERKNS_13UnicodeStringERNS_11FormattableERNS_13ParsePositionE
0000000000004070 T __ZNK6icu_5713DecimalFormat5parseERKNS_13UnicodeStringERNS_11FormattableERNS_13ParsePositionEPt
0000000000003f70 T __ZNK6icu_5713DecimalFormat6_roundERKNS_9DigitListERS1_RaR10UErrorCode
0000000000003de0 T __ZNK6icu_5713DecimalFormat6formatERKNS_11StringPieceERNS_13UnicodeStringEPNS_21FieldPositionIteratorER10UErrorCode
0000000000003ed0 T __ZNK6icu_5713DecimalFormat6formatERKNS_25VisibleDigitsWithExponentERNS_13UnicodeStringEPNS_21FieldPositionIteratorER10UErrorCode
0000000000003f20 T __ZNK6icu_5713DecimalFormat6formatERKNS_25VisibleDigitsWithExponentERNS_13UnicodeStringERNS_13FieldPositionER10UErrorCode
0000000000003e30 T __ZNK6icu_5713DecimalFormat6formatERKNS_9DigitListERNS_13UnicodeStringEPNS_21FieldPositionIteratorER10UErrorCode
0000000000003e80 T __ZNK6icu_5713DecimalFormat6formatERKNS_9DigitListERNS_13UnicodeStringERNS_13FieldPositionER10UErrorCode
0000000000003d90 T __ZNK6icu_5713DecimalFormat6formatEdRNS_13UnicodeStringEPNS_21FieldPositionIteratorER10UErrorCode
0000000000003cf0 T __ZNK6icu_5713DecimalFormat6formatEdRNS_13UnicodeStringERNS_13FieldPositionE
0000000000003d40 T __ZNK6icu_5713DecimalFormat6formatEdRNS_13UnicodeStringERNS_13FieldPositionER10UErrorCode
0000000000003bc0 T __ZNK6icu_5713DecimalFormat6formatEiRNS_13UnicodeStringEPNS_21FieldPositionIteratorER10UErrorCode
0000000000003b30 T __ZNK6icu_5713DecimalFormat6formatEiRNS_13UnicodeStringERNS_13FieldPositionE
0000000000003b80 T __ZNK6icu_5713DecimalFormat6formatEiRNS_13UnicodeStringERNS_13FieldPositionER10UErrorCode
0000000000003ca0 T __ZNK6icu_5713DecimalFormat6formatExRNS_13UnicodeStringEPNS_21FieldPositionIteratorER10UErrorCode
0000000000003c00 T __ZNK6icu_5713DecimalFormat6formatExRNS_13UnicodeStringERNS_13FieldPositionE
0000000000003c50 T __ZNK6icu_5713DecimalFormat6formatExRNS_13UnicodeStringERNS_13FieldPositionER10UErrorCode
00000000000059b0 T __ZNK6icu_5713DecimalFormat8subparseERKNS_13UnicodeStringEPS2_S4_S4_S4_aaRNS_13ParsePositionERNS_9DigitListEPaPt
000000000000a470 T __ZNK6icu_5713DecimalFormat9toPatternERNS_13UnicodeStringE
00000000000031a0 T __ZNK6icu_5713DecimalFormateqERKNS_6FormatE
0000000000007b00 T __ZNK6icu_5713ParsePosition13getErrorIndexEv
0000000000004b80 T __ZNK6icu_5713ParsePosition8getIndexEv
000000000000c020 T __ZNK6icu_5713UnicodeString10pinIndicesERiS1_
0000000000007fb0 T __ZNK6icu_5713UnicodeString11caseCompareEiiRKS0_j
                 U __ZNK6icu_5713UnicodeString11countChar32Eii
                 U __ZNK6icu_5713UnicodeString13doCaseCompareEiiPKtiij
000000000000c400 T __ZNK6icu_5713UnicodeString13doCaseCompareEiiRKS0_iij
000000000000c0d0 T __ZNK6icu_5713UnicodeString13getArrayStartEv
000000000000c140 T __ZNK6icu_5713UnicodeString14getShortLengthEv
000000000000c120 T __ZNK6icu_5713UnicodeString14hasShortLengthEv
00000000000091f0 T __ZNK6icu_5713UnicodeString6charAtEi
0000000000004dc0 T __ZNK6icu_5713UnicodeString6lengthEv
0000000000004d60 T __ZNK6icu_5713UnicodeString7compareEiiRKS0_
0000000000008090 T __ZNK6icu_5713UnicodeString7indexOfEi
000000000000c520 T __ZNK6icu_5713UnicodeString7indexOfEiii
0000000000001820 T __ZNK6icu_5713UnicodeString7indexOfEt
000000000000c000 T __ZNK6icu_5713UnicodeString7isBogusEv
0000000000007b90 T __ZNK6icu_5713UnicodeString7isEmptyEv
                 U __ZNK6icu_5713UnicodeString8char32AtEi
000000000000c4c0 T __ZNK6icu_5713UnicodeString8doCharAtEi
                 U __ZNK6icu_5713UnicodeString8doEqualsERKS0_i
                 U __ZNK6icu_5713UnicodeString9doCompareEiiPKtii
000000000000bf60 T __ZNK6icu_5713UnicodeString9doCompareEiiRKS0_ii
                 U __ZNK6icu_5713UnicodeString9doIndexOfEiii
                 U __ZNK6icu_5713UnicodeString9doIndexOfEtii
0000000000009430 T __ZNK6icu_5713UnicodeString9getBufferEv
000000000000c6a0 T __ZNK6icu_5713UnicodeStringeqERKS0_
0000000000008030 T __ZNK6icu_5713UnicodeStringixEi
000000000000c550 T __ZNK6icu_5715MaybeStackArrayIcLi40EE8getAliasEv
                 U __ZNK6icu_5715NumberingSystem7getNameEv
0000000000001770 T __ZNK6icu_5716LocalPointerBaseINS_15NumberingSystemEEptEv
0000000000001670 T __ZNK6icu_5716LocalPointerBaseINS_20DecimalFormatSymbolsEE6isNullEv
00000000000017b0 T __ZNK6icu_5716LocalPointerBaseINS_20DecimalFormatSymbolsEE8getAliasEv
                 U __ZNK6icu_5717DecimalFormatImpl13getMultiplierEv
                 U __ZNK6icu_5717DecimalFormatImpl14getConstSymbolENS_20DecimalFormatSymbols19ENumberFormatSymbolE
0000000000009c40 T __ZNK6icu_5717DecimalFormatImpl14getFormatWidthEv
0000000000009e90 T __ZNK6icu_5717DecimalFormatImpl14getPadPositionEv
000000000000a1d0 T __ZNK6icu_5717DecimalFormatImpl15getGroupingSizeEv
0000000000009d20 T __ZNK6icu_5717DecimalFormatImpl15getPadCharacterEv
0000000000009b80 T __ZNK6icu_5717DecimalFormatImpl15getRoundingModeEv
                 U __ZNK6icu_5717DecimalFormatImpl15isParseFastpathEv
000000000000aa20 T __ZNK6icu_5717DecimalFormatImpl16getCurrencyUsageEv
                 U __ZNK6icu_5717DecimalFormatImpl17getNegativePrefixERNS_13UnicodeStringE
                 U __ZNK6icu_5717DecimalFormatImpl17getNegativeSuffixERNS_13UnicodeStringE
                 U __ZNK6icu_5717DecimalFormatImpl17getOldFormatWidthEv
                 U __ZNK6icu_5717DecimalFormatImpl17getPositivePrefixERNS_13UnicodeStringE
                 U __ZNK6icu_5717DecimalFormatImpl17getPositiveSuffixERNS_13UnicodeStringE
                 U __ZNK6icu_5717DecimalFormatImpl20getRoundingIncrementEv
0000000000009fd0 T __ZNK6icu_5717DecimalFormatImpl20isScientificNotationEv
00000000000096c0 T __ZNK6icu_5717DecimalFormatImpl23getDecimalFormatSymbolsEv
000000000000a910 T __ZNK6icu_5717DecimalFormatImpl24areSignificantDigitsUsedEv
000000000000a050 T __ZNK6icu_5717DecimalFormatImpl24getMinimumExponentDigitsEv
000000000000a2d0 T __ZNK6icu_5717DecimalFormatImpl24getMinimumGroupingDigitsEv
000000000000a250 T __ZNK6icu_5717DecimalFormatImpl24getSecondaryGroupingSizeEv
000000000000a130 T __ZNK6icu_5717DecimalFormatImpl25isExponentSignAlwaysShownEv
000000000000a7d0 T __ZNK6icu_5717DecimalFormatImpl27getMaximumSignificantDigitsEv
000000000000a780 T __ZNK6icu_5717DecimalFormatImpl27getMinimumSignificantDigitsEv
                 U __ZNK6icu_5717DecimalFormatImpl29initVisibleDigitsWithExponentERNS_9DigitListERNS_25VisibleDigitsWithExponentER10UErrorCode
                 U __ZNK6icu_5717DecimalFormatImpl29initVisibleDigitsWithExponentEdRNS_25VisibleDigitsWithExponentER10UErrorCode
                 U __ZNK6icu_5717DecimalFormatImpl29initVisibleDigitsWithExponentExRNS_25VisibleDigitsWithExponentER10UErrorCode
000000000000a350 T __ZNK6icu_5717DecimalFormatImpl29isDecimalSeparatorAlwaysShownEv
                 U __ZNK6icu_5717DecimalFormatImpl5roundERNS_9DigitListER10UErrorCode
                 U __ZNK6icu_5717DecimalFormatImpl6formatERKNS_11StringPieceERNS_13UnicodeStringEPNS_21FieldPositionIteratorER10UErrorCode
                 U __ZNK6icu_5717DecimalFormatImpl6formatERKNS_25VisibleDigitsWithExponentERNS_13UnicodeStringEPNS_21FieldPositionIteratorER10UErrorCode
                 U __ZNK6icu_5717DecimalFormatImpl6formatERKNS_25VisibleDigitsWithExponentERNS_13UnicodeStringERNS_13FieldPositionER10UErrorCode
                 U __ZNK6icu_5717DecimalFormatImpl6formatERKNS_9DigitListERNS_13UnicodeStringEPNS_21FieldPositionIteratorER10UErrorCode
                 U __ZNK6icu_5717DecimalFormatImpl6formatERKNS_9DigitListERNS_13UnicodeStringERNS_13FieldPositionER10UErrorCode
                 U __ZNK6icu_5717DecimalFormatImpl6formatEdRNS_13UnicodeStringEPNS_21FieldPositionIteratorER10UErrorCode
                 U __ZNK6icu_5717DecimalFormatImpl6formatEdRNS_13UnicodeStringERNS_13FieldPositionER10UErrorCode
                 U __ZNK6icu_5717DecimalFormatImpl6formatEiRNS_13UnicodeStringEPNS_21FieldPositionIteratorER10UErrorCode
                 U __ZNK6icu_5717DecimalFormatImpl6formatEiRNS_13UnicodeStringERNS_13FieldPositionER10UErrorCode
                 U __ZNK6icu_5717DecimalFormatImpl6formatExRNS_13UnicodeStringEPNS_21FieldPositionIteratorER10UErrorCode
                 U __ZNK6icu_5717DecimalFormatImpl6formatExRNS_13UnicodeStringERNS_13FieldPositionER10UErrorCode
                 U __ZNK6icu_5717DecimalFormatImpl9toPatternERNS_13UnicodeStringE
                 U __ZNK6icu_5717DecimalFormatImpleqERKS0_
                 U __ZNK6icu_5718CurrencyPluralInfo24getCurrencyPluralPatternERKNS_13UnicodeStringERS1_
                 U __ZNK6icu_5718CurrencyPluralInfo5cloneEv
                 U __ZNK6icu_5718CurrencyPluralInfo9getLocaleEv
00000000000017f0 T __ZNK6icu_5720DecimalFormatSymbols9getLocaleEv
0000000000003510 T __ZNK6icu_5725VisibleDigitsWithExponent11getMantissaEv
0000000000001750 T __ZNK6icu_576Locale7getNameEv
000000000000b310 T __ZNK6icu_577EnumSetI22UNumberFormatAttributeLj4096ELj4099EE12isValidValueEi
000000000000b7a0 T __ZNK6icu_577EnumSetI22UNumberFormatAttributeLj4096ELj4099EE3getES1_
000000000000ca60 T __ZNK6icu_577EnumSetI22UNumberFormatAttributeLj4096ELj4099EE4flagES1_
0000000000003270 T __ZNK6icu_577EnumSetI22UNumberFormatAttributeLj4096ELj4099EE6getAllEv
0000000000007f80 T __ZNK6icu_577EnumSetI22UNumberFormatAttributeLj4096ELj4099EE8containsES1_
0000000000003ff0 T __ZNK6icu_579DigitList10isPositiveEv
                 U __ZNK6icu_579DigitList6isZeroEv
0000000000002890 T __ZNK6icu_579Hashtable11nextElementERi
00000000000028c0 T __ZNK6icu_579Hashtable4getiERKNS_13UnicodeStringE
000000000000c180 T __ZNK6icu_579PluralMapINS_10DigitAffixEE3getENS_13PluralMapBase8CategoryE
000000000000c160 T __ZNK6icu_579PluralMapINS_10DigitAffixEE8getOtherEv
                 U __ZSt9terminatev
                 U __ZTIN6icu_5712NumberFormatE
000000000000d680 S __ZTIN6icu_5713DecimalFormatE
000000000000d3e0 S __ZTSN6icu_5713DecimalFormatE
                 U __ZTVN10__cxxabiv120__si_class_type_infoE
                 U __ZTVN6icu_5711ReplaceableE
000000000000d400 S __ZTVN6icu_5713DecimalFormatE
                 U __ZTVN6icu_5713ParsePositionE
                 U __ZTVN6icu_5713UnicodeStringE
                 U __ZTVN6icu_577UObjectE
0000000000012d08 b __ZZN6icu_5713DecimalFormat16getStaticClassIDEvE7classID
0000000000002b90 T ___clang_call_terminate
                 U ___cxa_begin_catch
                 U ___gxx_personality_v0
                 U ___stack_chk_fail
                 U ___stack_chk_guard
                 U _memset
                 U _strcmp
                 U _u_charDigitValue_57
                 U _u_isUWhiteSpace_57
                 U _u_isdigit_57
                 U _u_strcpy_57
                 U _u_strncmp_57
                 U _u_strncpy_57
                 U _uhash_close_57
                 U _uhash_compareCaselessUnicodeString_57
                 U _uhash_compareUnicodeString_57
                 U _uhash_geti_57
                 U _uhash_hashCaselessUnicodeString_57
                 U _uhash_hashUnicodeString_57
                 U _uhash_init_57
                 U _uhash_nextElement_57
                 U _uhash_put_57
                 U _uhash_puti_57
                 U _uhash_setKeyDeleter_57
                 U _uhash_setValueComparator_57
                 U _uprv_decNumberZero_57
                 U _uprv_deleteUObject_57
                 U _uprv_free_57
                 U _uprv_getInfinity_57
                 U _uprv_getNaN_57
                 U _uprv_parseCurrency_57
                 U _ures_close_57
                 U _ures_getByKeyWithFallback_57
                 U _ures_getStringByKeyWithFallback_57
                 U _ures_open_57
000000000000d698 s l_.str
000000000000d6a4 s l_.str.1

libicui18n.a(decimalformatpattern.ao):
000000000000353c s GCC_except_table0
00000000000036c0 s GCC_except_table24
00000000000035c8 s GCC_except_table5
0000000000003660 s GCC_except_table9
                 U __Unwind_Resume
0000000000002a10 t __ZL9U_FAILURE10UErrorCode
0000000000002fd0 T __ZN6icu_5711ReplaceableC2Ev
                 U __ZN6icu_5712AffixPattern16parseAffixStringERKNS_13UnicodeStringERS0_R10UErrorCode
0000000000000280 T __ZN6icu_5712AffixPatternC1Ev
0000000000003030 T __ZN6icu_5712AffixPatternC2Ev
00000000000002a0 T __ZN6icu_5712AffixPatternD1Ev
00000000000030b0 T __ZN6icu_5712AffixPatternD2Ev
0000000000003120 T __ZN6icu_5712AffixPatternaSEOS0_
0000000000003500 T __ZN6icu_5713UnicodeString10setToEmptyEv
0000000000003520 T __ZN6icu_5713UnicodeString13setZeroLengthEv
0000000000002f40 T __ZN6icu_5713UnicodeString6appendERKS0_
                 U __ZN6icu_5713UnicodeString6appendEi
0000000000002de0 T __ZN6icu_5713UnicodeString6appendEt
0000000000002e40 T __ZN6icu_5713UnicodeString6removeEv
                 U __ZN6icu_5713UnicodeString8doAppendEPKtii
                 U __ZN6icu_5713UnicodeString8doAppendERKS0_ii
                 U __ZN6icu_5713UnicodeString8moveFromERS0_
                 U __ZN6icu_5713UnicodeStringC1Et
0000000000000260 T __ZN6icu_5713UnicodeStringC1Ev
0000000000002f90 T __ZN6icu_5713UnicodeStringC2Ev
                 U __ZN6icu_5713UnicodeStringD1Ev
00000000000030f0 T __ZN6icu_5713UnicodeStringaSEOS0_
                 U __ZN6icu_5713UnicodeStringaSERKS0_
00000000000002c0 T __ZN6icu_5720DecimalFormatPatternC1Ev
0000000000000000 T __ZN6icu_5720DecimalFormatPatternC2Ev
0000000000002c00 T __ZN6icu_5720DecimalFormatPatternD1Ev
00000000000031a0 T __ZN6icu_5720DecimalFormatPatternD2Ev
0000000000002a30 T __ZN6icu_5720DecimalFormatPatternaSEOS0_
0000000000000530 T __ZN6icu_5726DecimalFormatPatternParser10useSymbolsERKNS_20DecimalFormatSymbolsE
0000000000000750 T __ZN6icu_5726DecimalFormatPatternParser30applyPatternWithoutExpandAffixERKNS_13UnicodeStringERNS_20DecimalFormatPatternER11UParseErrorR10UErrorCode
0000000000000510 T __ZN6icu_5726DecimalFormatPatternParserC1Ev
00000000000002e0 T __ZN6icu_5726DecimalFormatPatternParserC2Ev
0000000000003010 T __ZN6icu_577UObjectC2Ev
                 U __ZN6icu_579DigitList12setDecimalAtEi
                 U __ZN6icu_579DigitList6appendEc
                 U __ZN6icu_579DigitListC1Ev
                 U __ZN6icu_579DigitListD1Ev
                 U __ZN6icu_579DigitListaSERKS0_
0000000000002cd0 t __ZN6icu_57L11syntaxErrorERKNS_13UnicodeStringEiR11UParseError
00000000000036f0 d __ZN6icu_57L20kDoubleIntegerDigitsE
00000000000036f4 d __ZN6icu_57L21kDoubleFractionDigitsE
00000000000036ec d __ZN6icu_57L24gDefaultMaxIntegerDigitsE
0000000000003360 T __ZNK6icu_5713UnicodeString10pinIndicesERiS1_
0000000000003410 T __ZNK6icu_5713UnicodeString13getArrayStartEv
0000000000003280 T __ZNK6icu_5713UnicodeString14getShortLengthEv
0000000000003260 T __ZNK6icu_5713UnicodeString14hasShortLengthEv
0000000000002c20 T __ZNK6icu_5713UnicodeString6lengthEv
0000000000002c70 T __ZNK6icu_5713UnicodeString7compareEiiRKS0_
0000000000003460 T __ZNK6icu_5713UnicodeString7extractEiiPti
0000000000003340 T __ZNK6icu_5713UnicodeString7isBogusEv
                 U __ZNK6icu_5713UnicodeString8char32AtEi
00000000000034a0 T __ZNK6icu_5713UnicodeString8doCharAtEi
                 U __ZNK6icu_5713UnicodeString8doEqualsERKS0_i
                 U __ZNK6icu_5713UnicodeString9doCompareEiiPKtii
00000000000032a0 T __ZNK6icu_5713UnicodeString9doCompareEiiRKS0_ii
                 U __ZNK6icu_5713UnicodeString9doExtractEiiPti
0000000000002e90 T __ZNK6icu_5713UnicodeStringeqERKS0_
0000000000002e10 T __ZNK6icu_5713UnicodeStringixEi
0000000000000700 T __ZNK6icu_5720DecimalFormatSymbols14getConstSymbolENS0_19ENumberFormatSymbolE
                 U __ZTVN6icu_5711ReplaceableE
                 U __ZTVN6icu_5713UnicodeStringE
                 U __ZTVN6icu_577UObjectE
                 U ___gxx_personality_v0
                 U ___stack_chk_fail
                 U ___stack_chk_guard
                 U _memcpy

libicui18n.a(dcfmtsym.ao):
0000000000003f08 s GCC_except_table12
0000000000003f28 s GCC_except_table17
0000000000003cac s GCC_except_table2
0000000000003f88 s GCC_except_table34
0000000000003fb4 s GCC_except_table36
0000000000003d1c s GCC_except_table5
0000000000003fe0 s GCC_except_table55
0000000000003e28 s GCC_except_table7
0000000000003e98 s GCC_except_table9
                 U __Unwind_Resume
00000000000026c0 t __ZL9U_FAILURE10UErrorCode
0000000000003150 t __ZL9U_SUCCESS10UErrorCode
                 U __ZN6icu_5711LocaleBased12setLocaleIDsEPKcS2_
0000000000003760 T __ZN6icu_5711LocaleBasedC1EPKcS2_
00000000000033e0 T __ZN6icu_5711LocaleBasedC1EPcS1_
0000000000003bd0 T __ZN6icu_5711LocaleBasedC2EPKcS2_
0000000000003ae0 T __ZN6icu_5711LocaleBasedC2EPcS1_
00000000000038f0 T __ZN6icu_5711ReplaceableC2Ev
0000000000003120 T __ZN6icu_5712LocalPointerINS_15NumberingSystemEEC1EPS1_
0000000000003c00 T __ZN6icu_5712LocalPointerINS_15NumberingSystemEEC2EPS1_
0000000000003640 T __ZN6icu_5712LocalPointerINS_15NumberingSystemEED1Ev
0000000000003c50 T __ZN6icu_5712LocalPointerINS_15NumberingSystemEED2Ev
                 U __ZN6icu_5713UnicodeString10setToBogusEv
0000000000003b90 T __ZN6icu_5713UnicodeString10setToEmptyEv
                 U __ZN6icu_5713UnicodeString12fastCopyFromERKS0_
0000000000003bb0 T __ZN6icu_5713UnicodeString13setZeroLengthEv
0000000000003390 T __ZN6icu_5713UnicodeString5setToEPKti
                 U __ZN6icu_5713UnicodeString5setToEaPKti
0000000000003190 T __ZN6icu_5713UnicodeString5setToEi
00000000000036b0 T __ZN6icu_5713UnicodeString6removeEv
                 U __ZN6icu_5713UnicodeString7replaceEiii
                 U __ZN6icu_5713UnicodeString7unBogusEv
                 U __ZN6icu_5713UnicodeString8moveFromERS0_
                 U __ZN6icu_5713UnicodeString9doReplaceEiiPKtii
                 U __ZN6icu_5713UnicodeStringC1EaPKti
                 U __ZN6icu_5713UnicodeStringC1Ei
0000000000000460 T __ZN6icu_5713UnicodeStringC1Ev
00000000000038b0 T __ZN6icu_5713UnicodeStringC2Ev
                 U __ZN6icu_5713UnicodeStringD1Ev
0000000000003610 T __ZN6icu_5713UnicodeStringaSEOS0_
                 U __ZN6icu_5713UnicodeStringaSERKS0_
0000000000003660 T __ZN6icu_5713UnicodeStringaSEt
                 U __ZN6icu_5715NumberingSystem14createInstanceERKNS_6LocaleER10UErrorCode
0000000000003ac0 T __ZN6icu_5716LocalPointerBaseI15UResourceBundleEC2EPS1_
0000000000003b70 T __ZN6icu_5716LocalPointerBaseI15UResourceBundleED2Ev
0000000000003c30 T __ZN6icu_5716LocalPointerBaseINS_15NumberingSystemEEC2EPS1_
0000000000003ca0 T __ZN6icu_5716LocalPointerBaseINS_15NumberingSystemEED2Ev
0000000000000480 T __ZN6icu_5720DecimalFormatSymbols10initializeERKNS_6LocaleER10UErrorCodea
0000000000002220 T __ZN6icu_5720DecimalFormatSymbols10initializeEv
0000000000000000 T __ZN6icu_5720DecimalFormatSymbols16getStaticClassIDEv
00000000000025e0 T __ZN6icu_5720DecimalFormatSymbols24createWithLastResortDataER10UErrorCode
0000000000003830 T __ZN6icu_5720DecimalFormatSymbols28setPatternForCurrencySpacingE16UCurrencySpacingaRKNS_13UnicodeStringE
0000000000003210 T __ZN6icu_5720DecimalFormatSymbols9setSymbolENS0_19ENumberFormatSymbolERKNS_13UnicodeStringEa
0000000000001980 T __ZN6icu_5720DecimalFormatSymbolsC1ER10UErrorCode
0000000000001dd0 T __ZN6icu_5720DecimalFormatSymbolsC1ERKNS_6LocaleER10UErrorCode
0000000000002e10 T __ZN6icu_5720DecimalFormatSymbolsC1ERKS0_
00000000000025c0 T __ZN6icu_5720DecimalFormatSymbolsC1Ev
0000000000000030 T __ZN6icu_5720DecimalFormatSymbolsC2ER10UErrorCode
00000000000019b0 T __ZN6icu_5720DecimalFormatSymbolsC2ERKNS_6LocaleER10UErrorCode
0000000000002860 T __ZN6icu_5720DecimalFormatSymbolsC2ERKS0_
0000000000001e00 T __ZN6icu_5720DecimalFormatSymbolsC2Ev
0000000000002830 T __ZN6icu_5720DecimalFormatSymbolsD0Ev
0000000000002810 T __ZN6icu_5720DecimalFormatSymbolsD1Ev
00000000000026e0 T __ZN6icu_5720DecimalFormatSymbolsD2Ev
0000000000002c60 T __ZN6icu_5720DecimalFormatSymbolsaSERKS0_
0000000000003520 T __ZN6icu_5726ures_getUnicodeStringByKeyEPK15UResourceBundlePKcP10UErrorCode
00000000000031d0 T __ZN6icu_5727LocalUResourceBundlePointer12adoptInsteadEP15UResourceBundle
00000000000030d0 T __ZN6icu_5727LocalUResourceBundlePointerC1EP15UResourceBundle
0000000000003a90 T __ZN6icu_5727LocalUResourceBundlePointerC2EP15UResourceBundle
0000000000003500 T __ZN6icu_5727LocalUResourceBundlePointerD1Ev
0000000000003b10 T __ZN6icu_5727LocalUResourceBundlePointerD2Ev
0000000000003410 T __ZN6icu_5728ures_getUnicodeStringByIndexEPK15UResourceBundleiP10UErrorCode
                 U __ZN6icu_576Locale7getRootEv
                 U __ZN6icu_576LocaleC1ERKS0_
                 U __ZN6icu_576LocaleC1Ev
                 U __ZN6icu_576LocaleD1Ev
                 U __ZN6icu_576LocaleaSERKS0_
                 U __ZN6icu_577UMemorydlEPv
                 U __ZN6icu_577UMemorynwEm
0000000000002c40 T __ZN6icu_577UObjectC2ERKS0_
0000000000000440 T __ZN6icu_577UObjectC2Ev
                 U __ZN6icu_577UObjectD2Ev
0000000000004210 s __ZN6icu_57L15gNumberElementsE
000000000000426e s __ZN6icu_57L17gAfterCurrencyTagE
0000000000004230 s __ZN6icu_57L17gCurrencyMatchTagE
000000000000425f s __ZN6icu_57L18gBeforeCurrencyTagE
0000000000004220 s __ZN6icu_57L19gCurrencySpacingTagE
0000000000004240 s __ZN6icu_57L20gCurrencySudMatchTagE
0000000000004251 s __ZN6icu_57L21gCurrencyInsertBtnTagE
000000000000427c s __ZN6icu_57L24INTL_CURRENCY_SYMBOL_STRE
                 U __ZNK6icu_5711LocaleBased9getLocaleE18ULocDataLocaleTypeR10UErrorCode
                 U __ZNK6icu_5713UnicodeString11countChar32Eii
0000000000003a70 T __ZNK6icu_5713UnicodeString14getShortLengthEv
0000000000003a50 T __ZNK6icu_5713UnicodeString14hasShortLengthEv
0000000000003a00 T __ZNK6icu_5713UnicodeString6lengthEv
00000000000039e0 T __ZNK6icu_5713UnicodeString7isBogusEv
                 U __ZNK6icu_5713UnicodeString8char32AtEi
                 U __ZNK6icu_5713UnicodeString8doEqualsERKS0_i
0000000000003930 T __ZNK6icu_5713UnicodeStringeqERKS0_
0000000000003080 T __ZNK6icu_5713UnicodeStringneERKS0_
                 U __ZNK6icu_5715NumberingSystem13isAlgorithmicEv
                 U __ZNK6icu_5715NumberingSystem7getNameEv
                 U __ZNK6icu_5715NumberingSystem8getRadixEv
0000000000003100 T __ZNK6icu_5716LocalPointerBaseI15UResourceBundleE8getAliasEv
0000000000003170 T __ZNK6icu_5716LocalPointerBaseINS_15NumberingSystemEEptEv
0000000000000010 T __ZNK6icu_5720DecimalFormatSymbols17getDynamicClassIDEv
0000000000003790 T __ZNK6icu_5720DecimalFormatSymbols28getPatternForCurrencySpacingE16UCurrencySpacingaR10UErrorCode
0000000000003700 T __ZNK6icu_5720DecimalFormatSymbols9getLocaleE18ULocDataLocaleTypeR10UErrorCode
0000000000002e40 T __ZNK6icu_5720DecimalFormatSymbolseqERKS0_
00000000000030b0 T __ZNK6icu_576Locale7getNameEv
                 U __ZNK6icu_576LocaleeqERKS0_
                 U __ZSt9terminatev
0000000000004050 S __ZTIN6icu_5720DecimalFormatSymbolsE
                 U __ZTIN6icu_577UObjectE
0000000000004290 S __ZTSN6icu_5720DecimalFormatSymbolsE
                 U __ZTVN10__cxxabiv120__si_class_type_infoE
                 U __ZTVN6icu_5711ReplaceableE
                 U __ZTVN6icu_5713UnicodeStringE
0000000000004000 S __ZTVN6icu_5720DecimalFormatSymbolsE
                 U __ZTVN6icu_577UObjectE
0000000000004070 d __ZZN6icu_5720DecimalFormatSymbols10initializeERKNS_6LocaleER10UErrorCodeaE18gNumberElementKeys
0000000000004150 d __ZZN6icu_5720DecimalFormatSymbols10initializeERKNS_6LocaleER10UErrorCodeaE5gLatn
0000000000004158 d __ZZN6icu_5720DecimalFormatSymbols10initializeERKNS_6LocaleER10UErrorCodeaE8gSymbols
0000000000005530 b __ZZN6icu_5720DecimalFormatSymbols16getStaticClassIDEvE7classID
0000000000003b80 T ___clang_call_terminate
                 U ___cxa_begin_catch
                 U ___gxx_personality_v0
                 U ___stack_chk_fail
                 U ___stack_chk_guard
                 U _memset
                 U _strcmp
                 U _strcpy
                 U _u_UCharsToChars_57
                 U _u_charDigitValue_57
                 U _ucurr_forLocale_57
                 U _uprv_getStaticCurrencyName_57
                 U _ures_close_57
                 U _ures_getByIndex_57
                 U _ures_getByKeyWithFallback_57
                 U _ures_getLocaleByType_57
                 U _ures_getSize_57
                 U _ures_getStringByIndex_57
                 U _ures_getStringByKeyWithFallback_57
                 U _ures_getStringByKey_57
                 U _ures_open_57
0000000000004030 s l__ZZN6icu_5720DecimalFormatSymbols10initializeERKNS_6LocaleER10UErrorCodeaE8keywords

libicui18n.a(digitlst.ao):
0000000000002ce0 s GCC_except_table0
0000000000002d38 s GCC_except_table31
0000000000002d64 s GCC_except_table32
0000000000002dc4 s GCC_except_table40
0000000000002e00 s GCC_except_table46
0000000000002e3c s GCC_except_table48
0000000000002e78 s GCC_except_table72
0000000000002e90 s GCC_except_table76
0000000000002ea8 s GCC_except_table79
0000000000002d0c s GCC_except_table9
                 U __Unwind_Resume
0000000000001870 t __ZL9U_FAILURE10UErrorCode
                 U __ZN6icu_5710CharString15getAppendBufferEiiRiR10UErrorCode
0000000000001890 T __ZN6icu_5710CharString5clearEv
                 U __ZN6icu_5710CharString6appendEPKciR10UErrorCode
                 U __ZN6icu_5711StringPieceC1EPKc
00000000000027d0 T __ZN6icu_5713DigitInterval27setMostSignificantExclusiveEi
0000000000002790 T __ZN6icu_5713DigitInterval28setLeastSignificantInclusiveEi
0000000000002cb0 T __ZN6icu_5715MaybeStackArrayIcLi33EE12releaseArrayEv
0000000000001380 T __ZN6icu_5715MaybeStackArrayIcLi33EEC1Ev
0000000000002c50 T __ZN6icu_5715MaybeStackArrayIcLi33EEC2Ev
0000000000001450 T __ZN6icu_5715MaybeStackArrayIcLi33EED1Ev
0000000000002c80 T __ZN6icu_5715MaybeStackArrayIcLi33EED2Ev
0000000000002b90 T __ZN6icu_5715MaybeStackArrayIcLi40EEixEl
0000000000002c10 T __ZN6icu_5724MaybeStackHeaderAndArrayI9decNumbercLi40EE13releaseMemoryEv
00000000000003d0 T __ZN6icu_5724MaybeStackHeaderAndArrayI9decNumbercLi40EE6resizeEii
00000000000000f0 T __ZN6icu_5724MaybeStackHeaderAndArrayI9decNumbercLi40EEC1Ev
0000000000002bb0 T __ZN6icu_5724MaybeStackHeaderAndArrayI9decNumbercLi40EEC2Ev
0000000000000180 T __ZN6icu_5724MaybeStackHeaderAndArrayI9decNumbercLi40EED1Ev
0000000000002be0 T __ZN6icu_5724MaybeStackHeaderAndArrayI9decNumbercLi40EED2Ev
00000000000004e0 T __ZN6icu_575MutexC1EP6UMutex
0000000000002b20 T __ZN6icu_575MutexC2EP6UMutex
0000000000000510 T __ZN6icu_575MutexD1Ev
0000000000002b50 T __ZN6icu_575MutexD2Ev
00000000000017b0 T __ZN6icu_579DigitList10getDecimalERNS_10CharStringER10UErrorCode
0000000000000880 T __ZN6icu_579DigitList11setPositiveEa
00000000000018d0 T __ZN6icu_579DigitList12fitsIntoLongEa
0000000000000990 T __ZN6icu_579DigitList12getDecimalAtEv
0000000000000910 T __ZN6icu_579DigitList12setDecimalAtEi
0000000000002aa0 T __ZN6icu_579DigitList12toScientificEii
0000000000001d30 T __ZN6icu_579DigitList13fitsIntoInt64Ea
0000000000000b80 T __ZN6icu_579DigitList13getDigitValueEi
00000000000008f0 T __ZN6icu_579DigitList13internalClearEv
0000000000002510 T __ZN6icu_579DigitList14ensureCapacityEiR10UErrorCode
00000000000028c0 T __ZN6icu_579DigitList15roundAtExponentEii
0000000000002660 T __ZN6icu_579DigitList15roundFixedPointEi
0000000000000790 T __ZN6icu_579DigitList15setRoundingModeENS_13DecimalFormat13ERoundingModeE
00000000000026f0 T __ZN6icu_579DigitList15toIntegralValueEv
0000000000000150 T __ZN6icu_579DigitList17internalSetDoubleEd
0000000000002af0 T __ZN6icu_579DigitList17shiftDecimalRightEi
0000000000000cd0 T __ZN6icu_579DigitList25getStrtodDecimalSeparatorEv
00000000000025f0 T __ZN6icu_579DigitList3divERKS0_R10UErrorCode
0000000000001c10 T __ZN6icu_579DigitList3setERKNS_11StringPieceER10UErrorCodej
00000000000022d0 T __ZN6icu_579DigitList3setEd
0000000000002070 T __ZN6icu_579DigitList3setEi
00000000000020b0 T __ZN6icu_579DigitList3setEx
0000000000002420 T __ZN6icu_579DigitList4multERKS0_R10UErrorCode
0000000000000710 T __ZN6icu_579DigitList4trimEv
0000000000000740 T __ZN6icu_579DigitList5clearEv
00000000000013a0 T __ZN6icu_579DigitList5roundEi
0000000000000bb0 T __ZN6icu_579DigitList6appendEc
00000000000006d0 T __ZN6icu_579DigitList6reduceEv
00000000000005f0 T __ZN6icu_579DigitList7compareERKS0_
0000000000001470 T __ZN6icu_579DigitList7getLongEv
0000000000000b40 T __ZN6icu_579DigitList8getDigitEi
0000000000001640 T __ZN6icu_579DigitList8getInt64Ev
0000000000002980 T __ZN6icu_579DigitList8quantizeERKS0_R10UErrorCode
0000000000000a20 T __ZN6icu_579DigitList8setCountEi
0000000000000af0 T __ZN6icu_579DigitList8setDigitEic
00000000000003a0 T __ZN6icu_579DigitListC1ERKS0_
00000000000001a0 T __ZN6icu_579DigitListC1Ev
0000000000000200 T __ZN6icu_579DigitListC2ERKS0_
0000000000000000 T __ZN6icu_579DigitListC2Ev
00000000000001e0 T __ZN6icu_579DigitListD1Ev
00000000000001c0 T __ZN6icu_579DigitListD2Ev
0000000000000280 T __ZN6icu_579DigitListaSERKS0_
0000000000002140 t __ZN6icu_57L12formatBase10ExPc
00000000000022b0 T __ZNK6icu_5711StringPiece4dataEv
0000000000002290 T __ZNK6icu_5711StringPiece6lengthEv
0000000000001430 T __ZNK6icu_5715MaybeStackArrayIcLi33EE8getAliasEv
0000000000000110 T __ZNK6icu_5724MaybeStackHeaderAndArrayI9decNumbercLi40EE11getCapacityEv
0000000000000130 T __ZNK6icu_5724MaybeStackHeaderAndArrayI9decNumbercLi40EE8getAliasEv
0000000000001310 T __ZNK6icu_579DigitList10isInfiniteEv
0000000000001340 T __ZNK6icu_579DigitList10isPositiveEv
0000000000002880 T __ZNK6icu_579DigitList14appendDigitsToERNS_10CharStringER10UErrorCode
0000000000001620 T __ZNK6icu_579DigitList16getUpperExponentEv
0000000000002810 T __ZNK6icu_579DigitList18getDigitByExponentEi
0000000000002730 T __ZNK6icu_579DigitList19getSmallestIntervalERNS_13DigitIntervalE
0000000000002a00 T __ZNK6icu_579DigitList21getScientificExponentEii
00000000000024f0 T __ZNK6icu_579DigitList6digitsEv
00000000000012a0 T __ZNK6icu_579DigitList6isZeroEv
0000000000000a70 T __ZNK6icu_579DigitList8getCountEv
0000000000000da0 T __ZNK6icu_579DigitList9getDoubleEv
0000000000000530 T __ZNK6icu_579DigitListeqERKS0_
                 U __ZSt9terminatev
0000000000004640 b __ZZN6icu_579DigitList25getStrtodDecimalSeparatorEvE8gDecimal
0000000000004641 b __ZZNK6icu_579DigitList9getDoubleEvE8gDecimal
0000000000002b80 T ___clang_call_terminate
                 U ___cxa_begin_catch
                 U ___gxx_personality_v0
                 U ___stack_chk_fail
                 U ___stack_chk_guard
                 U _memcpy
                 U _memmove
                 U _sprintf
                 U _strchr
                 U _strcpy
                 U _strtod
                 U _umtx_lock_57
                 U _umtx_unlock_57
                 U _uprv_decContextDefault_57
                 U _uprv_decContextGetRounding_57
                 U _uprv_decContextSetRounding_57
                 U _uprv_decNumberCompare_57
                 U _uprv_decNumberCopy_57
                 U _uprv_decNumberDivide_57
                 U _uprv_decNumberFromString_57
                 U _uprv_decNumberMultiply_57
                 U _uprv_decNumberPlus_57
                 U _uprv_decNumberQuantize_57
                 U _uprv_decNumberReduce_57
                 U _uprv_decNumberToInt32_57
                 U _uprv_decNumberToIntegralValue_57
                 U _uprv_decNumberToString_57
                 U _uprv_decNumberTrim_57
                 U _uprv_decNumberZero_57
                 U _uprv_free_57
                 U _uprv_isInfinite_57
                 U _uprv_isNegativeInfinity_57
                 U _uprv_malloc_57

libicui18n.a(fmtable_cnv.ao):
0000000000000218 s GCC_except_table0
                 U __Unwind_Resume
                 U __ZN6icu_5711Formattable4initEv
0000000000000170 T __ZN6icu_5711FormattableC1EPKc
0000000000000000 T __ZN6icu_5711FormattableC2EPKc
00000000000001e0 T __ZN6icu_5711ReplaceableC2Ev
                 U __ZN6icu_5713UnicodeStringC1EPKc
0000000000000150 T __ZN6icu_5713UnicodeStringC1Ev
00000000000001a0 T __ZN6icu_5713UnicodeStringC2Ev
                 U __ZN6icu_5713UnicodeStringD1Ev
                 U __ZN6icu_577UMemorydlEPv
                 U __ZN6icu_577UMemorynwEm
0000000000000130 T __ZN6icu_577UObjectC2Ev
                 U __ZN6icu_577UObjectD2Ev
                 U __ZTVN6icu_5711FormattableE
                 U __ZTVN6icu_5711ReplaceableE
                 U __ZTVN6icu_5713UnicodeStringE
                 U __ZTVN6icu_577UObjectE
                 U ___gxx_personality_v0

libicui18n.a(choicfmt.ao):
0000000000002248 s GCC_except_table10
0000000000002168 s GCC_except_table2
0000000000002284 s GCC_except_table26
00000000000021a4 s GCC_except_table4
00000000000021e0 s GCC_except_table6
00000000000022cc s GCC_except_table61
000000000000221c s GCC_except_table8
                 U __DefaultRuneLocale
                 U __Unwind_Resume
0000000000000a10 T __Z7isdigiti
0000000000001de0 T __Z9__isctypeim
0000000000001190 t __ZL9U_FAILURE10UErrorCode
0000000000001900 t __ZL9U_SUCCESS10UErrorCode
                 U __ZN6icu_5711Formattable9setDoubleEd
0000000000001680 T __ZN6icu_5711MessageImpl11jdkAposModeERKNS_14MessagePatternE
                 U __ZN6icu_5711MessageImpl33appendSubMessageWithoutSkipSyntaxERKNS_14MessagePatternEiRNS_13UnicodeStringE
0000000000001e90 T __ZN6icu_5711ReplaceableC2Ev
0000000000000ba0 T __ZN6icu_5712ChoiceFormat10setChoicesEPKdPKNS_13UnicodeStringEi
0000000000000c10 T __ZN6icu_5712ChoiceFormat10setChoicesEPKdPKaPKNS_13UnicodeStringEi
0000000000000c80 T __ZN6icu_5712ChoiceFormat10setChoicesEPKdPKaPKNS_13UnicodeStringEiR10UErrorCode
0000000000000a60 T __ZN6icu_5712ChoiceFormat12applyPatternERKNS_13UnicodeStringER10UErrorCode
0000000000000ad0 T __ZN6icu_5712ChoiceFormat12applyPatternERKNS_13UnicodeStringER11UParseErrorR10UErrorCode
0000000000001980 T __ZN6icu_5712ChoiceFormat13parseArgumentERKNS_14MessagePatternEiRKNS_13UnicodeStringERNS_13ParsePositionE
0000000000001560 T __ZN6icu_5712ChoiceFormat14findSubMessageERKNS_14MessagePatternEid
0000000000000000 T __ZN6icu_5712ChoiceFormat16getStaticClassIDEv
0000000000001b50 T __ZN6icu_5712ChoiceFormat25matchStringUntilLimitPartERKNS_14MessagePatternEiiRKNS_13UnicodeStringEi
0000000000000720 T __ZN6icu_5712ChoiceFormat4dtosEdRNS_13UnicodeStringE
0000000000000210 T __ZN6icu_5712ChoiceFormatC1EPKdPKNS_13UnicodeStringEi
0000000000000340 T __ZN6icu_5712ChoiceFormatC1EPKdPKaPKNS_13UnicodeStringEi
00000000000000f0 T __ZN6icu_5712ChoiceFormatC1ERKNS_13UnicodeStringER10UErrorCode
0000000000000530 T __ZN6icu_5712ChoiceFormatC1ERKNS_13UnicodeStringER11UParseErrorR10UErrorCode
0000000000000420 T __ZN6icu_5712ChoiceFormatC1ERKS0_
0000000000000120 T __ZN6icu_5712ChoiceFormatC2EPKdPKNS_13UnicodeStringEi
0000000000000250 T __ZN6icu_5712ChoiceFormatC2EPKdPKaPKNS_13UnicodeStringEi
0000000000000030 T __ZN6icu_5712ChoiceFormatC2ERKNS_13UnicodeStringER10UErrorCode
0000000000000450 T __ZN6icu_5712ChoiceFormatC2ERKNS_13UnicodeStringER11UParseErrorR10UErrorCode
0000000000000380 T __ZN6icu_5712ChoiceFormatC2ERKS0_
00000000000006f0 T __ZN6icu_5712ChoiceFormatD0Ev
00000000000006d0 T __ZN6icu_5712ChoiceFormatD1Ev
0000000000000680 T __ZN6icu_5712ChoiceFormatD2Ev
0000000000000600 T __ZN6icu_5712ChoiceFormataSERKS0_
                 U __ZN6icu_5712NumberFormat10setContextE15UDisplayContextR10UErrorCode
                 U __ZN6icu_5712NumberFormat10setLenientEa
                 U __ZN6icu_5712NumberFormat11setCurrencyEPKtR10UErrorCode
                 U __ZN6icu_5712NumberFormat15setGroupingUsedEa
                 U __ZN6icu_5712NumberFormat19setParseIntegerOnlyEa
                 U __ZN6icu_5712NumberFormat23setMaximumIntegerDigitsEi
                 U __ZN6icu_5712NumberFormat23setMinimumIntegerDigitsEi
                 U __ZN6icu_5712NumberFormat24setMaximumFractionDigitsEi
                 U __ZN6icu_5712NumberFormat24setMinimumFractionDigitsEi
                 U __ZN6icu_5712NumberFormatC2ERKS0_
                 U __ZN6icu_5712NumberFormatC2Ev
                 U __ZN6icu_5712NumberFormatD2Ev
                 U __ZN6icu_5712NumberFormataSERKS0_
0000000000001c60 T __ZN6icu_5713ParsePosition13setErrorIndexEi
0000000000001c80 T __ZN6icu_5713ParsePosition8setIndexEi
0000000000001750 T __ZN6icu_5713UnicodeString6appendERKS0_ii
00000000000012d0 T __ZN6icu_5713UnicodeString6appendEt
                 U __ZN6icu_5713UnicodeString8doAppendEPKtii
                 U __ZN6icu_5713UnicodeString8doAppendERKS0_ii
                 U __ZN6icu_5713UnicodeString8moveFromERS0_
                 U __ZN6icu_5713UnicodeStringC1EPKciNS0_10EInvariantE
00000000000011b0 T __ZN6icu_5713UnicodeStringC1Ev
0000000000001e50 T __ZN6icu_5713UnicodeStringC2Ev
                 U __ZN6icu_5713UnicodeStringD1Ev
0000000000000a30 T __ZN6icu_5713UnicodeStringaSEOS0_
                 U __ZN6icu_5713UnicodeStringaSERKS0_
0000000000001200 T __ZN6icu_5713UnicodeStringpLERKS0_
00000000000011d0 T __ZN6icu_5713UnicodeStringpLEt
                 U __ZN6icu_5714MessagePattern16parseChoiceStyleERKNS_13UnicodeStringEP11UParseErrorR10UErrorCode
                 U __ZN6icu_5714MessagePatternC1ER10UErrorCode
                 U __ZN6icu_5714MessagePatternC1ERKS0_
                 U __ZN6icu_5714MessagePatternD1Ev
                 U __ZN6icu_5714MessagePatternaSERKS0_
                 U __ZN6icu_577UMemorydlEPv
                 U __ZN6icu_577UMemorynwEm
0000000000001ed0 T __ZN6icu_577UObjectC2Ev
                 U __ZNK6icu_5711Formattable9getDoubleER10UErrorCode
0000000000001340 T __ZNK6icu_5712ChoiceFormat10getFormatsERi
0000000000001320 T __ZNK6icu_5712ChoiceFormat11getClosuresERi
0000000000000010 T __ZNK6icu_5712ChoiceFormat17getDynamicClassIDEv
0000000000001d10 T __ZNK6icu_5712ChoiceFormat5cloneEv
0000000000001920 T __ZNK6icu_5712ChoiceFormat5parseERKNS_13UnicodeStringERNS_11FormattableERNS_13ParsePositionE
00000000000017f0 T __ZNK6icu_5712ChoiceFormat6formatEPKNS_11FormattableEiRNS_13UnicodeStringERNS_13FieldPositionER10UErrorCode
0000000000001400 T __ZNK6icu_5712ChoiceFormat6formatEdRNS_13UnicodeStringERNS_13FieldPositionE
00000000000013b0 T __ZNK6icu_5712ChoiceFormat6formatEiRNS_13UnicodeStringERNS_13FieldPositionE
0000000000001360 T __ZNK6icu_5712ChoiceFormat6formatExRNS_13UnicodeStringERNS_13FieldPositionE
0000000000001300 T __ZNK6icu_5712ChoiceFormat9getLimitsERi
0000000000000b40 T __ZNK6icu_5712ChoiceFormat9toPatternERNS_13UnicodeStringE
0000000000000570 T __ZNK6icu_5712ChoiceFormateqERKNS_6FormatE
                 U __ZNK6icu_5712NumberFormat10getContextE19UDisplayContextTypeR10UErrorCode
                 U __ZNK6icu_5712NumberFormat11parseObjectERKNS_13UnicodeStringERNS_11FormattableERNS_13ParsePositionE
                 U __ZNK6icu_5712NumberFormat13parseCurrencyERKNS_13UnicodeStringERNS_13ParsePositionE
                 U __ZNK6icu_5712NumberFormat20getEffectiveCurrencyEPtR10UErrorCode
                 U __ZNK6icu_5712NumberFormat5parseERKNS_13UnicodeStringERNS_11FormattableER10UErrorCode
                 U __ZNK6icu_5712NumberFormat6formatERKNS_11FormattableERNS_13UnicodeStringEPNS_21FieldPositionIteratorER10UErrorCode
                 U __ZNK6icu_5712NumberFormat6formatERKNS_11FormattableERNS_13UnicodeStringERNS_13FieldPositionER10UErrorCode
                 U __ZNK6icu_5712NumberFormat6formatERKNS_11StringPieceERNS_13UnicodeStringEPNS_21FieldPositionIteratorER10UErrorCode
                 U __ZNK6icu_5712NumberFormat6formatERKNS_9DigitListERNS_13UnicodeStringEPNS_21FieldPositionIteratorER10UErrorCode
                 U __ZNK6icu_5712NumberFormat6formatERKNS_9DigitListERNS_13UnicodeStringERNS_13FieldPositionER10UErrorCode
                 U __ZNK6icu_5712NumberFormat6formatEdRNS_13UnicodeStringEPNS_21FieldPositionIteratorER10UErrorCode
                 U __ZNK6icu_5712NumberFormat6formatEdRNS_13UnicodeStringERNS_13FieldPositionER10UErrorCode
                 U __ZNK6icu_5712NumberFormat6formatEiRNS_13UnicodeStringEPNS_21FieldPositionIteratorER10UErrorCode
                 U __ZNK6icu_5712NumberFormat6formatEiRNS_13UnicodeStringERNS_13FieldPositionER10UErrorCode
                 U __ZNK6icu_5712NumberFormat6formatExRNS_13UnicodeStringEPNS_21FieldPositionIteratorER10UErrorCode
                 U __ZNK6icu_5712NumberFormat6formatExRNS_13UnicodeStringERNS_13FieldPositionER10UErrorCode
0000000000001dc0 T __ZNK6icu_5712NumberFormat9isLenientEv
                 U __ZNK6icu_5712NumberFormateqERKNS_6FormatE
0000000000001b00 T __ZNK6icu_5713ParsePosition8getIndexEv
00000000000020c0 T __ZNK6icu_5713UnicodeString10pinIndicesERiS1_
0000000000001f90 T __ZNK6icu_5713UnicodeString13getArrayStartEv
0000000000001f10 T __ZNK6icu_5713UnicodeString14getShortLengthEv
0000000000001ef0 T __ZNK6icu_5713UnicodeString14hasShortLengthEv
00000000000017c0 T __ZNK6icu_5713UnicodeString6charAtEi
0000000000001250 T __ZNK6icu_5713UnicodeString6lengthEv
0000000000001cc0 T __ZNK6icu_5713UnicodeString7compareEiiRKS0_ii
00000000000020a0 T __ZNK6icu_5713UnicodeString7isBogusEv
0000000000001f30 T __ZNK6icu_5713UnicodeString8doCharAtEi
                 U __ZNK6icu_5713UnicodeString9doCompareEiiPKtii
0000000000002000 T __ZNK6icu_5713UnicodeString9doCompareEiiRKS0_ii
00000000000012a0 T __ZNK6icu_5713UnicodeStringixEi
0000000000001540 T __ZNK6icu_5714MessagePattern10countPartsEv
0000000000001b20 T __ZNK6icu_5714MessagePattern11getPartTypeEi
                 U __ZNK6icu_5714MessagePattern15getNumericValueERKNS0_4PartE
0000000000001780 T __ZNK6icu_5714MessagePattern15getPatternIndexEi
0000000000000b80 T __ZNK6icu_5714MessagePattern16getPatternStringEv
0000000000001fe0 T __ZNK6icu_5714MessagePattern17getApostropheModeEv
0000000000001700 T __ZNK6icu_5714MessagePattern17getLimitPartIndexEi
00000000000017b0 T __ZNK6icu_5714MessagePattern4Part7getTypeEv
0000000000001ca0 T __ZNK6icu_5714MessagePattern4Part8getIndexEv
00000000000016e0 T __ZNK6icu_5714MessagePattern4Part8getLimitEv
00000000000016b0 T __ZNK6icu_5714MessagePattern7getPartEi
                 U __ZNK6icu_5714MessagePatterneqERKS0_
0000000000002470 S __ZTIN6icu_5712ChoiceFormatE
                 U __ZTIN6icu_5712NumberFormatE
0000000000002490 S __ZTSN6icu_5712ChoiceFormatE
                 U __ZTVN10__cxxabiv120__si_class_type_infoE
                 U __ZTVN6icu_5711ReplaceableE
00000000000022f0 S __ZTVN6icu_5712ChoiceFormatE
                 U __ZTVN6icu_5713UnicodeStringE
                 U __ZTVN6icu_577UObjectE
0000000000003a30 b __ZZN6icu_5712ChoiceFormat16getStaticClassIDEvE7classID
                 U ___gxx_personality_v0
                 U ___stack_chk_fail
                 U ___stack_chk_guard
                 U _sprintf
                 U _uprv_getNaN_57
                 U _uprv_isNegativeInfinity_57
                 U _uprv_isPositiveInfinity_57

libicui18n.a(datefmt.ao):
0000000000003900 s GCC_except_table10
0000000000003b78 s GCC_except_table106
0000000000003ba4 s GCC_except_table112
0000000000003bd0 s GCC_except_table128
0000000000003bf0 s GCC_except_table130
0000000000003c10 s GCC_except_table145
000000000000393c s GCC_except_table29
0000000000003968 s GCC_except_table36
0000000000003994 s GCC_except_table42
00000000000039e8 s GCC_except_table44
0000000000003a24 s GCC_except_table49
0000000000003a50 s GCC_except_table52
00000000000038d4 s GCC_except_table8
0000000000003a8c s GCC_except_table81
0000000000003aac s GCC_except_table83
0000000000003b00 s GCC_except_table90
0000000000003b2c s GCC_except_table91
0000000000003b58 s GCC_except_table97
                 U __Unwind_Resume
0000000000000790 t __ZL9U_FAILURE10UErrorCode
0000000000000b50 t __ZL9U_SUCCESS10UErrorCode
0000000000001fb0 T __ZN6icu_5710DateFormat10setContextE15UDisplayContextR10UErrorCode
0000000000001dc0 T __ZN6icu_5710DateFormat10setLenientEa
0000000000001b90 T __ZN6icu_5710DateFormat11setCalendarERKNS_8CalendarE
0000000000001d30 T __ZN6icu_5710DateFormat11setTimeZoneERKNS_8TimeZoneE
0000000000001b40 T __ZN6icu_5710DateFormat13adoptCalendarEPNS_8CalendarE
0000000000001cf0 T __ZN6icu_5710DateFormat13adoptTimeZoneEPNS_8TimeZoneE
0000000000001320 T __ZN6icu_5710DateFormat14createInstanceEv
0000000000001340 T __ZN6icu_5710DateFormat14getBestPatternERKNS_6LocaleERKNS_13UnicodeStringER10UErrorCode
0000000000001c70 T __ZN6icu_5710DateFormat15setNumberFormatERKNS_12NumberFormatE
0000000000001c00 T __ZN6icu_5710DateFormat17adoptNumberFormatEPNS_12NumberFormatE
0000000000000fd0 T __ZN6icu_5710DateFormat18createDateInstanceENS0_6EStyleERKNS_6LocaleE
0000000000000f60 T __ZN6icu_5710DateFormat18createTimeInstanceENS0_6EStyleERKNS_6LocaleE
0000000000001f10 T __ZN6icu_5710DateFormat18setCalendarLenientEa
0000000000001b20 T __ZN6icu_5710DateFormat19getAvailableLocalesERi
0000000000002090 T __ZN6icu_5710DateFormat19setBooleanAttributeE27UDateFormatBooleanAttributeaR10UErrorCode
0000000000000f90 T __ZN6icu_5710DateFormat22createDateTimeInstanceENS0_6EStyleES1_RKNS_6LocaleE
0000000000001620 T __ZN6icu_5710DateFormat25createInstanceForSkeletonEPNS_8CalendarERKNS_13UnicodeStringERKNS_6LocaleER10UErrorCode
0000000000001ae0 T __ZN6icu_5710DateFormat25createInstanceForSkeletonERKNS_13UnicodeStringER10UErrorCode
00000000000017e0 T __ZN6icu_5710DateFormat25createInstanceForSkeletonERKNS_13UnicodeStringERKNS_6LocaleER10UErrorCode
0000000000001000 T __ZN6icu_5710DateFormat6createENS0_6EStyleES1_RKNS_6LocaleE
0000000000000260 T __ZN6icu_5710DateFormatC2ERKS0_
00000000000001b0 T __ZN6icu_5710DateFormatC2Ev
0000000000000550 T __ZN6icu_5710DateFormatD0Ev
0000000000000540 T __ZN6icu_5710DateFormatD1Ev
00000000000004b0 T __ZN6icu_5710DateFormatD2Ev
0000000000000330 T __ZN6icu_5710DateFormataSERKS0_
                 U __ZN6icu_5711Formattable7setDateEd
0000000000002840 T __ZN6icu_5711ReplaceableC2Ev
0000000000002e10 T __ZN6icu_5712CacheKeyBaseC2ERKS0_
0000000000002b90 T __ZN6icu_5712CacheKeyBaseC2Ev
                 U __ZN6icu_5712CacheKeyBaseD2Ev
0000000000001a70 T __ZN6icu_5712LocalPointerINS_10DateFormatEEC1EPS1_R10UErrorCode
0000000000003780 T __ZN6icu_5712LocalPointerINS_10DateFormatEEC2EPS1_R10UErrorCode
0000000000001ac0 T __ZN6icu_5712LocalPointerINS_10DateFormatEED1Ev
0000000000003850 T __ZN6icu_5712LocalPointerINS_10DateFormatEED2Ev
0000000000003140 T __ZN6icu_5712LocalPointerINS_18DateFmtBestPatternEEC1EPS1_R10UErrorCode
00000000000033a0 T __ZN6icu_5712LocalPointerINS_18DateFmtBestPatternEEC2EPS1_R10UErrorCode
00000000000031b0 T __ZN6icu_5712LocalPointerINS_18DateFmtBestPatternEED1Ev
0000000000003470 T __ZN6icu_5712LocalPointerINS_18DateFmtBestPatternEED2Ev
00000000000030c0 T __ZN6icu_5712LocalPointerINS_24DateTimePatternGeneratorEEC1EPS1_
00000000000031f0 T __ZN6icu_5712LocalPointerINS_24DateTimePatternGeneratorEEC2EPS1_
00000000000031d0 T __ZN6icu_5712LocalPointerINS_24DateTimePatternGeneratorEED1Ev
00000000000034c0 T __ZN6icu_5712LocalPointerINS_24DateTimePatternGeneratorEED2Ev
0000000000001790 T __ZN6icu_5712LocalPointerINS_8CalendarEEC1EPS1_
00000000000036d0 T __ZN6icu_5712LocalPointerINS_8CalendarEEC2EPS1_
0000000000001a50 T __ZN6icu_5712LocalPointerINS_8CalendarEED1Ev
0000000000003720 T __ZN6icu_5712LocalPointerINS_8CalendarEED2Ev
0000000000003620 T __ZN6icu_5712SharedObject7copyPtrINS_18DateFmtBestPatternEEEvPKT_RS5_
0000000000003690 T __ZN6icu_5712SharedObject8clearPtrINS_18DateFmtBestPatternEEEvRPKT_
00000000000032b0 T __ZN6icu_5712SharedObjectC2Ev
                 U __ZN6icu_5712SharedObjectD2Ev
                 U __ZN6icu_5712UnifiedCache11getInstanceER10UErrorCode
0000000000000c20 T __ZN6icu_5713FieldPositionC1Ei
0000000000002700 T __ZN6icu_5713FieldPositionC2Ei
                 U __ZN6icu_5713FieldPositionD1Ev
0000000000000df0 T __ZN6icu_5713ParsePosition13setErrorIndexEi
0000000000000dd0 T __ZN6icu_5713ParsePosition8setIndexEi
0000000000000ef0 T __ZN6icu_5713ParsePositionC1Ei
0000000000002790 T __ZN6icu_5713ParsePositionC2Ei
                 U __ZN6icu_5713ParsePositionD1Ev
                 U __ZN6icu_5713UnicodeStringC1EOS0_
                 U __ZN6icu_5713UnicodeStringC1ERKS0_
0000000000001550 T __ZN6icu_5713UnicodeStringC1Ev
0000000000002800 T __ZN6icu_5713UnicodeStringC2Ev
                 U __ZN6icu_5713UnicodeStringD1Ev
0000000000002d20 T __ZN6icu_5714LocaleCacheKeyINS_18DateFmtBestPatternEEC1ERKS2_
0000000000002900 T __ZN6icu_5714LocaleCacheKeyINS_18DateFmtBestPatternEEC2ERKNS_6LocaleE
0000000000002d50 T __ZN6icu_5714LocaleCacheKeyINS_18DateFmtBestPatternEEC2ERKS2_
00000000000029f0 T __ZN6icu_5714LocaleCacheKeyINS_18DateFmtBestPatternEED0Ev
00000000000029d0 T __ZN6icu_5714LocaleCacheKeyINS_18DateFmtBestPatternEED1Ev
0000000000000110 T __ZN6icu_5714LocaleCacheKeyINS_18DateFmtBestPatternEED2Ev
0000000000001aa0 T __ZN6icu_5716LocalPointerBaseINS_10DateFormatEE6orphanEv
0000000000003820 T __ZN6icu_5716LocalPointerBaseINS_10DateFormatEEC2EPS1_
0000000000003840 T __ZN6icu_5716LocalPointerBaseINS_10DateFormatEED2Ev
0000000000003170 T __ZN6icu_5716LocalPointerBaseINS_18DateFmtBestPatternEE6orphanEv
0000000000003440 T __ZN6icu_5716LocalPointerBaseINS_18DateFmtBestPatternEEC2EPS1_
0000000000003460 T __ZN6icu_5716LocalPointerBaseINS_18DateFmtBestPatternEED2Ev
0000000000003220 T __ZN6icu_5716LocalPointerBaseINS_24DateTimePatternGeneratorEEC2EPS1_
0000000000003510 T __ZN6icu_5716LocalPointerBaseINS_24DateTimePatternGeneratorEED2Ev
0000000000001a30 T __ZN6icu_5716LocalPointerBaseINS_8CalendarEE6orphanEv
0000000000003700 T __ZN6icu_5716LocalPointerBaseINS_8CalendarEEC2EPS1_
0000000000003770 T __ZN6icu_5716LocalPointerBaseINS_8CalendarEED2Ev
                 U __ZN6icu_5716SimpleDateFormatC1ENS_10DateFormat6EStyleES2_RKNS_6LocaleER10UErrorCode
                 U __ZN6icu_5716SimpleDateFormatC1ERKNS_13UnicodeStringERKNS_6LocaleER10UErrorCode
                 U __ZN6icu_5716SimpleDateFormatC1ERKNS_6LocaleER10UErrorCode
0000000000003110 T __ZN6icu_5718DateFmtBestPatternC1ERKNS_13UnicodeStringE
0000000000003240 T __ZN6icu_5718DateFmtBestPatternC2ERKNS_13UnicodeStringE
0000000000000070 T __ZN6icu_5718DateFmtBestPatternD0Ev
0000000000000050 T __ZN6icu_5718DateFmtBestPatternD1Ev
0000000000000000 T __ZN6icu_5718DateFmtBestPatternD2Ev
                 U __ZN6icu_5718RelativeDateFormatC1E16UDateFormatStyleS1_RKNS_6LocaleER10UErrorCode
0000000000001570 T __ZN6icu_5721DateFmtBestPatternKeyC1ERKNS_6LocaleERKNS_13UnicodeStringER10UErrorCode
0000000000002ea0 T __ZN6icu_5721DateFmtBestPatternKeyC1ERKS0_
0000000000002880 T __ZN6icu_5721DateFmtBestPatternKeyC2ERKNS_6LocaleERKNS_13UnicodeStringER10UErrorCode
0000000000002ed0 T __ZN6icu_5721DateFmtBestPatternKeyC2ERKS0_
0000000000000180 T __ZN6icu_5721DateFmtBestPatternKeyD0Ev
0000000000000160 T __ZN6icu_5721DateFmtBestPatternKeyD1Ev
00000000000000c0 T __ZN6icu_5721DateFmtBestPatternKeyD2Ev
                 U __ZN6icu_5724DateTimePatternGenerator14createInstanceERKNS_6LocaleER10UErrorCode
                 U __ZN6icu_5724DateTimePatternGenerator14getBestPatternERKNS_13UnicodeStringER10UErrorCode
                 U __ZN6icu_5724DateTimePatternGenerator17staticGetSkeletonERKNS_13UnicodeStringER10UErrorCode
                 U __ZN6icu_576FormatC2ERKS0_
                 U __ZN6icu_576FormatC2Ev
                 U __ZN6icu_576FormatD2Ev
                 U __ZN6icu_576Locale10getDefaultEv
                 U __ZN6icu_576Locale19getAvailableLocalesERi
                 U __ZN6icu_576LocaleC1ERKS0_
                 U __ZN6icu_576LocaleD1Ev
0000000000002130 T __ZN6icu_577EnumSetI27UDateFormatBooleanAttributeLj0ELj4EE3setES1_i
0000000000000240 T __ZN6icu_577EnumSetI27UDateFormatBooleanAttributeLj0ELj4EEC1Ev
0000000000003520 T __ZN6icu_577EnumSetI27UDateFormatBooleanAttributeLj0ELj4EEC2Ev
0000000000000470 T __ZN6icu_577EnumSetI27UDateFormatBooleanAttributeLj0ELj4EED1Ev
0000000000003540 T __ZN6icu_577EnumSetI27UDateFormatBooleanAttributeLj0ELj4EED2Ev
0000000000000490 T __ZN6icu_577EnumSetI27UDateFormatBooleanAttributeLj0ELj4EEaSERKS2_
                 U __ZN6icu_577UMemorydlEPv
                 U __ZN6icu_577UMemorynwEm
0000000000002e60 T __ZN6icu_577UObjectC2ERKS0_
0000000000002770 T __ZN6icu_577UObjectC2Ev
0000000000002dd0 T __ZN6icu_578CacheKeyINS_18DateFmtBestPatternEEC2ERKS2_
0000000000002970 T __ZN6icu_578CacheKeyINS_18DateFmtBestPatternEEC2Ev
0000000000002bf0 T __ZN6icu_578CacheKeyINS_18DateFmtBestPatternEED0Ev
0000000000002be0 T __ZN6icu_578CacheKeyINS_18DateFmtBestPatternEED1Ev
00000000000029b0 T __ZN6icu_578CacheKeyINS_18DateFmtBestPatternEED2Ev
                 U __ZN6icu_578Calendar10setLenientEa
                 U __ZN6icu_578Calendar11setTimeZoneERKNS_8TimeZoneE
                 U __ZN6icu_578Calendar13adoptTimeZoneEPNS_8TimeZoneE
                 U __ZN6icu_578Calendar15setTimeInMillisEdR10UErrorCode
                 U __ZN6icu_578Calendar5clearEv
0000000000000b70 T __ZN6icu_578Calendar7setTimeEdR10UErrorCode
                 U __ZN6icu_578TimeZone13createDefaultEv
0000000000002020 T __ZNK6icu_5710DateFormat10getContextE19UDisplayContextTypeR10UErrorCode
0000000000001be0 T __ZNK6icu_5710DateFormat11getCalendarEv
0000000000001d70 T __ZNK6icu_5710DateFormat11getTimeZoneEv
0000000000000f20 T __ZNK6icu_5710DateFormat11parseObjectERKNS_13UnicodeStringERNS_11FormattableERNS_13ParsePositionE
0000000000001cd0 T __ZNK6icu_5710DateFormat15getNumberFormatEv
0000000000001f60 T __ZNK6icu_5710DateFormat17isCalendarLenientEv
00000000000021a0 T __ZNK6icu_5710DateFormat19getBooleanAttributeE27UDateFormatBooleanAttributeR10UErrorCode
0000000000000e10 T __ZNK6icu_5710DateFormat5parseERKNS_13UnicodeStringER10UErrorCode
0000000000000c50 T __ZNK6icu_5710DateFormat5parseERKNS_13UnicodeStringERNS_13ParsePositionE
0000000000000900 T __ZNK6icu_5710DateFormat6formatERKNS_11FormattableERNS_13UnicodeStringEPNS_21FieldPositionIteratorER10UErrorCode
0000000000000680 T __ZNK6icu_5710DateFormat6formatERKNS_11FormattableERNS_13UnicodeStringERNS_13FieldPositionER10UErrorCode
0000000000000b00 T __ZNK6icu_5710DateFormat6formatERNS_8CalendarERNS_13UnicodeStringEPNS_21FieldPositionIteratorER10UErrorCode
0000000000000ba0 T __ZNK6icu_5710DateFormat6formatEdRNS_13UnicodeStringE
0000000000000a10 T __ZNK6icu_5710DateFormat6formatEdRNS_13UnicodeStringEPNS_21FieldPositionIteratorER10UErrorCode
0000000000000810 T __ZNK6icu_5710DateFormat6formatEdRNS_13UnicodeStringERNS_13FieldPositionE
0000000000001e60 T __ZNK6icu_5710DateFormat9isLenientEv
0000000000000560 T __ZNK6icu_5710DateFormateqERKNS_6FormatE
00000000000007b0 T __ZNK6icu_5711Formattable7getDateEv
00000000000007f0 T __ZNK6icu_5711Formattable7getLongEv
                 U __ZNK6icu_5711Formattable7getTypeEv
00000000000007d0 T __ZNK6icu_5711Formattable9getDoubleEv
                 U __ZNK6icu_5712SharedObject6addRefEa
0000000000003190 T __ZNK6icu_5712SharedObject6addRefEv
                 U __ZNK6icu_5712SharedObject9removeRefEa
0000000000001600 T __ZNK6icu_5712SharedObject9removeRefEv
0000000000003550 T __ZNK6icu_5712UnifiedCache3getINS_18DateFmtBestPatternEEEvRKNS_8CacheKeyIT_EEPKvRPKS4_R10UErrorCode
00000000000015b0 T __ZNK6icu_5712UnifiedCache3getINS_18DateFmtBestPatternEEEvRKNS_8CacheKeyIT_EERPKS4_R10UErrorCode
                 U __ZNK6icu_5712UnifiedCache4_getERKNS_12CacheKeyBaseERPKNS_12SharedObjectEPKvR10UErrorCode
0000000000000d80 T __ZNK6icu_5713ParsePosition8getIndexEv
                 U __ZNK6icu_5713UnicodeString10doHashCodeEv
00000000000030a0 T __ZNK6icu_5713UnicodeString14getShortLengthEv
0000000000003080 T __ZNK6icu_5713UnicodeString14hasShortLengthEv
0000000000003030 T __ZNK6icu_5713UnicodeString6lengthEv
0000000000003010 T __ZNK6icu_5713UnicodeString7isBogusEv
                 U __ZNK6icu_5713UnicodeString8doEqualsERKS0_i
0000000000002e80 T __ZNK6icu_5713UnicodeString8hashCodeEv
0000000000002f60 T __ZNK6icu_5713UnicodeStringeqERKS0_
00000000000000a0 T __ZNK6icu_5714LocaleCacheKeyINS_18DateFmtBestPatternEE12createObjectEPKvR10UErrorCode
00000000000026a0 T __ZNK6icu_5714LocaleCacheKeyINS_18DateFmtBestPatternEE16writeDescriptionEPci
0000000000002a60 T __ZNK6icu_5714LocaleCacheKeyINS_18DateFmtBestPatternEE5cloneEv
0000000000002a20 T __ZNK6icu_5714LocaleCacheKeyINS_18DateFmtBestPatternEE8hashCodeEv
0000000000002b10 T __ZNK6icu_5714LocaleCacheKeyINS_18DateFmtBestPatternEEeqERKNS_12CacheKeyBaseE
00000000000030f0 T __ZNK6icu_5716LocalPointerBaseINS_24DateTimePatternGeneratorEEptEv
00000000000017c0 T __ZNK6icu_5716LocalPointerBaseINS_8CalendarEE6isNullEv
00000000000023b0 T __ZNK6icu_5721DateFmtBestPatternKey12createObjectEPKvR10UErrorCode
0000000000002270 T __ZNK6icu_5721DateFmtBestPatternKey5cloneEv
0000000000002220 T __ZNK6icu_5721DateFmtBestPatternKey8hashCodeEv
0000000000002320 T __ZNK6icu_5721DateFmtBestPatternKeyeqERKNS_12CacheKeyBaseE
                 U __ZNK6icu_576FormateqERKS0_
00000000000038c0 T __ZNK6icu_576Locale7getNameEv
                 U __ZNK6icu_576Locale8hashCodeEv
                 U __ZNK6icu_576LocaleeqERKS0_
0000000000002100 T __ZNK6icu_577EnumSetI27UDateFormatBooleanAttributeLj0ELj4EE12isValidValueEi
00000000000021e0 T __ZNK6icu_577EnumSetI27UDateFormatBooleanAttributeLj0ELj4EE3getES1_
00000000000038a0 T __ZNK6icu_577EnumSetI27UDateFormatBooleanAttributeLj0ELj4EE4flagES1_
                 U __ZNK6icu_577UObject17getDynamicClassIDEv
0000000000002cc0 T __ZNK6icu_578CacheKeyINS_18DateFmtBestPatternEE16writeDescriptionEPci
0000000000002c00 T __ZNK6icu_578CacheKeyINS_18DateFmtBestPatternEE8hashCodeEv
0000000000002c50 T __ZNK6icu_578CacheKeyINS_18DateFmtBestPatternEEeqERKNS_12CacheKeyBaseE
                 U __ZNK6icu_578Calendar11getTimeZoneEv
                 U __ZNK6icu_578Calendar15getTimeInMillisER10UErrorCode
0000000000000da0 T __ZNK6icu_578Calendar7getTimeER10UErrorCode
                 U __ZNK6icu_578Calendar9isLenientEv
0000000000003de0 S __ZTIN6icu_5710DateFormatE
                 U __ZTIN6icu_5712CacheKeyBaseE
                 U __ZTIN6icu_5712SharedObjectE
0000000000003f00 D __ZTIN6icu_5714LocaleCacheKeyINS_18DateFmtBestPatternEEE
0000000000003da0 S __ZTIN6icu_5718DateFmtBestPatternE
0000000000003dc0 S __ZTIN6icu_5721DateFmtBestPatternKeyE
                 U __ZTIN6icu_576FormatE
0000000000003ee0 D __ZTIN6icu_578CacheKeyINS_18DateFmtBestPatternEEE
0000000000003ec0 S __ZTSN6icu_5710DateFormatE
0000000000003e50 S __ZTSN6icu_5714LocaleCacheKeyINS_18DateFmtBestPatternEEE
0000000000003e00 S __ZTSN6icu_5718DateFmtBestPatternE
0000000000003e20 S __ZTSN6icu_5721DateFmtBestPatternKeyE
0000000000003e90 S __ZTSN6icu_578CacheKeyINS_18DateFmtBestPatternEEE
                 U __ZTVN10__cxxabiv120__si_class_type_infoE
0000000000003ca8 S __ZTVN6icu_5710DateFormatE
                 U __ZTVN6icu_5711ReplaceableE
                 U __ZTVN6icu_5712CacheKeyBaseE
                 U __ZTVN6icu_5712SharedObjectE
                 U __ZTVN6icu_5713FieldPositionE
                 U __ZTVN6icu_5713ParsePositionE
                 U __ZTVN6icu_5713UnicodeStringE
0000000000003f18 D __ZTVN6icu_5714LocaleCacheKeyINS_18DateFmtBestPatternEEE
0000000000003c30 S __ZTVN6icu_5718DateFmtBestPatternE
0000000000003c58 S __ZTVN6icu_5721DateFmtBestPatternKeyE
                 U __ZTVN6icu_577UObjectE
0000000000003f68 D __ZTVN6icu_578CacheKeyINS_18DateFmtBestPatternEEE
                 U ___cxa_bad_typeid
                 U ___cxa_pure_virtual
                 U ___gxx_personality_v0
                 U ___stack_chk_fail
                 U ___stack_chk_guard
                 U _memset
                 U _strlen
                 U _strncpy
                 U _ustr_hashCharsN_57

libicui18n.a(smpdtfmt.ao):
000000000001259c s GCC_except_table100
00000000000125c8 s GCC_except_table107
0000000000012688 s GCC_except_table110
0000000000012704 s GCC_except_table111
0000000000012730 s GCC_except_table113
000000000001275c s GCC_except_table116
00000000000127bc s GCC_except_table121
00000000000127e8 s GCC_except_table124
0000000000012830 s GCC_except_table129
0000000000011e88 s GCC_except_table13
000000000001285c s GCC_except_table131
0000000000012888 s GCC_except_table134
00000000000128b4 s GCC_except_table137
00000000000128e0 s GCC_except_table138
0000000000012928 s GCC_except_table150
0000000000012954 s GCC_except_table151
0000000000011ee8 s GCC_except_table16
0000000000011f58 s GCC_except_table19
0000000000011e3c s GCC_except_table2
0000000000011fb8 s GCC_except_table23
0000000000012018 s GCC_except_table25
00000000000120bc s GCC_except_table27
000000000001211c s GCC_except_table29
000000000001217c s GCC_except_table31
00000000000121dc s GCC_except_table33
000000000001224c s GCC_except_table35
00000000000122ac s GCC_except_table38
0000000000012338 s GCC_except_table41
0000000000012398 s GCC_except_table42
00000000000123c4 s GCC_except_table47
00000000000123e4 s GCC_except_table56
0000000000012410 s GCC_except_table57
000000000001243c s GCC_except_table58
0000000000012468 s GCC_except_table63
0000000000012518 s GCC_except_table85
0000000000012544 s GCC_except_table88
0000000000011e54 s GCC_except_table9
0000000000012570 s GCC_except_table98
                 U __Unwind_Resume
0000000000003660 t __ZL9U_FAILURE10UErrorCode
0000000000003270 t __ZL9U_SUCCESS10UErrorCode
                 U __ZN6icu_5710DateFormat10setContextE15UDisplayContextR10UErrorCode
                 U __ZN6icu_5710DateFormat10setLenientEa
                 U __ZN6icu_5710DateFormat11setCalendarERKNS_8CalendarE
                 U __ZN6icu_5710DateFormat11setTimeZoneERKNS_8TimeZoneE
                 U __ZN6icu_5710DateFormat13adoptCalendarEPNS_8CalendarE
                 U __ZN6icu_5710DateFormat13adoptTimeZoneEPNS_8TimeZoneE
                 U __ZN6icu_5710DateFormat15setNumberFormatERKNS_12NumberFormatE
                 U __ZN6icu_5710DateFormat18setCalendarLenientEa
                 U __ZN6icu_5710DateFormat19setBooleanAttributeE27UDateFormatBooleanAttributeaR10UErrorCode
                 U __ZN6icu_5710DateFormatC2ERKS0_
                 U __ZN6icu_5710DateFormatC2Ev
                 U __ZN6icu_5710DateFormatD2Ev
                 U __ZN6icu_5710DateFormataSERKS0_
                 U __ZN6icu_5711Formattable7setLongEi
                 U __ZN6icu_5711FormattableC1Ev
                 U __ZN6icu_5711FormattableD1Ev
00000000000114d0 T __ZN6icu_5711ReplaceableC2Ev
                 U __ZN6icu_5712CalendarData8getByKeyEPKcR10UErrorCode
                 U __ZN6icu_5712CalendarDataC1ERKNS_6LocaleEPKcR10UErrorCode
                 U __ZN6icu_5712CalendarDataD1Ev
0000000000008900 T __ZN6icu_5712LocalPointerINS_12NumberFormatEEC1EPS1_
0000000000011d90 T __ZN6icu_5712LocalPointerINS_12NumberFormatEEC2EPS1_
0000000000008a30 T __ZN6icu_5712LocalPointerINS_12NumberFormatEED1Ev
0000000000011de0 T __ZN6icu_5712LocalPointerINS_12NumberFormatEED2Ev
0000000000007e80 T __ZN6icu_5712LocalPointerINS_16SimpleDateFormat10NSOverrideEEC1EPS2_
0000000000011ce0 T __ZN6icu_5712LocalPointerINS_16SimpleDateFormat10NSOverrideEEC2EPS2_
0000000000007ff0 T __ZN6icu_5712LocalPointerINS_16SimpleDateFormat10NSOverrideEED1Ev
0000000000011d30 T __ZN6icu_5712LocalPointerINS_16SimpleDateFormat10NSOverrideEED2Ev
                 U __ZN6icu_5712NumberFormat14createInstanceERKNS_6LocaleER10UErrorCode
                 U __ZN6icu_5712PatternProps12isWhiteSpaceEi
                 U __ZN6icu_5712PatternProps14skipWhiteSpaceEPKti
0000000000003ca0 T __ZN6icu_5712SharedObject7copyPtrINS_18SharedNumberFormatEEEvPKT_RS5_
0000000000011450 T __ZN6icu_5712SharedObject8clearPtrINS_18SharedNumberFormatEEEvRPKT_
0000000000011b20 T __ZN6icu_5712SharedObjectC2Ev
                 U __ZN6icu_5713BreakIterator22createSentenceInstanceERKNS_6LocaleER10UErrorCode
0000000000008410 T __ZN6icu_5713FieldPositionC1Ei
0000000000011a40 T __ZN6icu_5713FieldPositionC2Ei
                 U __ZN6icu_5713FieldPositionD1Ev
                 U __ZN6icu_5713MessageFormatC1ERKNS_13UnicodeStringERKNS_6LocaleER10UErrorCode
000000000000a720 T __ZN6icu_5713ParsePosition13setErrorIndexEi
000000000000f3f0 T __ZN6icu_5713ParsePosition8setIndexEi
000000000000fc50 T __ZN6icu_5713ParsePositionC1Ei
0000000000011c10 T __ZN6icu_5713ParsePositionC2Ei
                 U __ZN6icu_5713ParsePositionD1Ev
                 U __ZN6icu_5713UnicodeString10setToBogusEv
0000000000011c80 T __ZN6icu_5713UnicodeString10setToEmptyEv
0000000000011ca0 T __ZN6icu_5713UnicodeString13setZeroLengthEv
00000000000085d0 T __ZN6icu_5713UnicodeString14replaceBetweenEiiRKS0_
                 U __ZN6icu_5713UnicodeString4trimEv
0000000000001c20 T __ZN6icu_5713UnicodeString5setToERKS0_
0000000000007d70 T __ZN6icu_5713UnicodeString5setToERKS0_i
0000000000007df0 T __ZN6icu_5713UnicodeString5setToERKS0_ii
                 U __ZN6icu_5713UnicodeString5setToEaPKti
0000000000010150 T __ZN6icu_5713UnicodeString5setToEt
0000000000010680 T __ZN6icu_5713UnicodeString6removeEv
                 U __ZN6icu_5713UnicodeString7toTitleEPNS_13BreakIteratorERKNS_6LocaleEj
                 U __ZN6icu_5713UnicodeString7unBogusEv
                 U __ZN6icu_5713UnicodeString8copyFromERKS0_a
                 U __ZN6icu_5713UnicodeString8doAppendEPKtii
                 U __ZN6icu_5713UnicodeString8doAppendERKS0_ii
                 U __ZN6icu_5713UnicodeString9doReplaceEiiPKtii
                 U __ZN6icu_5713UnicodeString9doReplaceEiiRKS0_ii
                 U __ZN6icu_5713UnicodeStringC1EPKciNS0_10EInvariantE
                 U __ZN6icu_5713UnicodeStringC1EPKt
                 U __ZN6icu_5713UnicodeStringC1EPtii
                 U __ZN6icu_5713UnicodeStringC1ERKS0_
                 U __ZN6icu_5713UnicodeStringC1ERKS0_i
                 U __ZN6icu_5713UnicodeStringC1ERKS0_ii
                 U __ZN6icu_5713UnicodeStringC1EaPKti
00000000000005d0 T __ZN6icu_5713UnicodeStringC1Ev
0000000000011490 T __ZN6icu_5713UnicodeStringC2Ev
                 U __ZN6icu_5713UnicodeStringD1Ev
                 U __ZN6icu_5713UnicodeStringaSERKS0_
0000000000008440 T __ZN6icu_5713UnicodeStringpLERKS0_
0000000000007c00 T __ZN6icu_5713UnicodeStringpLEt
                 U __ZN6icu_5714DayPeriodRules11getInstanceERKNS_6LocaleER10UErrorCode
                 U __ZN6icu_5714HebrewCalendar10isLeapYearEi
                 U __ZN6icu_5714TimeZoneFormat14createInstanceERKNS_6LocaleER10UErrorCode
                 U __ZN6icu_5714TimeZoneFormatC1ERKS0_
                 U __ZN6icu_5715SimpleFormatter27applyPatternMinMaxArgumentsERKNS_13UnicodeStringEiiR10UErrorCode
0000000000003fa0 T __ZN6icu_5715SimpleFormatterC1ERKNS_13UnicodeStringEiiR10UErrorCode
0000000000011530 T __ZN6icu_5715SimpleFormatterC2ERKNS_13UnicodeStringEiiR10UErrorCode
                 U __ZN6icu_5715SimpleFormatterD1Ev
0000000000008a10 T __ZN6icu_5716LocalPointerBaseINS_12NumberFormatEE6orphanEv
0000000000011dc0 T __ZN6icu_5716LocalPointerBaseINS_12NumberFormatEEC2EPS1_
0000000000011e30 T __ZN6icu_5716LocalPointerBaseINS_12NumberFormatEED2Ev
0000000000007fd0 T __ZN6icu_5716LocalPointerBaseINS_16SimpleDateFormat10NSOverrideEE6orphanEv
0000000000011d10 T __ZN6icu_5716LocalPointerBaseINS_16SimpleDateFormat10NSOverrideEEC2EPS2_
0000000000011d80 T __ZN6icu_5716LocalPointerBaseINS_16SimpleDateFormat10NSOverrideEED2Ev
00000000000000d0 T __ZN6icu_5716SimpleDateFormat10NSOverride4freeEv
0000000000007e60 T __ZN6icu_5716SimpleDateFormat10NSOverrideC1Ev
00000000000118c0 T __ZN6icu_5716SimpleDateFormat10NSOverrideC2Ev
00000000000000b0 T __ZN6icu_5716SimpleDateFormat10NSOverrideD1Ev
0000000000000030 T __ZN6icu_5716SimpleDateFormat10NSOverrideD2Ev
00000000000018c0 T __ZN6icu_5716SimpleDateFormat10initializeERKNS_6LocaleER10UErrorCode
0000000000010e20 T __ZN6icu_5716SimpleDateFormat10setContextE15UDisplayContextR10UErrorCode
0000000000010860 T __ZN6icu_5716SimpleDateFormat12applyPatternERKNS_13UnicodeStringE
0000000000007c30 T __ZN6icu_5716SimpleDateFormat12isSyntaxCharEt
00000000000041d0 T __ZN6icu_5716SimpleDateFormat12parsePatternEv
0000000000010c30 T __ZN6icu_5716SimpleDateFormat13adoptCalendarEPNS_8CalendarE
000000000000eae0 T __ZN6icu_5716SimpleDateFormat13matchLiteralsERKNS_13UnicodeStringERiS3_S4_aaa
0000000000007ca0 T __ZN6icu_5716SimpleDateFormat16getLevelFromCharEt
0000000000000000 T __ZN6icu_5716SimpleDateFormat16getStaticClassIDEv
0000000000008ae0 T __ZN6icu_5716SimpleDateFormat16isAtNumericFieldERKNS_13UnicodeStringEi
0000000000010540 T __ZN6icu_5716SimpleDateFormat16translatePatternERKNS_13UnicodeStringERS1_S3_S3_R10UErrorCode
0000000000008630 T __ZN6icu_5716SimpleDateFormat17adoptNumberFormatEPNS_12NumberFormatE
00000000000086c0 T __ZN6icu_5716SimpleDateFormat17adoptNumberFormatERKNS_13UnicodeStringEPNS_12NumberFormatER10UErrorCode
0000000000010b50 T __ZN6icu_5716SimpleDateFormat17setTimeZoneFormatERKNS_14TimeZoneFormatE
0000000000001830 T __ZN6icu_5716SimpleDateFormat18initializeCalendarEPNS_8TimeZoneERKNS_6LocaleER10UErrorCode
0000000000010f50 T __ZN6icu_5716SimpleDateFormat18isFieldUnitIgnoredERKNS_13UnicodeStringE19UCalendarDateFields
000000000000fc20 T __ZN6icu_5716SimpleDateFormat18set2DigitYearStartEdR10UErrorCode
0000000000010b00 T __ZN6icu_5716SimpleDateFormat19adoptTimeZoneFormatEPNS_14TimeZoneFormatE
00000000000040a0 T __ZN6icu_5716SimpleDateFormat20initNumberFormattersERKNS_6LocaleER10UErrorCode
0000000000010a00 T __ZN6icu_5716SimpleDateFormat20setDateFormatSymbolsERKNS_17DateFormatSymbolsE
00000000000108b0 T __ZN6icu_5716SimpleDateFormat21applyLocalizedPatternERKNS_13UnicodeStringER10UErrorCode
0000000000001c50 T __ZN6icu_5716SimpleDateFormat21processOverrideStringERKNS_6LocaleERKNS_13UnicodeStringEaR10UErrorCode
00000000000109b0 T __ZN6icu_5716SimpleDateFormat22adoptDateFormatSymbolsEPNS_17DateFormatSymbolsE
0000000000012b60 S __ZN6icu_5716SimpleDateFormat22fgCalendarFieldToLevelE
0000000000008b90 T __ZN6icu_5716SimpleDateFormat22isAfterNonNumericFieldERKNS_13UnicodeStringEi
0000000000001520 T __ZN6icu_5716SimpleDateFormat24initializeDefaultCenturyEv
00000000000042b0 T __ZN6icu_5716SimpleDateFormat26parseAmbiguousDatesAsAfterEdR10UErrorCode
00000000000005f0 T __ZN6icu_5716SimpleDateFormat27initializeBooleanAttributesEv
0000000000012e40 S __ZN6icu_5716SimpleDateFormat29fgPatternIndexToCalendarFieldE
0000000000012ee0 S __ZN6icu_5716SimpleDateFormat31fgPatternIndexToDateFormatFieldE
00000000000006a0 T __ZN6icu_5716SimpleDateFormat9constructENS_10DateFormat6EStyleES2_RKNS_6LocaleER10UErrorCode
0000000000008ab0 T __ZN6icu_5716SimpleDateFormat9isNumericEti
0000000000003290 T __ZN6icu_5716SimpleDateFormatC1ENS_10DateFormat6EStyleES2_RKNS_6LocaleER10UErrorCode
00000000000015e0 T __ZN6icu_5716SimpleDateFormatC1ER10UErrorCode
0000000000002d90 T __ZN6icu_5716SimpleDateFormatC1ERKNS_13UnicodeStringEPNS_17DateFormatSymbolsER10UErrorCode
0000000000001990 T __ZN6icu_5716SimpleDateFormatC1ERKNS_13UnicodeStringER10UErrorCode
0000000000003070 T __ZN6icu_5716SimpleDateFormatC1ERKNS_13UnicodeStringERKNS_17DateFormatSymbolsER10UErrorCode
00000000000028d0 T __ZN6icu_5716SimpleDateFormatC1ERKNS_13UnicodeStringERKNS_6LocaleER10UErrorCode
0000000000002680 T __ZN6icu_5716SimpleDateFormatC1ERKNS_13UnicodeStringES3_R10UErrorCode
0000000000002b50 T __ZN6icu_5716SimpleDateFormatC1ERKNS_13UnicodeStringES3_RKNS_6LocaleER10UErrorCode
0000000000003680 T __ZN6icu_5716SimpleDateFormatC1ERKNS_6LocaleER10UErrorCode
0000000000003bc0 T __ZN6icu_5716SimpleDateFormatC1ERKS0_
00000000000030b0 T __ZN6icu_5716SimpleDateFormatC2ENS_10DateFormat6EStyleES2_RKNS_6LocaleER10UErrorCode
0000000000000430 T __ZN6icu_5716SimpleDateFormatC2ER10UErrorCode
0000000000002b90 T __ZN6icu_5716SimpleDateFormatC2ERKNS_13UnicodeStringEPNS_17DateFormatSymbolsER10UErrorCode
0000000000001610 T __ZN6icu_5716SimpleDateFormatC2ERKNS_13UnicodeStringER10UErrorCode
0000000000002dd0 T __ZN6icu_5716SimpleDateFormatC2ERKNS_13UnicodeStringERKNS_17DateFormatSymbolsER10UErrorCode
00000000000026c0 T __ZN6icu_5716SimpleDateFormatC2ERKNS_13UnicodeStringERKNS_6LocaleER10UErrorCode
00000000000019c0 T __ZN6icu_5716SimpleDateFormatC2ERKNS_13UnicodeStringES3_R10UErrorCode
0000000000002910 T __ZN6icu_5716SimpleDateFormatC2ERKNS_13UnicodeStringES3_RKNS_6LocaleER10UErrorCode
00000000000032d0 T __ZN6icu_5716SimpleDateFormatC2ERKNS_6LocaleER10UErrorCode
00000000000036b0 T __ZN6icu_5716SimpleDateFormatC2ERKS0_
0000000000000400 T __ZN6icu_5716SimpleDateFormatD0Ev
00000000000003e0 T __ZN6icu_5716SimpleDateFormatD1Ev
00000000000001e0 T __ZN6icu_5716SimpleDateFormatD2Ev
0000000000003840 T __ZN6icu_5716SimpleDateFormataSERKS0_
                 U __ZN6icu_5717DateFormatSymbols14isNumericFieldE16UDateFormatFieldi
                 U __ZN6icu_5717DateFormatSymbols15createForLocaleERKNS_6LocaleER10UErrorCode
                 U __ZN6icu_5717DateFormatSymbols16getPatternUCharsEv
                 U __ZN6icu_5717DateFormatSymbols19getPatternCharIndexEt
                 U __ZN6icu_5717DateFormatSymbols20isNumericPatternCharEti
                 U __ZN6icu_5717DateFormatSymbolsC1ER10UErrorCode
                 U __ZN6icu_5717DateFormatSymbolsC1ERKS0_
0000000000011ab0 T __ZN6icu_5718SharedNumberFormatC1EPNS_12NumberFormatE
0000000000011ae0 T __ZN6icu_5718SharedNumberFormatC2EPNS_12NumberFormatE
                 U __ZN6icu_5718TimeZoneTransitionC1Ev
                 U __ZN6icu_5718TimeZoneTransitionD1Ev
                 U __ZN6icu_5724FieldPositionOnlyHandlerC1ERNS_13FieldPositionE
                 U __ZN6icu_5724FieldPositionOnlyHandlerD1Ev
0000000000008040 T __ZN6icu_5726SimpleDateFormatMutableNFs3getEPKNS_12NumberFormatE
0000000000004a30 T __ZN6icu_5726SimpleDateFormatMutableNFsC1Ev
00000000000115b0 T __ZN6icu_5726SimpleDateFormatMutableNFsC2Ev
0000000000007c80 T __ZN6icu_5726SimpleDateFormatMutableNFsD1Ev
0000000000011800 T __ZN6icu_5726SimpleDateFormatMutableNFsD2Ev
                 U __ZN6icu_5726SimpleDateFormatStaticSets13getIgnorablesE16UDateFormatField
                 U __ZN6icu_5728FieldPositionIteratorHandlerC1EPNS_21FieldPositionIteratorER10UErrorCode
                 U __ZN6icu_5728FieldPositionIteratorHandlerD1Ev
0000000000011670 T __ZN6icu_5729SimpleDateFormatMutableNFNodeC1Ev
00000000000116b0 T __ZN6icu_5729SimpleDateFormatMutableNFNodeC2Ev
0000000000011690 T __ZN6icu_5729SimpleDateFormatMutableNFNodeD1Ev
00000000000116d0 T __ZN6icu_5729SimpleDateFormatMutableNFNodeD2Ev
                 U __ZN6icu_576Format12setLocaleIDsEPKcS2_
                 U __ZN6icu_576Locale10getDefaultEv
                 U __ZN6icu_576Locale15setKeywordValueEPKcS2_R10UErrorCode
                 U __ZN6icu_576LocaleC1EPKcS2_S2_S2_
                 U __ZN6icu_576LocaleC1ERKS0_
                 U __ZN6icu_576LocaleD1Ev
                 U __ZN6icu_576LocaleaSERKS0_
                 U __ZN6icu_577UMemorydaEPv
                 U __ZN6icu_577UMemorydlEPv
                 U __ZN6icu_577UMemorynwEm
0000000000011510 T __ZN6icu_577UObjectC2Ev
                 U __ZN6icu_578Calendar11setTimeZoneERKNS_8TimeZoneE
                 U __ZN6icu_578Calendar13adoptTimeZoneEPNS_8TimeZoneE
                 U __ZN6icu_578Calendar14createInstanceEPNS_8TimeZoneERKNS_6LocaleER10UErrorCode
                 U __ZN6icu_578Calendar15setTimeInMillisEdR10UErrorCode
                 U __ZN6icu_578Calendar3setE19UCalendarDateFieldsi
0000000000004370 T __ZN6icu_578Calendar7setTimeEdR10UErrorCode
                 U __ZN6icu_578TimeZone13createDefaultEv
0000000000012f80 s __ZN6icu_57L11kDateFieldsE
0000000000012fc0 s __ZN6icu_57L11kTimeFieldsE
0000000000008220 t __ZN6icu_57L13_appendSymbolERNS_13UnicodeStringEiPKS0_i
0000000000012b10 s __ZN6icu_57L15gDefaultPatternE
0000000000012ff0 s __ZN6icu_57L15gFieldRangeBiasE
0000000000012b40 s __ZN6icu_57L20gDateTimePatternsTagE
0000000000003fe0 t __ZN6icu_57L23fixNumberFormatForDatesERNS_12NumberFormatE
0000000000013084 s __ZN6icu_57L24SUPPRESS_NEGATIVE_PREFIXE
0000000000008930 t __ZN6icu_57L24createSharedNumberFormatEPNS_12NumberFormatE
0000000000007f50 t __ZN6icu_57L24createSharedNumberFormatERKNS_6LocaleER10UErrorCode
0000000000000380 t __ZN6icu_57L26freeSharedNumberFormattersEPPKNS_18SharedNumberFormatE
000000000000f5b0 t __ZN6icu_57L26matchStringWithOptionalDotERKNS_13UnicodeStringEiS2_
0000000000003c20 t __ZN6icu_57L27allocSharedNumberFormattersEv
00000000000082e0 t __ZN6icu_57L29_appendSymbolWithMonthPatternERNS_13UnicodeStringEiPKS0_iS3_R10UErrorCode
00000000000130b0 d __ZN6icu_57L4LOCKE
                 U __ZNK6icu_5710DateFormat10getContextE19UDisplayContextTypeR10UErrorCode
                 U __ZNK6icu_5710DateFormat11getCalendarEv
                 U __ZNK6icu_5710DateFormat11getTimeZoneEv
                 U __ZNK6icu_5710DateFormat11parseObjectERKNS_13UnicodeStringERNS_11FormattableERNS_13ParsePositionE
                 U __ZNK6icu_5710DateFormat15getNumberFormatEv
                 U __ZNK6icu_5710DateFormat17isCalendarLenientEv
                 U __ZNK6icu_5710DateFormat19getBooleanAttributeE27UDateFormatBooleanAttributeR10UErrorCode
                 U __ZNK6icu_5710DateFormat5parseERKNS_13UnicodeStringER10UErrorCode
                 U __ZNK6icu_5710DateFormat6formatERKNS_11FormattableERNS_13UnicodeStringEPNS_21FieldPositionIteratorER10UErrorCode
                 U __ZNK6icu_5710DateFormat6formatERKNS_11FormattableERNS_13UnicodeStringERNS_13FieldPositionER10UErrorCode
                 U __ZNK6icu_5710DateFormat9isLenientEv
                 U __ZNK6icu_5710DateFormateqERKNS_6FormatE
                 U __ZNK6icu_5710UnicodeSet8containsEi
000000000000fc80 T __ZNK6icu_5711Formattable7getLongEv
                 U __ZNK6icu_5711Formattable9isNumericEv
                 U __ZNK6icu_5712SharedObject20deleteIfZeroRefCountEv
                 U __ZNK6icu_5712SharedObject6addRefEa
0000000000011cc0 T __ZNK6icu_5712SharedObject6addRefEv
                 U __ZNK6icu_5712SharedObject9removeRefEa
0000000000000080 T __ZNK6icu_5712SharedObject9removeRefEv
                 U __ZNK6icu_5712TimeZoneRule13getDSTSavingsEv
                 U __ZNK6icu_5713DecimalFormat17getNegativePrefixERNS_13UnicodeStringE
                 U __ZNK6icu_5713DecimalFormat17getNegativeSuffixERNS_13UnicodeStringE
                 U __ZNK6icu_5713DecimalFormat17getPositiveSuffixERNS_13UnicodeStringE
000000000000a700 T __ZNK6icu_5713ParsePosition8getIndexEv
                 U __ZNK6icu_5713UnicodeString10doHashCodeEv
0000000000011990 T __ZNK6icu_5713UnicodeString10pinIndicesERiS1_
00000000000117b0 T __ZNK6icu_5713UnicodeString13getArrayStartEv
0000000000011730 T __ZNK6icu_5713UnicodeString14getShortLengthEv
0000000000011710 T __ZNK6icu_5713UnicodeString14hasShortLengthEv
0000000000008010 T __ZNK6icu_5713UnicodeString6charAtEi
0000000000004a50 T __ZNK6icu_5713UnicodeString6lengthEv
0000000000010100 T __ZNK6icu_5713UnicodeString7compareEPKti
0000000000008280 T __ZNK6icu_5713UnicodeString7compareERKS0_
                 U __ZNK6icu_5713UnicodeString7extractEiiPciNS0_10EInvariantE
00000000000106d0 T __ZNK6icu_5713UnicodeString7indexOfEt
0000000000007d10 T __ZNK6icu_5713UnicodeString7indexOfEti
0000000000007cf0 T __ZNK6icu_5713UnicodeString7isBogusEv
                 U __ZNK6icu_5713UnicodeString8char32AtEi
0000000000011750 T __ZNK6icu_5713UnicodeString8doCharAtEi
                 U __ZNK6icu_5713UnicodeString8doEqualsERKS0_i
0000000000007e40 T __ZNK6icu_5713UnicodeString8hashCodeEv
0000000000011850 T __ZNK6icu_5713UnicodeString8pinIndexERi
                 U __ZNK6icu_5713UnicodeString9doCompareEiiPKtii
00000000000118f0 T __ZNK6icu_5713UnicodeString9doCompareEiiRKS0_ii
                 U __ZNK6icu_5713UnicodeString9doIndexOfEtii
00000000000113e0 T __ZNK6icu_5713UnicodeString9getBufferEv
0000000000003ef0 T __ZNK6icu_5713UnicodeStringeqERKS0_
0000000000004aa0 T __ZNK6icu_5713UnicodeStringixEi
0000000000008570 T __ZNK6icu_5714DayPeriodRules11hasMidnightEv
00000000000085b0 T __ZNK6icu_5714DayPeriodRules19getDayPeriodForHourEi
                 U __ZNK6icu_5714DayPeriodRules23getMidPointForDayPeriodENS0_9DayPeriodER10UErrorCode
0000000000008590 T __ZNK6icu_5714DayPeriodRules7hasNoonEv
                 U __ZNK6icu_5714TimeZoneFormat5parseE20UTimeZoneFormatStyleRKNS_13UnicodeStringERNS_13ParsePositionEP23UTimeZoneFormatTimeType
                 U __ZNK6icu_5715SimpleFormatter6formatERKNS_13UnicodeStringERS1_R10UErrorCode
                 U __ZNK6icu_5715SimpleFormatter6formatERKNS_13UnicodeStringES3_RS1_R10UErrorCode
0000000000007eb0 T __ZNK6icu_5716LocalPointerBaseINS_16SimpleDateFormat10NSOverrideEE6isNullEv
0000000000007f30 T __ZNK6icu_5716LocalPointerBaseINS_16SimpleDateFormat10NSOverrideEEptEv
000000000000f7b0 T __ZNK6icu_5716SimpleDateFormat11matchStringERKNS_13UnicodeStringEi19UCalendarDateFieldsPS2_iS5_RNS_8CalendarE
000000000000fd10 T __ZNK6icu_5716SimpleDateFormat14checkIntSuffixERKNS_13UnicodeStringEiia
0000000000008550 T __ZNK6icu_5716SimpleDateFormat15getSmpFmtLocaleEv
0000000000011360 T __ZNK6icu_5716SimpleDateFormat15skipUWhiteSpaceERKNS_13UnicodeStringEi
0000000000000010 T __ZNK6icu_5716SimpleDateFormat17getDynamicClassIDEv
0000000000010ae0 T __ZNK6icu_5716SimpleDateFormat17getTimeZoneFormatEv
0000000000008140 T __ZNK6icu_5716SimpleDateFormat17zeroPaddingNumberEPNS_12NumberFormatERNS_13UnicodeStringEiii
00000000000110e0 T __ZNK6icu_5716SimpleDateFormat18compareSimpleAffixERKNS_13UnicodeStringES3_i
0000000000010f20 T __ZNK6icu_5716SimpleDateFormat18isFieldUnitIgnoredE19UCalendarDateFields
000000000000f410 T __ZNK6icu_5716SimpleDateFormat18matchQuarterStringERKNS_13UnicodeStringEi19UCalendarDateFieldsPS2_iRNS_8CalendarE
0000000000010760 T __ZNK6icu_5716SimpleDateFormat18toLocalizedPatternERNS_13UnicodeStringER10UErrorCode
0000000000010990 T __ZNK6icu_5716SimpleDateFormat20getDateFormatSymbolsEv
000000000000f6e0 T __ZNK6icu_5716SimpleDateFormat21matchDayPeriodStringsERKNS_13UnicodeStringEiPS2_iRi
0000000000011300 T __ZNK6icu_5716SimpleDateFormat21skipPatternWhiteSpaceERKNS_13UnicodeStringEi
0000000000000140 T __ZNK6icu_5716SimpleDateFormat22getNumberFormatByIndexE16UDateFormatField
0000000000008a50 T __ZNK6icu_5716SimpleDateFormat23getNumberFormatForFieldEt
0000000000003d10 T __ZNK6icu_5716SimpleDateFormat5cloneEv
0000000000008c40 T __ZNK6icu_5716SimpleDateFormat5parseERKNS_13UnicodeStringERNS_8CalendarERNS_13ParsePositionE
0000000000004970 T __ZNK6icu_5716SimpleDateFormat6formatERNS_8CalendarERNS_13UnicodeStringEPNS_21FieldPositionIteratorER10UErrorCode
00000000000043a0 T __ZNK6icu_5716SimpleDateFormat6formatERNS_8CalendarERNS_13UnicodeStringERNS_13FieldPositionE
0000000000004430 T __ZNK6icu_5716SimpleDateFormat7_formatERNS_8CalendarERNS_13UnicodeStringERNS_20FieldPositionHandlerER10UErrorCode
000000000000fca0 T __ZNK6icu_5716SimpleDateFormat8parseIntERKNS_13UnicodeStringERNS_11FormattableERNS_13ParsePositionEaPNS_12NumberFormatE
00000000000101a0 T __ZNK6icu_5716SimpleDateFormat8parseIntERKNS_13UnicodeStringERNS_11FormattableEiRNS_13ParsePositionEaPNS_12NumberFormatE
000000000000a740 T __ZNK6icu_5716SimpleDateFormat8subParseERKNS_13UnicodeStringERitiaaPaS4_RNS_8CalendarEiPNS_13MessageFormatEP23UTimeZoneFormatTimeTypeRNS_26SimpleDateFormatMutableNFsEPi
0000000000008490 T __ZNK6icu_5716SimpleDateFormat8tzFormatEv
0000000000004ad0 T __ZNK6icu_5716SimpleDateFormat9subFormatERNS_13UnicodeStringEti15UDisplayContextiRNS_20FieldPositionHandlerERNS_8CalendarERNS_26SimpleDateFormatMutableNFsER10UErrorCode
0000000000010720 T __ZNK6icu_5716SimpleDateFormat9toPatternERNS_13UnicodeStringE
0000000000003dc0 T __ZNK6icu_5716SimpleDateFormateqERKNS_6FormatE
                 U __ZNK6icu_5717DateFormatSymbols22getTimeSeparatorStringERNS_13UnicodeStringE
                 U __ZNK6icu_5717DateFormatSymbolseqERKS0_
00000000000001c0 T __ZNK6icu_5718SharedNumberFormatdeEv
                 U __ZNK6icu_5718TimeZoneTransition5getToEv
                 U __ZNK6icu_5718TimeZoneTransition7getFromEv
                 U __ZNK6icu_5718TimeZoneTransition7getTimeEv
0000000000007ef0 T __ZNK6icu_576Locale10getCountryEv
0000000000007f10 T __ZNK6icu_576Locale10getVariantEv
0000000000007ed0 T __ZNK6icu_576Locale11getLanguageEv
                 U __ZNK6icu_576LocaleeqERKS0_
0000000000003bf0 T __ZNK6icu_576LocaleneERKS0_
                 U __ZNK6icu_578Calendar11getTimeZoneEv
                 U __ZNK6icu_578Calendar15getTimeInMillisER10UErrorCode
                 U __ZNK6icu_578Calendar3getE19UCalendarDateFieldsR10UErrorCode
                 U __ZNK6icu_578Calendar5isSetE19UCalendarDateFields
0000000000004a00 T __ZNK6icu_578Calendar7getTimeER10UErrorCode
                 U __ZSt9terminatev
                 U __ZTIN6icu_5710DateFormatE
                 U __ZTIN6icu_5712NumberFormatE
                 U __ZTIN6icu_5713DecimalFormatE
                 U __ZTIN6icu_5713OlsonTimeZoneE
                 U __ZTIN6icu_5714SimpleTimeZoneE
0000000000012af0 S __ZTIN6icu_5716SimpleDateFormatE
                 U __ZTIN6icu_5717RuleBasedTimeZoneE
                 U __ZTIN6icu_578TimeZoneE
                 U __ZTIN6icu_579VTimeZoneE
0000000000013090 S __ZTSN6icu_5716SimpleDateFormatE
                 U __ZTVN10__cxxabiv120__si_class_type_infoE
                 U __ZTVN6icu_5711ReplaceableE
                 U __ZTVN6icu_5712SharedObjectE
                 U __ZTVN6icu_5713FieldPositionE
                 U __ZTVN6icu_5713ParsePositionE
                 U __ZTVN6icu_5713UnicodeStringE
00000000000129a0 S __ZTVN6icu_5716SimpleDateFormatE
                 U __ZTVN6icu_5718SharedNumberFormatE
                 U __ZTVN6icu_577UObjectE
0000000000012dc0 s __ZZN6icu_5716SimpleDateFormat12isSyntaxCharEtE17mapCharToIsSyntax
0000000000012bc0 s __ZZN6icu_5716SimpleDateFormat16getLevelFromCharEtE14mapCharToLevel
0000000000016530 b __ZZN6icu_5716SimpleDateFormat16getStaticClassIDEvE7classID
0000000000013082 s __ZZNK6icu_5716SimpleDateFormat8subParseERKNS_13UnicodeStringERitiaaPaS4_RNS_8CalendarEiPNS_13MessageFormatEP23UTimeZoneFormatTimeTypeRNS_26SimpleDateFormatMutableNFsEPiE7alt_sep
0000000000013080 s __ZZNK6icu_5716SimpleDateFormat8subParseERKNS_13UnicodeStringERitiaaPaS4_RNS_8CalendarEiPNS_13MessageFormatEP23UTimeZoneFormatTimeTypeRNS_26SimpleDateFormatMutableNFsEPiE7def_sep
00000000000000a0 T ___clang_call_terminate
                 U ___cxa_begin_catch
                 U ___dynamic_cast
                 U ___gxx_personality_v0
                 U ___stack_chk_fail
                 U ___stack_chk_guard
                 U _memset
                 U _strcmp
                 U _strcpy
                 U _u_caseInsensitivePrefixMatch_57
                 U _u_isUWhiteSpace_57
                 U _u_isWhitespace_57
                 U _u_isdigit_57
                 U _u_islower_57
                 U _umtx_lock_57
                 U _umtx_unlock_57
                 U _uprv_free_57
                 U _uprv_malloc_57
                 U _ures_close_57
                 U _ures_getByIndex_57
                 U _ures_getLocaleByType_57
                 U _ures_getSize_57
                 U _ures_getStringByIndex_57
                 U _ures_getString_57
                 U _ures_getType_57

libicui18n.a(reldtfmt.ao):
0000000000003ca4 s GCC_except_table11
0000000000003cd8 s GCC_except_table15
0000000000003cf8 s GCC_except_table18
0000000000003b54 s GCC_except_table2
0000000000003d68 s GCC_except_table31
0000000000003be0 s GCC_except_table5
0000000000003df4 s GCC_except_table50
0000000000003e20 s GCC_except_table64
0000000000003c50 s GCC_except_table9
                 U __Unwind_Resume
0000000000000920 t __ZL9U_FAILURE10UErrorCode
00000000000021b0 t __ZL9U_SUCCESS10UErrorCode
                 U __ZN6icu_5710DateFormat10setContextE15UDisplayContextR10UErrorCode
                 U __ZN6icu_5710DateFormat10setLenientEa
                 U __ZN6icu_5710DateFormat11setCalendarERKNS_8CalendarE
                 U __ZN6icu_5710DateFormat11setTimeZoneERKNS_8TimeZoneE
                 U __ZN6icu_5710DateFormat13adoptCalendarEPNS_8CalendarE
                 U __ZN6icu_5710DateFormat13adoptTimeZoneEPNS_8TimeZoneE
                 U __ZN6icu_5710DateFormat15setNumberFormatERKNS_12NumberFormatE
                 U __ZN6icu_5710DateFormat17adoptNumberFormatEPNS_12NumberFormatE
                 U __ZN6icu_5710DateFormat18createDateInstanceENS0_6EStyleERKNS_6LocaleE
                 U __ZN6icu_5710DateFormat18createTimeInstanceENS0_6EStyleERKNS_6LocaleE
                 U __ZN6icu_5710DateFormat18setCalendarLenientEa
                 U __ZN6icu_5710DateFormat19setBooleanAttributeE27UDateFormatBooleanAttributeaR10UErrorCode
                 U __ZN6icu_5710DateFormatC2ERKS0_
                 U __ZN6icu_5710DateFormatC2Ev
                 U __ZN6icu_5710DateFormatD2Ev
0000000000003900 T __ZN6icu_5711ReplaceableC2Ev
                 U __ZN6icu_5712CalendarData8getByKeyEPKcR10UErrorCode
                 U __ZN6icu_5712CalendarDataC1ERKNS_6LocaleEPKcR10UErrorCode
                 U __ZN6icu_5712CalendarDataD1Ev
                 U __ZN6icu_5713BreakIterator22createSentenceInstanceERKNS_6LocaleER10UErrorCode
0000000000002f90 T __ZN6icu_5713FieldPositionC1Ev
00000000000039c0 T __ZN6icu_5713FieldPositionC2Ev
                 U __ZN6icu_5713FieldPositionD1Ev
0000000000002f50 T __ZN6icu_5713ParsePosition13setErrorIndexEi
0000000000002f70 T __ZN6icu_5713ParsePosition8setIndexEi
0000000000003aa0 T __ZN6icu_5713UnicodeString10setToEmptyEv
0000000000003ac0 T __ZN6icu_5713UnicodeString13setZeroLengthEv
00000000000022f0 T __ZN6icu_5713UnicodeString14findAndReplaceERKS0_S2_
                 U __ZN6icu_5713UnicodeString14findAndReplaceEiiRKS0_iiS2_ii
00000000000021d0 T __ZN6icu_5713UnicodeString5setToEPKti
00000000000023e0 T __ZN6icu_5713UnicodeString5setToERKS0_
00000000000022a0 T __ZN6icu_5713UnicodeString6appendERKS0_
00000000000023b0 T __ZN6icu_5713UnicodeString6appendEt
0000000000002370 T __ZN6icu_5713UnicodeString6insertEit
0000000000003230 T __ZN6icu_5713UnicodeString6removeEv
0000000000003020 T __ZN6icu_5713UnicodeString7replaceEiiRKS0_
                 U __ZN6icu_5713UnicodeString7toTitleEPNS_13BreakIteratorERKNS_6LocaleEj
                 U __ZN6icu_5713UnicodeString7unBogusEv
                 U __ZN6icu_5713UnicodeString8copyFromERKS0_a
                 U __ZN6icu_5713UnicodeString8doAppendEPKtii
                 U __ZN6icu_5713UnicodeString8doAppendERKS0_ii
                 U __ZN6icu_5713UnicodeString9doReplaceEiiPKtii
                 U __ZN6icu_5713UnicodeString9doReplaceEiiRKS0_ii
                 U __ZN6icu_5713UnicodeStringC1ERKS0_
                 U __ZN6icu_5713UnicodeStringC1EaPKti
0000000000000900 T __ZN6icu_5713UnicodeStringC1Ev
00000000000038c0 T __ZN6icu_5713UnicodeStringC2Ev
                 U __ZN6icu_5713UnicodeStringD1Ev
                 U __ZN6icu_5715SimpleFormatter27applyPatternMinMaxArgumentsERKNS_13UnicodeStringEiiR10UErrorCode
0000000000003840 T __ZN6icu_5715SimpleFormatterC1ERKNS_13UnicodeStringEiiR10UErrorCode
00000000000003c0 T __ZN6icu_5715SimpleFormatterC1ERKS0_
0000000000003ae0 T __ZN6icu_5715SimpleFormatterC2ERKNS_13UnicodeStringEiiR10UErrorCode
0000000000003880 T __ZN6icu_5715SimpleFormatterC2ERKS0_
                 U __ZN6icu_5715SimpleFormatterD1Ev
0000000000003410 T __ZN6icu_5718RelativeDateFormat10setContextE15UDisplayContextR10UErrorCode
0000000000003360 T __ZN6icu_5718RelativeDateFormat13applyPatternsERKNS_13UnicodeStringES3_R10UErrorCode
0000000000001fe0 T __ZN6icu_5718RelativeDateFormat13dayDifferenceERNS_8CalendarER10UErrorCode
0000000000000000 T __ZN6icu_5718RelativeDateFormat16getStaticClassIDEv
0000000000000940 T __ZN6icu_5718RelativeDateFormat18initializeCalendarEPNS_8TimeZoneERKNS_6LocaleER10UErrorCode
0000000000003580 T __ZN6icu_5718RelativeDateFormat29initCapitalizationContextInfoERKNS_6LocaleE
0000000000000a00 T __ZN6icu_5718RelativeDateFormat9loadDatesER10UErrorCode
0000000000001310 T __ZN6icu_5718RelativeDateFormatC1E16UDateFormatStyleS1_RKNS_6LocaleER10UErrorCode
00000000000003f0 T __ZN6icu_5718RelativeDateFormatC1ERKS0_
0000000000000420 T __ZN6icu_5718RelativeDateFormatC2E16UDateFormatStyleS1_RKNS_6LocaleER10UErrorCode
0000000000000030 T __ZN6icu_5718RelativeDateFormatC2ERKS0_
00000000000014d0 T __ZN6icu_5718RelativeDateFormatD0Ev
00000000000014b0 T __ZN6icu_5718RelativeDateFormatD1Ev
0000000000001350 T __ZN6icu_5718RelativeDateFormatD2Ev
                 U __ZN6icu_576LocaleC1EPKcS2_S2_S2_
                 U __ZN6icu_576LocaleC1ERKS0_
                 U __ZN6icu_576LocaleD1Ev
                 U __ZN6icu_577UMemorydlEPv
                 U __ZN6icu_577UMemorynwEm
0000000000003940 T __ZN6icu_577UObjectC2Ev
                 U __ZN6icu_578Calendar14createInstanceEPNS_8TimeZoneERKNS_6LocaleER10UErrorCode
                 U __ZN6icu_578Calendar15setTimeInMillisEdR10UErrorCode
                 U __ZN6icu_578Calendar6getNowEv
0000000000002f20 T __ZN6icu_578Calendar7setTimeEdR10UErrorCode
                 U __ZN6icu_578TimeZone13createDefaultEv
0000000000003fd0 s __ZN6icu_57L22DT_DateTimePatternsTagE
0000000000003fe2 s __ZN6icu_57L8patItem1E
                 U __ZNK6icu_5710DateFormat10getContextE19UDisplayContextTypeR10UErrorCode
                 U __ZNK6icu_5710DateFormat11getCalendarEv
                 U __ZNK6icu_5710DateFormat11getTimeZoneEv
                 U __ZNK6icu_5710DateFormat11parseObjectERKNS_13UnicodeStringERNS_11FormattableERNS_13ParsePositionE
                 U __ZNK6icu_5710DateFormat15getNumberFormatEv
                 U __ZNK6icu_5710DateFormat17isCalendarLenientEv
                 U __ZNK6icu_5710DateFormat19getBooleanAttributeE27UDateFormatBooleanAttributeR10UErrorCode
                 U __ZNK6icu_5710DateFormat5parseERKNS_13UnicodeStringER10UErrorCode
                 U __ZNK6icu_5710DateFormat5parseERKNS_13UnicodeStringERNS_13ParsePositionE
                 U __ZNK6icu_5710DateFormat6formatERKNS_11FormattableERNS_13UnicodeStringEPNS_21FieldPositionIteratorER10UErrorCode
                 U __ZNK6icu_5710DateFormat6formatERKNS_11FormattableERNS_13UnicodeStringERNS_13FieldPositionER10UErrorCode
                 U __ZNK6icu_5710DateFormat6formatERNS_8CalendarERNS_13UnicodeStringEPNS_21FieldPositionIteratorER10UErrorCode
                 U __ZNK6icu_5710DateFormat9isLenientEv
                 U __ZNK6icu_5710DateFormateqERKNS_6FormatE
0000000000003080 T __ZNK6icu_5713ParsePosition13getErrorIndexEv
0000000000002ec0 T __ZNK6icu_5713ParsePosition8getIndexEv
00000000000039a0 T __ZNK6icu_5713UnicodeString14getShortLengthEv
0000000000003980 T __ZNK6icu_5713UnicodeString14hasShortLengthEv
0000000000002220 T __ZNK6icu_5713UnicodeString6lengthEv
0000000000002ee0 T __ZNK6icu_5713UnicodeString7compareEiiPKt
0000000000002fb0 T __ZNK6icu_5713UnicodeString7indexOfEPKtii
                 U __ZNK6icu_5713UnicodeString7indexOfEPKtiiii
0000000000003960 T __ZNK6icu_5713UnicodeString7isBogusEv
0000000000002270 T __ZNK6icu_5713UnicodeString7isEmptyEv
                 U __ZNK6icu_5713UnicodeString8char32AtEi
                 U __ZNK6icu_5713UnicodeString8doEqualsERKS0_i
0000000000003a30 T __ZNK6icu_5713UnicodeString8pinIndexERi
                 U __ZNK6icu_5713UnicodeString9doCompareEiiPKtii
00000000000016b0 T __ZNK6icu_5713UnicodeStringeqERKS0_
                 U __ZNK6icu_5715SimpleFormatter6formatERKNS_13UnicodeStringES3_RS1_R10UErrorCode
0000000000003280 T __ZNK6icu_5718RelativeDateFormat13toPatternDateERNS_13UnicodeStringER10UErrorCode
00000000000032f0 T __ZNK6icu_5718RelativeDateFormat13toPatternTimeERNS_13UnicodeStringER10UErrorCode
00000000000020a0 T __ZNK6icu_5718RelativeDateFormat15getStringForDayEiRiR10UErrorCode
0000000000000010 T __ZNK6icu_5718RelativeDateFormat17getDynamicClassIDEv
00000000000033e0 T __ZNK6icu_5718RelativeDateFormat20getDateFormatSymbolsEv
0000000000001500 T __ZNK6icu_5718RelativeDateFormat5cloneEv
00000000000030e0 T __ZNK6icu_5718RelativeDateFormat5parseERKNS_13UnicodeStringER10UErrorCode
00000000000030a0 T __ZNK6icu_5718RelativeDateFormat5parseERKNS_13UnicodeStringERNS_13ParsePositionE
0000000000002460 T __ZNK6icu_5718RelativeDateFormat5parseERKNS_13UnicodeStringERNS_8CalendarERNS_13ParsePositionE
0000000000002410 T __ZNK6icu_5718RelativeDateFormat6formatERKNS_11FormattableERNS_13UnicodeStringERNS_13FieldPositionER10UErrorCode
0000000000001760 T __ZNK6icu_5718RelativeDateFormat6formatERNS_8CalendarERNS_13UnicodeStringERNS_13FieldPositionE
0000000000003120 T __ZNK6icu_5718RelativeDateFormat9toPatternERNS_13UnicodeStringER10UErrorCode
00000000000015b0 T __ZNK6icu_5718RelativeDateFormateqERKNS_6FormatE
                 U __ZNK6icu_576Locale11getBaseNameEv
                 U __ZNK6icu_576LocaleeqERKS0_
0000000000003810 T __ZNK6icu_576LocaleneERKS0_
                 U __ZNK6icu_578Calendar3getE19UCalendarDateFieldsR10UErrorCode
                 U __ZSt9terminatev
                 U __ZTIN6icu_5710DateFormatE
                 U __ZTIN6icu_5716SimpleDateFormatE
0000000000003f70 S __ZTIN6icu_5718RelativeDateFormatE
0000000000003ff0 S __ZTSN6icu_5718RelativeDateFormatE
                 U __ZTVN10__cxxabiv120__si_class_type_infoE
                 U __ZTVN6icu_5711ReplaceableE
                 U __ZTVN6icu_5713FieldPositionE
                 U __ZTVN6icu_5713UnicodeStringE
0000000000003e50 S __ZTVN6icu_5718RelativeDateFormatE
                 U __ZTVN6icu_577UObjectE
0000000000005290 b __ZZN6icu_5718RelativeDateFormat16getStaticClassIDEvE7classID
00000000000014a0 T ___clang_call_terminate
                 U ___cxa_begin_catch
                 U ___dynamic_cast
                 U ___gxx_personality_v0
                 U ___stack_chk_fail
                 U ___stack_chk_guard
                 U _atoi
                 U _memcpy
                 U _memset
                 U _u_islower_57
                 U _u_strncmp_57
                 U _uprv_free_57
                 U _uprv_malloc_57
                 U _ures_close_57
                 U _ures_getByKeyWithFallback_57
                 U _ures_getIntVector_57
                 U _ures_getKey_57
                 U _ures_getNextResource_57
                 U _ures_getSize_57
                 U _ures_getStringByIndex_57
                 U _ures_getString_57
                 U _ures_hasNext_57
                 U _ures_open_57
0000000000003f88 s l_.str
0000000000003f8c s l_.str.1

libicui18n.a(dtfmtsym.ao):
000000000000d040 s GCC_except_table10
000000000000d47c s GCC_except_table102
000000000000d06c s GCC_except_table11
000000000000d49c s GCC_except_table115
000000000000d4b4 s GCC_except_table124
000000000000d4e0 s GCC_except_table129
000000000000d500 s GCC_except_table139
000000000000d52c s GCC_except_table143
000000000000d098 s GCC_except_table15
000000000000d0e0 s GCC_except_table18
000000000000d22c s GCC_except_table20
000000000000d274 s GCC_except_table22
000000000000d2bc s GCC_except_table24
000000000000d304 s GCC_except_table26
000000000000d34c s GCC_except_table28
000000000000d388 s GCC_except_table30
000000000000d3a8 s GCC_except_table36
000000000000d014 s GCC_except_table4
000000000000d3c0 s GCC_except_table75
000000000000d408 s GCC_except_table84
000000000000d450 s GCC_except_table85
                 U __Unwind_Resume
000000000000d830 s __ZL13gPatternChars
0000000000009240 t __ZL14uprv_arrayCopyPKN6icu_5713UnicodeStringEPS0_i
000000000000d928 s __ZL15gLastResortEras
000000000000d990 s __ZL19gLastResortDayNames
000000000000d9c0 s __ZL19gLastResortQuarters
000000000000d940 s __ZL21gLastResortMonthNames
000000000000d9b0 s __ZL22gLastResortAmPmMarkers
0000000000000320 t __ZL9U_FAILURE10UErrorCode
000000000000be00 t __ZL9U_SUCCESS10UErrorCode
                 U __ZN6icu_5711LocaleBased12setLocaleIDsEPKcS2_
                 U __ZN6icu_5711LocaleBased12setLocaleIDsERKNS_6LocaleES3_
000000000000c280 T __ZN6icu_5711LocaleBasedC1EPKcS2_
0000000000006800 T __ZN6icu_5711LocaleBasedC1EPcS1_
000000000000c6c0 T __ZN6icu_5711LocaleBasedC2EPKcS2_
000000000000c4b0 T __ZN6icu_5711LocaleBasedC2EPcS1_
000000000000c470 T __ZN6icu_5711ReplaceableC2Ev
000000000000ce60 T __ZN6icu_5712CacheKeyBaseC2ERKS0_
000000000000cbe0 T __ZN6icu_5712CacheKeyBaseC2Ev
                 U __ZN6icu_5712CacheKeyBaseD2Ev
                 U __ZN6icu_5712CalendarData8getByKeyEPKcR10UErrorCode
                 U __ZN6icu_5712CalendarData9getByKey2EPKcS2_R10UErrorCode
                 U __ZN6icu_5712CalendarData9getByKey3EPKcS2_S2_R10UErrorCode
                 U __ZN6icu_5712CalendarDataC1ERKNS_6LocaleEPKcR10UErrorCode
                 U __ZN6icu_5712CalendarDataD1Ev
000000000000c020 T __ZN6icu_5712LocalPointerINS_15NumberingSystemEEC1EPS1_R10UErrorCode
000000000000cf00 T __ZN6icu_5712LocalPointerINS_15NumberingSystemEEC2EPS1_R10UErrorCode
000000000000c110 T __ZN6icu_5712LocalPointerINS_15NumberingSystemEED1Ev
000000000000cfd0 T __ZN6icu_5712LocalPointerINS_15NumberingSystemEED2Ev
000000000000c860 T __ZN6icu_5712SharedObject7copyPtrINS_23SharedDateFormatSymbolsEEEvPKT_RS5_
000000000000c8d0 T __ZN6icu_5712SharedObject8clearPtrINS_23SharedDateFormatSymbolsEEEvRPKT_
000000000000c340 T __ZN6icu_5712SharedObjectC2Ev
                 U __ZN6icu_5712SharedObjectD2Ev
0000000000000500 T __ZN6icu_5712UnifiedCache11getByLocaleINS_23SharedDateFormatSymbolsEEEvRKNS_6LocaleERPKT_R10UErrorCode
                 U __ZN6icu_5712UnifiedCache11getInstanceER10UErrorCode
                 U __ZN6icu_5713TimeZoneNames14createInstanceERKNS_6LocaleER10UErrorCode
                 U __ZN6icu_5713UnicodeString10setToBogusEv
000000000000c5c0 T __ZN6icu_5713UnicodeString10setToEmptyEv
                 U __ZN6icu_5713UnicodeString12fastCopyFromERKS0_
000000000000c5e0 T __ZN6icu_5713UnicodeString13setZeroLengthEv
000000000000b700 T __ZN6icu_5713UnicodeString5setToERKS0_
                 U __ZN6icu_5713UnicodeString5setToEaPKti
000000000000c150 T __ZN6icu_5713UnicodeString5setToEt
000000000000c570 T __ZN6icu_5713UnicodeString6removeEv
                 U __ZN6icu_5713UnicodeString7unBogusEv
                 U __ZN6icu_5713UnicodeString8copyFromERKS0_a
                 U __ZN6icu_5713UnicodeString8moveFromERS0_
                 U __ZN6icu_5713UnicodeString9doReplaceEiiPKtii
00000000000007b0 T __ZN6icu_5713UnicodeStringC1Ev
000000000000c430 T __ZN6icu_5713UnicodeStringC2Ev
                 U __ZN6icu_5713UnicodeStringD1Ev
000000000000c0c0 T __ZN6icu_5713UnicodeStringaSEOS0_
                 U __ZN6icu_5713UnicodeStringaSERKS0_
000000000000c740 T __ZN6icu_5714LocaleCacheKeyINS_23SharedDateFormatSymbolsEEC1ERKNS_6LocaleE
000000000000cd70 T __ZN6icu_5714LocaleCacheKeyINS_23SharedDateFormatSymbolsEEC1ERKS2_
000000000000c910 T __ZN6icu_5714LocaleCacheKeyINS_23SharedDateFormatSymbolsEEC2ERKNS_6LocaleE
000000000000cda0 T __ZN6icu_5714LocaleCacheKeyINS_23SharedDateFormatSymbolsEEC2ERKS2_
000000000000c9e0 T __ZN6icu_5714LocaleCacheKeyINS_23SharedDateFormatSymbolsEED0Ev
000000000000c770 T __ZN6icu_5714LocaleCacheKeyINS_23SharedDateFormatSymbolsEED1Ev
000000000000ceb0 T __ZN6icu_5714LocaleCacheKeyINS_23SharedDateFormatSymbolsEED2Ev
                 U __ZN6icu_5715NumberingSystem14createInstanceERKNS_6LocaleER10UErrorCode
000000000000c630 T __ZN6icu_5716LocalPointerBaseI15UResourceBundleEC2EPS1_
000000000000c6b0 T __ZN6icu_5716LocalPointerBaseI15UResourceBundleED2Ev
000000000000cfa0 T __ZN6icu_5716LocalPointerBaseINS_15NumberingSystemEEC2EPS1_
000000000000cfc0 T __ZN6icu_5716LocalPointerBaseINS_15NumberingSystemEED2Ev
0000000000006380 T __ZN6icu_5717DateFormatSymbols11assignArrayERPNS_13UnicodeStringERiPKS1_i
00000000000094c0 T __ZN6icu_5717DateFormatSymbols11setEraNamesEPKNS_13UnicodeStringEi
000000000000a890 T __ZN6icu_5717DateFormatSymbols11setQuartersEPKNS_13UnicodeStringEiNS0_13DtContextTypeENS0_11DtWidthTypeE
0000000000009e60 T __ZN6icu_5717DateFormatSymbols11setWeekdaysEPKNS_13UnicodeStringEi
000000000000a040 T __ZN6icu_5717DateFormatSymbols11setWeekdaysEPKNS_13UnicodeStringEiNS0_13DtContextTypeENS0_11DtWidthTypeE
0000000000007ec0 T __ZN6icu_5717DateFormatSymbols12arrayCompareEPKNS_13UnicodeStringES3_i
0000000000009130 T __ZN6icu_5717DateFormatSymbols12setYearNamesEPKNS_13UnicodeStringEiNS0_13DtContextTypeENS0_11DtWidthTypeE
00000000000095a0 T __ZN6icu_5717DateFormatSymbols13setNarrowErasEPKNS_13UnicodeStringEi
00000000000007d0 T __ZN6icu_5717DateFormatSymbols14initializeDataERKNS_6LocaleEPKcR10UErrorCodea
000000000000b7f0 T __ZN6icu_5717DateFormatSymbols14isNumericFieldE16UDateFormatFieldi
000000000000ad20 T __ZN6icu_5717DateFormatSymbols14setAmPmStringsEPKNS_13UnicodeStringEi
0000000000009760 T __ZN6icu_5717DateFormatSymbols14setShortMonthsEPKNS_13UnicodeStringEi
00000000000092d0 T __ZN6icu_5717DateFormatSymbols14setZodiacNamesEPKNS_13UnicodeStringEiNS0_13DtContextTypeENS0_11DtWidthTypeE
000000000000b730 T __ZN6icu_5717DateFormatSymbols14setZoneStringsEPKPKNS_13UnicodeStringEii
00000000000003d0 T __ZN6icu_5717DateFormatSymbols15createForLocaleERKNS_6LocaleER10UErrorCode
000000000000b780 T __ZN6icu_5717DateFormatSymbols16getPatternUCharsEv
00000000000003a0 T __ZN6icu_5717DateFormatSymbols16getStaticClassIDEv
0000000000009f50 T __ZN6icu_5717DateFormatSymbols16setShortWeekdaysEPKNS_13UnicodeStringEi
0000000000006600 T __ZN6icu_5717DateFormatSymbols17createZoneStringsEPKPKNS_13UnicodeStringE
0000000000007cd0 T __ZN6icu_5717DateFormatSymbols18disposeZoneStringsEv
000000000000b790 T __ZN6icu_5717DateFormatSymbols19getPatternCharIndexEt
000000000000af10 T __ZN6icu_5717DateFormatSymbols20initZoneStringsArrayEv
000000000000b890 T __ZN6icu_5717DateFormatSymbols20isNumericPatternCharEti
000000000000b8f0 T __ZN6icu_5717DateFormatSymbols20setLocalPatternCharsERKNS_13UnicodeStringE
000000000000ae10 T __ZN6icu_5717DateFormatSymbols22setTimeSeparatorStringERKNS_13UnicodeStringE
00000000000068d0 T __ZN6icu_5717DateFormatSymbols7disposeEv
00000000000093e0 T __ZN6icu_5717DateFormatSymbols7setErasEPKNS_13UnicodeStringEi
00000000000056a0 T __ZN6icu_5717DateFormatSymbols8copyDataERKS0_
0000000000009680 T __ZN6icu_5717DateFormatSymbols9setMonthsEPKNS_13UnicodeStringEi
0000000000009840 T __ZN6icu_5717DateFormatSymbols9setMonthsEPKNS_13UnicodeStringEiNS0_13DtContextTypeENS0_11DtWidthTypeE
0000000000005540 T __ZN6icu_5717DateFormatSymbolsC1EPKcR10UErrorCode
0000000000005290 T __ZN6icu_5717DateFormatSymbolsC1ER10UErrorCode
00000000000053e0 T __ZN6icu_5717DateFormatSymbolsC1ERKNS_6LocaleEPKcR10UErrorCode
0000000000005140 T __ZN6icu_5717DateFormatSymbolsC1ERKNS_6LocaleER10UErrorCode
0000000000000630 T __ZN6icu_5717DateFormatSymbolsC1ERKS0_
0000000000005420 T __ZN6icu_5717DateFormatSymbolsC2EPKcR10UErrorCode
0000000000005170 T __ZN6icu_5717DateFormatSymbolsC2ER10UErrorCode
00000000000052c0 T __ZN6icu_5717DateFormatSymbolsC2ERKNS_6LocaleEPKcR10UErrorCode
0000000000000680 T __ZN6icu_5717DateFormatSymbolsC2ERKNS_6LocaleER10UErrorCode
0000000000005570 T __ZN6icu_5717DateFormatSymbolsC2ERKS0_
0000000000007ca0 T __ZN6icu_5717DateFormatSymbolsD0Ev
0000000000000050 T __ZN6icu_5717DateFormatSymbolsD1Ev
0000000000007bc0 T __ZN6icu_5717DateFormatSymbolsD2Ev
0000000000006890 T __ZN6icu_5717DateFormatSymbolsaSERKS0_
000000000000b930 T __ZN6icu_5720loadDayPeriodStringsERNS_12CalendarDataEPKcaRiR10UErrorCode
0000000000000340 T __ZN6icu_5723SharedDateFormatSymbolsC1ERKNS_6LocaleEPKcR10UErrorCode
000000000000c2b0 T __ZN6icu_5723SharedDateFormatSymbolsC2ERKNS_6LocaleEPKcR10UErrorCode
0000000000000090 T __ZN6icu_5723SharedDateFormatSymbolsD0Ev
0000000000000070 T __ZN6icu_5723SharedDateFormatSymbolsD1Ev
0000000000000000 T __ZN6icu_5723SharedDateFormatSymbolsD2Ev
000000000000bd10 T __ZN6icu_5726ures_getUnicodeStringByKeyEPK15UResourceBundlePKcP10UErrorCode
000000000000c050 T __ZN6icu_5727LocalUResourceBundlePointerC1EP15UResourceBundle
000000000000c600 T __ZN6icu_5727LocalUResourceBundlePointerC2EP15UResourceBundle
000000000000c0f0 T __ZN6icu_5727LocalUResourceBundlePointerD1Ev
000000000000c650 T __ZN6icu_5727LocalUResourceBundlePointerD2Ev
                 U __ZN6icu_576Locale10getDefaultEv
                 U __ZN6icu_576LocaleC1ERKS0_
                 U __ZN6icu_576LocaleC1Ev
                 U __ZN6icu_576LocaleD1Ev
                 U __ZN6icu_576LocaleaSERKS0_
                 U __ZN6icu_577UMemorydaEPv
                 U __ZN6icu_577UMemorydlEPv
                 U __ZN6icu_577UMemorynaEm
                 U __ZN6icu_577UMemorynwEm
0000000000005680 T __ZN6icu_577UObjectC2ERKS0_
0000000000000790 T __ZN6icu_577UObjectC2Ev
                 U __ZN6icu_577UObjectD2Ev
000000000000ce20 T __ZN6icu_578CacheKeyINS_23SharedDateFormatSymbolsEEC2ERKS2_
000000000000c980 T __ZN6icu_578CacheKeyINS_23SharedDateFormatSymbolsEEC2Ev
000000000000cc40 T __ZN6icu_578CacheKeyINS_23SharedDateFormatSymbolsEED0Ev
000000000000cc30 T __ZN6icu_578CacheKeyINS_23SharedDateFormatSymbolsEED1Ev
000000000000c9c0 T __ZN6icu_578CacheKeyINS_23SharedDateFormatSymbolsEED2Ev
                 U __ZN6icu_578Calendar25getCalendarTypeFromLocaleERKNS_6LocaleEPciR10UErrorCode
                 U __ZN6icu_578Calendar6getNowEv
                 U __ZN6icu_578TimeZone27createTimeZoneIDEnumerationE19USystemTimeZoneTypePKcPKiR10UErrorCode
000000000000d911 s __ZN6icu_57L11gSymbolsTagE
000000000000da0b s __ZN6icu_57L12gDayNamesTagE
000000000000d8c5 s __ZN6icu_57L12gNamesAllTagE
000000000000da02 s __ZN6icu_57L12gQuartersTagE
000000000000d700 d __ZN6icu_57L13dayPeriodKeysE
000000000000d87c s __ZN6icu_57L13gDayPeriodTagE
000000000000d897 s __ZN6icu_57L13gNamesAbbrTagE
000000000000da6d s __ZN6icu_57L13gNamesLeapTagE
000000000000d8a3 s __ZN6icu_57L13gNamesWideTagE
000000000000d9d0 s __ZN6icu_57L14gMonthNamesTagE
000000000000da14 s __ZN6icu_57L14gNamesShortTagE
000000000000d9db s __ZN6icu_57L15gAmPmMarkersTagE
000000000000d8de s __ZN6icu_57L15gNamesFormatTagE
000000000000d8a8 s __ZN6icu_57L15gNamesNarrowTagE
000000000000d8d8 s __ZN6icu_57L16gNameSetYearsTagE
000000000000d8bd s __ZN6icu_57L16gNamesNumericTagE
000000000000d8af s __ZN6icu_57L17gMonthPatternsTagE
000000000000d919 s __ZN6icu_57L17gTimeSeparatorTagE
000000000000d8c9 s __ZN6icu_57L18gCyclicNameSetsTagE
000000000000d8e5 s __ZN6icu_57L18gNameSetZodiacsTagE
000000000000d902 s __ZN6icu_57L18gNumberElementsTagE
000000000000d5a0 s __ZN6icu_57L19contextUsageTypeMapE
000000000000d886 s __ZN6icu_57L19gNamesStandaloneTagE
000000000000be20 t __ZN6icu_57L20initLeapMonthPatternEPNS_13UnicodeStringEiPK15UResourceBundleR10UErrorCode
000000000000d9f0 s __ZN6icu_57L21gAmPmMarkersNarrowTagE
000000000000d8f0 s __ZN6icu_57L21gContextTransformsTagE
0000000000006420 t __ZN6icu_57L21newUnicodeStringArrayEm
000000000000d6c0 d __ZN6icu_57L4LOCKE
000000000000d892 s __ZN6icu_57L8gErasTagE
000000000000bf10 t __ZN6icu_57L9initFieldEPPNS_13UnicodeStringERiPK15UResourceBundleR10UErrorCode
000000000000c1a0 t __ZN6icu_57L9initFieldEPPNS_13UnicodeStringERiPKt14LastResortSizeS6_R10UErrorCode
                 U __ZNK6icu_5711LocaleBased9getLocaleE18ULocDataLocaleTypeR10UErrorCode
                 U __ZNK6icu_5712SharedObject6addRefEa
0000000000000380 T __ZNK6icu_5712SharedObject6addRefEv
                 U __ZNK6icu_5712SharedObject9removeRefEa
0000000000000660 T __ZNK6icu_5712SharedObject9removeRefEv
000000000000c790 T __ZNK6icu_5712UnifiedCache3getINS_23SharedDateFormatSymbolsEEEvRKNS_8CacheKeyIT_EEPKvRPKS4_R10UErrorCode
000000000000c6f0 T __ZNK6icu_5712UnifiedCache3getINS_23SharedDateFormatSymbolsEEEvRKNS_8CacheKeyIT_EERPKS4_R10UErrorCode
                 U __ZNK6icu_5712UnifiedCache4_getERKNS_12CacheKeyBaseERPKNS_12SharedObjectEPKvR10UErrorCode
000000000000c550 T __ZNK6icu_5713UnicodeString14getShortLengthEv
000000000000c530 T __ZNK6icu_5713UnicodeString14hasShortLengthEv
000000000000c4e0 T __ZNK6icu_5713UnicodeString6lengthEv
000000000000c130 T __ZNK6icu_5713UnicodeString7isBogusEv
000000000000bee0 T __ZNK6icu_5713UnicodeString7isEmptyEv
                 U __ZNK6icu_5713UnicodeString8doEqualsERKS0_i
0000000000008960 T __ZNK6icu_5713UnicodeStringeqERKS0_
0000000000007f50 T __ZNK6icu_5713UnicodeStringneERKS0_
00000000000000c0 T __ZNK6icu_5714LocaleCacheKeyINS_23SharedDateFormatSymbolsEE12createObjectEPKvR10UErrorCode
000000000000cb80 T __ZNK6icu_5714LocaleCacheKeyINS_23SharedDateFormatSymbolsEE16writeDescriptionEPci
000000000000ca50 T __ZNK6icu_5714LocaleCacheKeyINS_23SharedDateFormatSymbolsEE5cloneEv
000000000000ca10 T __ZNK6icu_5714LocaleCacheKeyINS_23SharedDateFormatSymbolsEE8hashCodeEv
000000000000cb00 T __ZNK6icu_5714LocaleCacheKeyINS_23SharedDateFormatSymbolsEEeqERKNS_12CacheKeyBaseE
                 U __ZNK6icu_5715NumberingSystem7getNameEv
000000000000c080 T __ZNK6icu_5716LocalPointerBaseI15UResourceBundleE8getAliasEv
000000000000c0a0 T __ZNK6icu_5716LocalPointerBaseINS_15NumberingSystemEEptEv
0000000000008a30 T __ZNK6icu_5717DateFormatSymbols11getEraNamesERi
0000000000008ec0 T __ZNK6icu_5717DateFormatSymbols11getQuartersERiNS0_13DtContextTypeENS0_11DtWidthTypeE
0000000000008c60 T __ZNK6icu_5717DateFormatSymbols11getWeekdaysERi
0000000000008cc0 T __ZNK6icu_5717DateFormatSymbols11getWeekdaysERiNS0_13DtContextTypeENS0_11DtWidthTypeE
0000000000009100 T __ZNK6icu_5717DateFormatSymbols12getYearNamesERiNS0_13DtContextTypeENS0_11DtWidthTypeE
0000000000008a50 T __ZNK6icu_5717DateFormatSymbols13getNarrowErasERi
00000000000090a0 T __ZNK6icu_5717DateFormatSymbols14getAmPmStringsERi
0000000000008a90 T __ZNK6icu_5717DateFormatSymbols14getShortMonthsERi
00000000000092a0 T __ZNK6icu_5717DateFormatSymbols14getZodiacNamesERiNS0_13DtContextTypeENS0_11DtWidthTypeE
000000000000ae50 T __ZNK6icu_5717DateFormatSymbols14getZoneStringsERiS1_
0000000000008c90 T __ZNK6icu_5717DateFormatSymbols16getShortWeekdaysERi
00000000000003b0 T __ZNK6icu_5717DateFormatSymbols17getDynamicClassIDEv
00000000000090d0 T __ZNK6icu_5717DateFormatSymbols20getLeapMonthPatternsERi
000000000000b8c0 T __ZNK6icu_5717DateFormatSymbols20getLocalPatternCharsERNS_13UnicodeStringE
0000000000009070 T __ZNK6icu_5717DateFormatSymbols22getTimeSeparatorStringERNS_13UnicodeStringE
0000000000008a10 T __ZNK6icu_5717DateFormatSymbols7getErasERi
0000000000006830 T __ZNK6icu_5717DateFormatSymbols9getLocaleE18ULocDataLocaleTypeR10UErrorCode
0000000000008a70 T __ZNK6icu_5717DateFormatSymbols9getMonthsERi
0000000000008ab0 T __ZNK6icu_5717DateFormatSymbols9getMonthsERiNS0_13DtContextTypeENS0_11DtWidthTypeE
0000000000007f80 T __ZNK6icu_5717DateFormatSymbolseqERKS0_
0000000000000610 T __ZNK6icu_5723SharedDateFormatSymbols3getEv
000000000000c000 T __ZNK6icu_576Locale7getNameEv
                 U __ZNK6icu_576Locale8hashCodeEv
                 U __ZNK6icu_576LocaleeqERKS0_
                 U __ZNK6icu_577UObject17getDynamicClassIDEv
000000000000cd10 T __ZNK6icu_578CacheKeyINS_23SharedDateFormatSymbolsEE16writeDescriptionEPci
000000000000cc50 T __ZNK6icu_578CacheKeyINS_23SharedDateFormatSymbolsEE8hashCodeEv
000000000000cca0 T __ZNK6icu_578CacheKeyINS_23SharedDateFormatSymbolsEEeqERKNS_12CacheKeyBaseE
                 U __ZSt9terminatev
                 U __ZTIN6icu_5712CacheKeyBaseE
                 U __ZTIN6icu_5712SharedObjectE
000000000000d7c0 D __ZTIN6icu_5714LocaleCacheKeyINS_23SharedDateFormatSymbolsEEE
000000000000d6a0 S __ZTIN6icu_5717DateFormatSymbolsE
000000000000d680 S __ZTIN6icu_5723SharedDateFormatSymbolsE
                 U __ZTIN6icu_577UObjectE
000000000000d7a0 D __ZTIN6icu_578CacheKeyINS_23SharedDateFormatSymbolsEEE
000000000000da80 S __ZTSN6icu_5714LocaleCacheKeyINS_23SharedDateFormatSymbolsEEE
000000000000da50 S __ZTSN6icu_5717DateFormatSymbolsE
000000000000da20 S __ZTSN6icu_5723SharedDateFormatSymbolsE
000000000000dac0 S __ZTSN6icu_578CacheKeyINS_23SharedDateFormatSymbolsEEE
                 U __ZTVN10__cxxabiv120__si_class_type_infoE
                 U __ZTVN6icu_5711ReplaceableE
                 U __ZTVN6icu_5712CacheKeyBaseE
                 U __ZTVN6icu_5712SharedObjectE
                 U __ZTVN6icu_5713UnicodeStringE
000000000000d750 D __ZTVN6icu_5714LocaleCacheKeyINS_23SharedDateFormatSymbolsEEE
000000000000d578 S __ZTVN6icu_5717DateFormatSymbolsE
000000000000d550 S __ZTVN6icu_5723SharedDateFormatSymbolsE
                 U __ZTVN6icu_577UObjectE
000000000000d7d8 D __ZTVN6icu_578CacheKeyINS_23SharedDateFormatSymbolsEEE
0000000000010610 b __ZZN6icu_5717DateFormatSymbols16getStaticClassIDEvE7classID
0000000000007c90 T ___clang_call_terminate
                 U ___cxa_bad_typeid
                 U ___cxa_begin_catch
                 U ___cxa_pure_virtual
                 U ___gxx_personality_v0
                 U ___stack_chk_fail
                 U ___stack_chk_guard
                 U _memcmp
                 U _memset
                 U _strcmp
                 U _strlen
                 U _strncpy
                 U _u_strchr_57
                 U _umtx_lock_57
                 U _umtx_unlock_57
                 U _uprv_free_57
                 U _uprv_malloc_57
                 U _ures_close_57
                 U _ures_getByKeyWithFallback_57
                 U _ures_getIntVector_57
                 U _ures_getKey_57
                 U _ures_getLocaleByType_57
                 U _ures_getNextResource_57
                 U _ures_getSize_57
                 U _ures_getStringByIndex_57
                 U _ures_getStringByKey_57
                 U _ures_open_57
                 U _ustr_hashCharsN_57

libicui18n.a(udat.ao):
00000000000040f0 s GCC_except_table13
000000000000412c s GCC_except_table14
0000000000004158 s GCC_except_table15
0000000000004184 s GCC_except_table16
00000000000041c0 s GCC_except_table21
00000000000041fc s GCC_except_table31
0000000000004228 s GCC_except_table39
0000000000004038 s GCC_except_table4
0000000000004254 s GCC_except_table40
0000000000004280 s GCC_except_table41
00000000000040b4 s GCC_except_table7
00000000000042ac s GCC_except_table72
00000000000042d8 s GCC_except_table74
0000000000004304 s GCC_except_table75
                 U __Unwind_Resume
0000000000004340 d __ZL17gDateFieldMapping
00000000000017b0 t __ZL24verifyIsSimpleDateFormatPKPvP10UErrorCode
0000000000003970 t __ZL26verifyIsRelativeDateFormatPKPvP10UErrorCode
0000000000005ca8 b __ZL7gOpener
0000000000000090 t __ZL9U_FAILURE10UErrorCode
0000000000003720 t __ZL9U_SUCCESS10UErrorCode
                 U __ZN6icu_5710DateFormat22createDateTimeInstanceENS0_6EStyleES1_RKNS_6LocaleE
0000000000003da0 T __ZN6icu_5711ReplaceableC2Ev
0000000000000ab0 T __ZN6icu_5713FieldPosition8setFieldEi
0000000000000a90 T __ZN6icu_5713FieldPositionC1Ev
0000000000003e00 T __ZN6icu_5713FieldPositionC2Ev
                 U __ZN6icu_5713FieldPositionD1Ev
0000000000001300 T __ZN6icu_5713ParsePosition8setIndexEi
00000000000012e0 T __ZN6icu_5713ParsePositionC1Ev
0000000000003e70 T __ZN6icu_5713ParsePositionC2Ev
                 U __ZN6icu_5713ParsePositionD1Ev
0000000000003f60 T __ZN6icu_5713UnicodeString5setToEPKti
                 U __ZN6icu_5713UnicodeString5setToEPtii
                 U __ZN6icu_5713UnicodeString7unBogusEv
                 U __ZN6icu_5713UnicodeString9doReplaceEiiPKtii
                 U __ZN6icu_5713UnicodeStringC1EPKt
                 U __ZN6icu_5713UnicodeStringC1EaPKti
0000000000000a70 T __ZN6icu_5713UnicodeStringC1Ev
0000000000003d60 T __ZN6icu_5713UnicodeStringC2Ev
                 U __ZN6icu_5713UnicodeStringD1Ev
                 U __ZN6icu_5716SimpleDateFormat17adoptNumberFormatERKNS_13UnicodeStringEPNS_12NumberFormatER10UErrorCode
                 U __ZN6icu_5716SimpleDateFormatC1ERKNS_13UnicodeStringER10UErrorCode
                 U __ZN6icu_5716SimpleDateFormatC1ERKNS_13UnicodeStringERKNS_6LocaleER10UErrorCode
0000000000002f70 T __ZN6icu_5729DateFormatSymbolsSingleSetter10setEraNameEPNS_17DateFormatSymbolsEiPKtiR10UErrorCode
0000000000003420 T __ZN6icu_5729DateFormatSymbolsSingleSetter10setQuarterEPNS_17DateFormatSymbolsEiPKtiR10UErrorCode
00000000000031a0 T __ZN6icu_5729DateFormatSymbolsSingleSetter10setWeekdayEPNS_17DateFormatSymbolsEiPKtiR10UErrorCode
0000000000003010 T __ZN6icu_5729DateFormatSymbolsSingleSetter13setShortMonthEPNS_17DateFormatSymbolsEiPKtiR10UErrorCode
0000000000003060 T __ZN6icu_5729DateFormatSymbolsSingleSetter14setNarrowMonthEPNS_17DateFormatSymbolsEiPKtiR10UErrorCode
0000000000003470 T __ZN6icu_5729DateFormatSymbolsSingleSetter15setShortQuarterEPNS_17DateFormatSymbolsEiPKtiR10UErrorCode
00000000000031f0 T __ZN6icu_5729DateFormatSymbolsSingleSetter15setShortWeekdayEPNS_17DateFormatSymbolsEiPKtiR10UErrorCode
0000000000003290 T __ZN6icu_5729DateFormatSymbolsSingleSetter16setNarrowWeekdayEPNS_17DateFormatSymbolsEiPKtiR10UErrorCode
0000000000003560 T __ZN6icu_5729DateFormatSymbolsSingleSetter17setShortYearNamesEPNS_17DateFormatSymbolsEiPKtiR10UErrorCode
0000000000003240 T __ZN6icu_5729DateFormatSymbolsSingleSetter17setShorterWeekdayEPNS_17DateFormatSymbolsEiPKtiR10UErrorCode
00000000000030b0 T __ZN6icu_5729DateFormatSymbolsSingleSetter18setStandaloneMonthEPNS_17DateFormatSymbolsEiPKtiR10UErrorCode
00000000000035b0 T __ZN6icu_5729DateFormatSymbolsSingleSetter19setShortZodiacNamesEPNS_17DateFormatSymbolsEiPKtiR10UErrorCode
0000000000003650 T __ZN6icu_5729DateFormatSymbolsSingleSetter20setLocalPatternCharsEPNS_17DateFormatSymbolsEPKtiR10UErrorCode
00000000000034c0 T __ZN6icu_5729DateFormatSymbolsSingleSetter20setStandaloneQuarterEPNS_17DateFormatSymbolsEiPKtiR10UErrorCode
00000000000032e0 T __ZN6icu_5729DateFormatSymbolsSingleSetter20setStandaloneWeekdayEPNS_17DateFormatSymbolsEiPKtiR10UErrorCode
0000000000003100 T __ZN6icu_5729DateFormatSymbolsSingleSetter23setStandaloneShortMonthEPNS_17DateFormatSymbolsEiPKtiR10UErrorCode
0000000000003150 T __ZN6icu_5729DateFormatSymbolsSingleSetter24setStandaloneNarrowMonthEPNS_17DateFormatSymbolsEiPKtiR10UErrorCode
0000000000003510 T __ZN6icu_5729DateFormatSymbolsSingleSetter25setStandaloneShortQuarterEPNS_17DateFormatSymbolsEiPKtiR10UErrorCode
0000000000003330 T __ZN6icu_5729DateFormatSymbolsSingleSetter25setStandaloneShortWeekdayEPNS_17DateFormatSymbolsEiPKtiR10UErrorCode
00000000000033d0 T __ZN6icu_5729DateFormatSymbolsSingleSetter26setStandaloneNarrowWeekdayEPNS_17DateFormatSymbolsEiPKtiR10UErrorCode
0000000000003380 T __ZN6icu_5729DateFormatSymbolsSingleSetter27setStandaloneShorterWeekdayEPNS_17DateFormatSymbolsEiPKtiR10UErrorCode
0000000000002f20 T __ZN6icu_5729DateFormatSymbolsSingleSetter6setEraEPNS_17DateFormatSymbolsEiPKtiR10UErrorCode
0000000000003600 T __ZN6icu_5729DateFormatSymbolsSingleSetter7setAmPmEPNS_17DateFormatSymbolsEiPKtiR10UErrorCode
0000000000002fc0 T __ZN6icu_5729DateFormatSymbolsSingleSetter8setMonthEPNS_17DateFormatSymbolsEiPKtiR10UErrorCode
0000000000003ed0 T __ZN6icu_5729DateFormatSymbolsSingleSetter9setSymbolEPNS_13UnicodeStringEiiPKtiR10UErrorCode
                 U __ZN6icu_576Locale10getDefaultEv
                 U __ZN6icu_576LocaleC1EPKcS2_S2_S2_
                 U __ZN6icu_576LocaleD1Ev
                 U __ZN6icu_577UMemorydlEPv
                 U __ZN6icu_577UMemorynwEm
0000000000003de0 T __ZN6icu_577UObjectC2Ev
                 U __ZN6icu_578TimeZone14createTimeZoneERKNS_13UnicodeStringE
                 U __ZNK6icu_5710DateFormat5parseERKNS_13UnicodeStringERNS_13ParsePositionE
                 U __ZNK6icu_5710DateFormat6formatEdRNS_13UnicodeStringEPNS_21FieldPositionIteratorER10UErrorCode
                 U __ZNK6icu_5710DateFormat6formatEdRNS_13UnicodeStringERNS_13FieldPositionE
0000000000000af0 T __ZNK6icu_5713FieldPosition11getEndIndexEv
0000000000000ad0 T __ZNK6icu_5713FieldPosition13getBeginIndexEv
0000000000001320 T __ZNK6icu_5713ParsePosition13getErrorIndexEv
0000000000001340 T __ZNK6icu_5713ParsePosition8getIndexEv
0000000000004020 T __ZNK6icu_5713UnicodeString14getShortLengthEv
0000000000004000 T __ZNK6icu_5713UnicodeString14hasShortLengthEv
0000000000003fb0 T __ZNK6icu_5713UnicodeString6lengthEv
                 U __ZNK6icu_5713UnicodeString7extractEPtiR10UErrorCode
0000000000001a70 T __ZNK6icu_5716SimpleDateFormat18get2DigitYearStartER10UErrorCode
                 U __ZNK6icu_5716SimpleDateFormat23getNumberFormatForFieldEt
                 U __ZNK6icu_5717DateFormatSymbols11getEraNamesERi
                 U __ZNK6icu_5717DateFormatSymbols11getQuartersERiNS0_13DtContextTypeENS0_11DtWidthTypeE
                 U __ZNK6icu_5717DateFormatSymbols11getWeekdaysERi
                 U __ZNK6icu_5717DateFormatSymbols11getWeekdaysERiNS0_13DtContextTypeENS0_11DtWidthTypeE
                 U __ZNK6icu_5717DateFormatSymbols12getYearNamesERiNS0_13DtContextTypeENS0_11DtWidthTypeE
                 U __ZNK6icu_5717DateFormatSymbols14getAmPmStringsERi
                 U __ZNK6icu_5717DateFormatSymbols14getShortMonthsERi
                 U __ZNK6icu_5717DateFormatSymbols14getZodiacNamesERiNS0_13DtContextTypeENS0_11DtWidthTypeE
                 U __ZNK6icu_5717DateFormatSymbols16getShortWeekdaysERi
                 U __ZNK6icu_5717DateFormatSymbols20getLocalPatternCharsERNS_13UnicodeStringE
                 U __ZNK6icu_5717DateFormatSymbols7getErasERi
                 U __ZNK6icu_5717DateFormatSymbols9getMonthsERi
                 U __ZNK6icu_5717DateFormatSymbols9getMonthsERiNS0_13DtContextTypeENS0_11DtWidthTypeE
                 U __ZNK6icu_576Format11getLocaleIDE18ULocDataLocaleTypeR10UErrorCode
                 U __ZTIN6icu_5710DateFormatE
                 U __ZTIN6icu_5716SimpleDateFormatE
                 U __ZTIN6icu_5718RelativeDateFormatE
                 U __ZTVN6icu_5711ReplaceableE
                 U __ZTVN6icu_5713FieldPositionE
                 U __ZTVN6icu_5713ParsePositionE
                 U __ZTVN6icu_5713UnicodeStringE
                 U __ZTVN6icu_577UObjectE
                 U ___dynamic_cast
                 U ___gxx_personality_v0
                 U ___stack_chk_fail
                 U ___stack_chk_guard
                 U _memset
0000000000001880 T _udat_adoptNumberFormatForFields_57
00000000000019a0 T _udat_adoptNumberFormat_57
0000000000003b90 T _udat_applyPatternRelative_57
0000000000001e20 T _udat_applyPattern_57
00000000000007b0 T _udat_clone_57
0000000000000770 T _udat_close_57
0000000000001a00 T _udat_countAvailable_57
0000000000002650 T _udat_countSymbols_57
0000000000000ef0 T _udat_formatCalendarForFields_57
0000000000000b10 T _udat_formatCalendar_57
0000000000000d70 T _udat_formatForFields_57
0000000000000830 T _udat_format_57
0000000000001a10 T _udat_get2DigitYearStart_57
00000000000019e0 T _udat_getAvailable_57
00000000000015f0 T _udat_getBooleanAttribute_57
00000000000016c0 T _udat_getCalendar_57
0000000000003790 T _udat_getContext_57
00000000000036b0 T _udat_getLocaleByType_57
0000000000001730 T _udat_getNumberFormatForField_57
0000000000001850 T _udat_getNumberFormat_57
0000000000001f70 T _udat_getSymbols_57
0000000000001580 T _udat_isLenient_57
0000000000000150 T _udat_open_57
0000000000001360 T _udat_parseCalendar_57
00000000000010a0 T _udat_parse_57
0000000000000020 T _udat_registerOpener_57
0000000000001a90 T _udat_set2DigitYearStart_57
0000000000001650 T _udat_setBooleanAttribute_57
00000000000016f0 T _udat_setCalendar_57
0000000000003740 T _udat_setContext_57
00000000000015b0 T _udat_setLenient_57
0000000000001960 T _udat_setNumberFormat_57
0000000000002b70 T _udat_setSymbols_57
0000000000000000 T _udat_toCalendarDateField_57
00000000000037f0 T _udat_toPatternRelativeDate_57
0000000000003a10 T _udat_toPatternRelativeTime_57
0000000000001af0 T _udat_toPattern_57
00000000000000b0 T _udat_unregisterOpener_57
                 U _uloc_countAvailable_57
                 U _uloc_getAvailable_57
                 U _umtx_lock_57
                 U _umtx_unlock_57

libicui18n.a(dtptngen.ao):
000000000000e184 s GCC_except_table102
000000000000e1f4 s GCC_except_table104
000000000000e220 s GCC_except_table105
000000000000e268 s GCC_except_table106
000000000000e318 s GCC_except_table108
000000000000e36c s GCC_except_table119
000000000000e3cc s GCC_except_table132
000000000000e3ec s GCC_except_table135
000000000000e40c s GCC_except_table137
000000000000e438 s GCC_except_table139
000000000000da30 s GCC_except_table14
000000000000e458 s GCC_except_table140
000000000000e4d4 s GCC_except_table145
000000000000e500 s GCC_except_table146
000000000000e53c s GCC_except_table147
000000000000da50 s GCC_except_table16
000000000000e55c s GCC_except_table160
000000000000e588 s GCC_except_table165
000000000000e5a8 s GCC_except_table172
000000000000e5c8 s GCC_except_table175
000000000000e5f4 s GCC_except_table176
000000000000e630 s GCC_except_table179
000000000000e65c s GCC_except_table183
000000000000e6d8 s GCC_except_table189
000000000000e700 s GCC_except_table198
000000000000e728 s GCC_except_table205
000000000000e740 s GCC_except_table209
000000000000e76c s GCC_except_table218
000000000000daf4 s GCC_except_table23
000000000000e798 s GCC_except_table230
000000000000e7c4 s GCC_except_table234
000000000000e7dc s GCC_except_table236
000000000000e808 s GCC_except_table241
000000000000dba4 s GCC_except_table25
000000000000e820 s GCC_except_table251
000000000000e84c s GCC_except_table255
000000000000dc54 s GCC_except_table26
000000000000dc80 s GCC_except_table32
000000000000dcac s GCC_except_table43
000000000000dce8 s GCC_except_table44
000000000000dd58 s GCC_except_table45
000000000000ddf0 s GCC_except_table46
000000000000de2c s GCC_except_table47
000000000000de58 s GCC_except_table49
000000000000de94 s GCC_except_table50
000000000000ded0 s GCC_except_table64
000000000000df18 s GCC_except_table66
000000000000df60 s GCC_except_table67
000000000000d9f4 s GCC_except_table7
000000000000df8c s GCC_except_table71
000000000000dfd4 s GCC_except_table72
000000000000e01c s GCC_except_table73
000000000000e048 s GCC_except_table74
000000000000e090 s GCC_except_table76
000000000000e0f0 s GCC_except_table85
000000000000e11c s GCC_except_table93
000000000000e13c s GCC_except_table96
                 U __Unwind_Resume
0000000000000210 t __ZL9U_FAILURE10UErrorCode
0000000000000290 t __ZL9U_SUCCESS10UErrorCode
0000000000004d30 T __ZN6icu_5710CharString4dataEv
                 U __ZN6icu_5710CharString6appendEPKciR10UErrorCode
                 U __ZN6icu_5710CharString6appendEcR10UErrorCode
0000000000004d10 T __ZN6icu_5710CharStringC1Ev
000000000000d2b0 T __ZN6icu_5710CharStringC2Ev
0000000000004d50 T __ZN6icu_5710CharStringD1Ev
000000000000d420 T __ZN6icu_5710CharStringD2Ev
                 U __ZN6icu_5710DateFormat18createDateInstanceENS0_6EStyleERKNS_6LocaleE
                 U __ZN6icu_5710DateFormat18createTimeInstanceENS0_6EStyleERKNS_6LocaleE
000000000000a910 T __ZN6icu_5710PatternMap16getDuplicateElemERKNS_13UnicodeStringERKNS_11PtnSkeletonEPNS_7PtnElemE
0000000000008bf0 T __ZN6icu_5710PatternMap22getPatternFromSkeletonERNS_11PtnSkeletonEPPKS1_
0000000000008b20 T __ZN6icu_5710PatternMap25getPatternFromBasePatternERNS_13UnicodeStringERa
0000000000008e40 T __ZN6icu_5710PatternMap3addERKNS_13UnicodeStringERKNS_11PtnSkeletonES3_aR10UErrorCode
0000000000002390 T __ZN6icu_5710PatternMap6equalsERKS0_
0000000000001e60 T __ZN6icu_5710PatternMap8copyFromERKS0_R10UErrorCode
0000000000009be0 T __ZN6icu_5710PatternMap9getHeaderEt
0000000000000b20 T __ZN6icu_5710PatternMapC1Ev
000000000000a760 T __ZN6icu_5710PatternMapC2Ev
000000000000a8e0 T __ZN6icu_5710PatternMapD0Ev
000000000000a8c0 T __ZN6icu_5710PatternMapD1Ev
000000000000a820 T __ZN6icu_5710PatternMapD2Ev
00000000000052b0 T __ZN6icu_5711PtnSkeleton11getSkeletonEv
0000000000005650 T __ZN6icu_5711PtnSkeleton15getBaseSkeletonEv
000000000000aa70 T __ZN6icu_5711PtnSkeleton6equalsERKS0_
000000000000a7f0 T __ZN6icu_5711PtnSkeletonC1ERKS0_
0000000000004ea0 T __ZN6icu_5711PtnSkeletonC1Ev
000000000000b520 T __ZN6icu_5711PtnSkeletonC2ERKS0_
000000000000b360 T __ZN6icu_5711PtnSkeletonC2Ev
000000000000b890 T __ZN6icu_5711PtnSkeletonD0Ev
0000000000005390 T __ZN6icu_5711PtnSkeletonD1Ev
000000000000b7e0 T __ZN6icu_5711PtnSkeletonD2Ev
000000000000d690 T __ZN6icu_5711PtnSkeletonaSERKS0_
000000000000c610 T __ZN6icu_5711ReplaceableC2Ev
                 U __ZN6icu_5712CalendarData8getByKeyEPKcR10UErrorCode
                 U __ZN6icu_5712CalendarDataC1ERKNS_6LocaleEPKcR10UErrorCode
                 U __ZN6icu_5712CalendarDataD1Ev
000000000000acb0 T __ZN6icu_5712DistanceInfo10addMissingEi
000000000000ac60 T __ZN6icu_5712DistanceInfo5clearEv
0000000000009730 T __ZN6icu_5712DistanceInfo5setToERS0_
000000000000ac80 T __ZN6icu_5712DistanceInfo8addExtraEi
0000000000000b00 T __ZN6icu_5712DistanceInfoC1Ev
000000000000c650 T __ZN6icu_5712DistanceInfoC2Ev
000000000000b1e0 T __ZN6icu_5712DistanceInfoD0Ev
0000000000009780 T __ZN6icu_5712DistanceInfoD1Ev
000000000000b1d0 T __ZN6icu_5712DistanceInfoD2Ev
0000000000001e00 T __ZN6icu_5712DistanceInfoaSERKS0_
0000000000005e60 T __ZN6icu_5712FormatParser14isQuoteLiteralERKNS_13UnicodeStringE
0000000000005e90 T __ZN6icu_5712FormatParser15getQuoteLiteralERNS_13UnicodeStringEPi
00000000000097a0 T __ZN6icu_5712FormatParser17getCanonicalIndexERKNS_13UnicodeStringE
000000000000b030 T __ZN6icu_5712FormatParser17getCanonicalIndexERKNS_13UnicodeStringEa
00000000000060b0 T __ZN6icu_5712FormatParser18isPatternSeparatorERNS_13UnicodeStringE
0000000000005d10 T __ZN6icu_5712FormatParser3setERKNS_13UnicodeStringE
000000000000af00 T __ZN6icu_5712FormatParser9setTokensERKNS_13UnicodeStringEiPi
0000000000000ac0 T __ZN6icu_5712FormatParserC1Ev
000000000000ad70 T __ZN6icu_5712FormatParserC2Ev
000000000000aed0 T __ZN6icu_5712FormatParserD0Ev
00000000000053d0 T __ZN6icu_5712FormatParserD1Ev
000000000000ae60 T __ZN6icu_5712FormatParserD2Ev
0000000000001ca0 T __ZN6icu_5712FormatParseraSERKS0_
0000000000000260 T __ZN6icu_5712LocalPointerINS_24DateTimePatternGeneratorEEC1EPS1_R10UErrorCode
000000000000d8e0 T __ZN6icu_5712LocalPointerINS_24DateTimePatternGeneratorEEC2EPS1_R10UErrorCode
00000000000002d0 T __ZN6icu_5712LocalPointerINS_24DateTimePatternGeneratorEED1Ev
000000000000d9b0 T __ZN6icu_5712LocalPointerINS_24DateTimePatternGeneratorEED2Ev
000000000000cb70 t __ZN6icu_5712_GLOBAL__N_122AllowedHourFormatsSink10LocaleSink20getOrCreateArraySinkEPKciR10UErrorCode
000000000000ca10 t __ZN6icu_5712_GLOBAL__N_122AllowedHourFormatsSink10LocaleSink3putEPKcRKNS_13ResourceValueER10UErrorCode
000000000000cc40 t __ZN6icu_5712_GLOBAL__N_122AllowedHourFormatsSink10LocaleSink5leaveER10UErrorCode
000000000000c890 t __ZN6icu_5712_GLOBAL__N_122AllowedHourFormatsSink10LocaleSinkC1ERS1_
000000000000c9a0 t __ZN6icu_5712_GLOBAL__N_122AllowedHourFormatsSink10LocaleSinkC2ERS1_
000000000000c9e0 t __ZN6icu_5712_GLOBAL__N_122AllowedHourFormatsSink10LocaleSinkD0Ev
000000000000c8f0 t __ZN6icu_5712_GLOBAL__N_122AllowedHourFormatsSink10LocaleSinkD1Ev
000000000000d1c0 t __ZN6icu_5712_GLOBAL__N_122AllowedHourFormatsSink10LocaleSinkD2Ev
000000000000d0a0 t __ZN6icu_5712_GLOBAL__N_122AllowedHourFormatsSink15AllowedListSink3putEiRKNS_13ResourceValueER10UErrorCode
000000000000c8c0 t __ZN6icu_5712_GLOBAL__N_122AllowedHourFormatsSink15AllowedListSinkC1ERS1_
000000000000cfd0 t __ZN6icu_5712_GLOBAL__N_122AllowedHourFormatsSink15AllowedListSinkC2ERS1_
000000000000d070 t __ZN6icu_5712_GLOBAL__N_122AllowedHourFormatsSink15AllowedListSinkD0Ev
000000000000d050 t __ZN6icu_5712_GLOBAL__N_122AllowedHourFormatsSink15AllowedListSinkD1Ev
000000000000d1a0 t __ZN6icu_5712_GLOBAL__N_122AllowedHourFormatsSink15AllowedListSinkD2Ev
000000000000c940 t __ZN6icu_5712_GLOBAL__N_122AllowedHourFormatsSink20getOrCreateTableSinkEPKciR10UErrorCode
000000000000ccf0 t __ZN6icu_5712_GLOBAL__N_122AllowedHourFormatsSink30getHourFormatFromUnicodeStringENS_13UnicodeStringE
0000000000004c10 t __ZN6icu_5712_GLOBAL__N_122AllowedHourFormatsSinkC1Ev
000000000000c7b0 t __ZN6icu_5712_GLOBAL__N_122AllowedHourFormatsSinkC2Ev
000000000000c910 t __ZN6icu_5712_GLOBAL__N_122AllowedHourFormatsSinkD0Ev
0000000000004c70 t __ZN6icu_5712_GLOBAL__N_122AllowedHourFormatsSinkD1Ev
000000000000d1e0 t __ZN6icu_5712_GLOBAL__N_122AllowedHourFormatsSinkD2Ev
0000000000004bc0 t __ZN6icu_5712_GLOBAL__N_124deleteAllowedHourFormatsEPv
0000000000004c50 t __ZN6icu_5712_GLOBAL__N_125allowedHourFormatsCleanupEv
0000000000014110 b __ZN6icu_5712_GLOBAL__N_129localeToAllowedHourFormatsMapE
0000000000014118 b __ZN6icu_5712_GLOBAL__N_18initOnceE
                 U __ZN6icu_5713UnicodeString10setToBogusEv
000000000000d5d0 T __ZN6icu_5713UnicodeString10setToEmptyEv
000000000000d5f0 T __ZN6icu_5713UnicodeString13setZeroLengthEv
                 U __ZN6icu_5713UnicodeString19getTerminatedBufferEv
                 U __ZN6icu_5713UnicodeString5setToEaPKti
0000000000007480 T __ZN6icu_5713UnicodeString6removeEv
                 U __ZN6icu_5713UnicodeString8doAppendEPKtii
                 U __ZN6icu_5713UnicodeString8doAppendERKS0_ii
                 U __ZN6icu_5713UnicodeString8moveFromERS0_
                 U __ZN6icu_5713UnicodeString9doReplaceEiiPKtii
                 U __ZN6icu_5713UnicodeString9setCharAtEit
                 U __ZN6icu_5713UnicodeStringC1EOS0_
                 U __ZN6icu_5713UnicodeStringC1EPKciNS0_10EInvariantE
                 U __ZN6icu_5713UnicodeStringC1EPKt
                 U __ZN6icu_5713UnicodeStringC1ERKS0_
                 U __ZN6icu_5713UnicodeStringC1ERKS0_ii
                 U __ZN6icu_5713UnicodeStringC1EaPKti
                 U __ZN6icu_5713UnicodeStringC1Et
0000000000000aa0 T __ZN6icu_5713UnicodeStringC1Ev
000000000000c5d0 T __ZN6icu_5713UnicodeStringC2Ev
                 U __ZN6icu_5713UnicodeStringD1Ev
0000000000006350 T __ZN6icu_5713UnicodeStringaSEOS0_
                 U __ZN6icu_5713UnicodeStringaSERKS0_
00000000000061e0 T __ZN6icu_5713UnicodeStringaSEt
0000000000006060 T __ZN6icu_5713UnicodeStringpLERKS0_
0000000000006230 T __ZN6icu_5713UnicodeStringpLEt
00000000000045c0 T __ZN6icu_5713umtx_initOnceERNS_9UInitOnceEPFvR10UErrorCodeES3_
000000000000a3a0 T __ZN6icu_5715DateTimeMatcher10getPatternEv
00000000000095f0 T __ZN6icu_5715DateTimeMatcher11getDistanceERKS0_iRNS_12DistanceInfoE
0000000000008210 T __ZN6icu_5715DateTimeMatcher12getFieldMaskEv
0000000000008a70 T __ZN6icu_5715DateTimeMatcher14getBasePatternERNS_13UnicodeStringE
0000000000009710 T __ZN6icu_5715DateTimeMatcher14getSkeletonPtrEv
00000000000074d0 T __ZN6icu_5715DateTimeMatcher3setERKNS_13UnicodeStringEPNS_12FormatParserE
0000000000004ec0 T __ZN6icu_5715DateTimeMatcher3setERKNS_13UnicodeStringEPNS_12FormatParserERNS_11PtnSkeletonE
0000000000001d30 T __ZN6icu_5715DateTimeMatcher8copyFromERKNS_11PtnSkeletonE
000000000000ace0 T __ZN6icu_5715DateTimeMatcher8copyFromEv
0000000000001e30 T __ZN6icu_5715DateTimeMatcherC1ERKS0_
0000000000000ae0 T __ZN6icu_5715DateTimeMatcherC1Ev
000000000000abf0 T __ZN6icu_5715DateTimeMatcherC2ERKS0_
000000000000ab60 T __ZN6icu_5715DateTimeMatcherC2Ev
000000000000abc0 T __ZN6icu_5715DateTimeMatcherD0Ev
00000000000053b0 T __ZN6icu_5715DateTimeMatcherD1Ev
000000000000ab90 T __ZN6icu_5715DateTimeMatcherD2Ev
000000000000a360 T __ZN6icu_5715DateTimeMatcheraSERKS0_
000000000000d3d0 T __ZN6icu_5715MaybeStackArrayIcLi40EE12releaseArrayEv
000000000000d310 T __ZN6icu_5715MaybeStackArrayIcLi40EEC1Ev
000000000000d370 T __ZN6icu_5715MaybeStackArrayIcLi40EEC2Ev
000000000000d350 T __ZN6icu_5715MaybeStackArrayIcLi40EED1Ev
000000000000d3a0 T __ZN6icu_5715MaybeStackArrayIcLi40EED2Ev
000000000000d330 T __ZN6icu_5715MaybeStackArrayIcLi40EEixEl
                 U __ZN6icu_5715SimpleFormatter27applyPatternMinMaxArgumentsERKNS_13UnicodeStringEiiR10UErrorCode
0000000000008860 T __ZN6icu_5715SimpleFormatterC1ERKNS_13UnicodeStringEiiR10UErrorCode
000000000000d610 T __ZN6icu_5715SimpleFormatterC2ERKNS_13UnicodeStringEiiR10UErrorCode
                 U __ZN6icu_5715SimpleFormatterD1Ev
000000000000c790 T __ZN6icu_5716LocalPointerBaseI15UResourceBundleEC2EPS1_
000000000000d2a0 T __ZN6icu_5716LocalPointerBaseI15UResourceBundleED2Ev
00000000000002b0 T __ZN6icu_5716LocalPointerBaseINS_24DateTimePatternGeneratorEE6orphanEv
000000000000d980 T __ZN6icu_5716LocalPointerBaseINS_24DateTimePatternGeneratorEEC2EPS1_
000000000000d9a0 T __ZN6icu_5716LocalPointerBaseINS_24DateTimePatternGeneratorEED2Ev
000000000000c6e0 T __ZN6icu_5716umtx_loadAcquireERNSt3__16atomicIiEE
                 U __ZN6icu_5717ResourceArraySink20getOrCreateArraySinkEiiR10UErrorCode
                 U __ZN6icu_5717ResourceArraySink20getOrCreateTableSinkEiiR10UErrorCode
                 U __ZN6icu_5717ResourceArraySink5leaveER10UErrorCode
000000000000d010 T __ZN6icu_5717ResourceArraySinkC2Ev
                 U __ZN6icu_5717ResourceArraySinkD2Ev
                 U __ZN6icu_5717ResourceTableSink13putNoFallbackEPKcR10UErrorCode
                 U __ZN6icu_5717ResourceTableSink20getOrCreateArraySinkEPKciR10UErrorCode
                 U __ZN6icu_5717ResourceTableSink20getOrCreateTableSinkEPKciR10UErrorCode
                 U __ZN6icu_5717ResourceTableSink3putEPKcRKNS_13ResourceValueER10UErrorCode
                 U __ZN6icu_5717ResourceTableSink5leaveER10UErrorCode
000000000000c850 T __ZN6icu_5717ResourceTableSinkC2Ev
                 U __ZN6icu_5717ResourceTableSinkD2Ev
                 U __ZN6icu_5717StringEnumeration4nextEPiR10UErrorCode
                 U __ZN6icu_5717StringEnumeration5unextEPiR10UErrorCode
                 U __ZN6icu_5717StringEnumerationC2Ev
                 U __ZN6icu_5717StringEnumerationD2Ev
000000000000a290 T __ZN6icu_5718PatternMapIterator11getSkeletonEv
0000000000009350 T __ZN6icu_5718PatternMapIterator3setERNS_10PatternMapE
0000000000009430 T __ZN6icu_5718PatternMapIterator4nextEv
0000000000009370 T __ZN6icu_5718PatternMapIterator7hasNextEv
0000000000009330 T __ZN6icu_5718PatternMapIteratorC1Ev
000000000000b210 T __ZN6icu_5718PatternMapIteratorC2Ev
000000000000b330 T __ZN6icu_5718PatternMapIteratorD0Ev
0000000000009760 T __ZN6icu_5718PatternMapIteratorD1Ev
000000000000b2e0 T __ZN6icu_5718PatternMapIteratorD2Ev
                 U __ZN6icu_5720DecimalFormatSymbolsC1ERKNS_6LocaleER10UErrorCode
                 U __ZN6icu_5720DecimalFormatSymbolsD1Ev
                 U __ZN6icu_5720umtx_initImplPreInitERNS_9UInitOnceE
000000000000bf90 T __ZN6icu_5721DTSkeletonEnumeration15isCanonicalItemERKNS_13UnicodeStringE
0000000000000030 T __ZN6icu_5721DTSkeletonEnumeration16getStaticClassIDEv
000000000000c0c0 T __ZN6icu_5721DTSkeletonEnumeration5resetER10UErrorCode
000000000000c020 T __ZN6icu_5721DTSkeletonEnumeration5snextER10UErrorCode
0000000000009a30 T __ZN6icu_5721DTSkeletonEnumerationC1ERNS_10PatternMapENS_9dtStrEnumER10UErrorCode
000000000000ba60 T __ZN6icu_5721DTSkeletonEnumerationC2ERNS_10PatternMapENS_9dtStrEnumER10UErrorCode
000000000000c270 T __ZN6icu_5721DTSkeletonEnumerationD0Ev
000000000000c250 T __ZN6icu_5721DTSkeletonEnumerationD1Ev
000000000000c130 T __ZN6icu_5721DTSkeletonEnumerationD2Ev
                 U __ZN6icu_5721umtx_initImplPostInitERNS_9UInitOnceE
000000000000c3e0 T __ZN6icu_5722DTRedundantEnumeration15isCanonicalItemERKNS_13UnicodeStringE
0000000000000060 T __ZN6icu_5722DTRedundantEnumeration16getStaticClassIDEv
000000000000a480 T __ZN6icu_5722DTRedundantEnumeration3addERKNS_13UnicodeStringER10UErrorCode
000000000000c370 T __ZN6icu_5722DTRedundantEnumeration5resetER10UErrorCode
000000000000c2f0 T __ZN6icu_5722DTRedundantEnumeration5snextER10UErrorCode
000000000000a270 T __ZN6icu_5722DTRedundantEnumerationC1Ev
000000000000c2a0 T __ZN6icu_5722DTRedundantEnumerationC2Ev
000000000000c5a0 T __ZN6icu_5722DTRedundantEnumerationD0Ev
000000000000c580 T __ZN6icu_5722DTRedundantEnumerationD1Ev
000000000000c470 T __ZN6icu_5722DTRedundantEnumerationD2Ev
0000000000005870 T __ZN6icu_5724DateTimePatternGenerator10addPatternERKNS_13UnicodeStringEaRS1_R10UErrorCode
0000000000007570 T __ZN6icu_5724DateTimePatternGenerator10getBestRawERNS_15DateTimeMatcherEiPNS_12DistanceInfoEPPKNS_11PtnSkeletonE
0000000000008980 T __ZN6icu_5724DateTimePatternGenerator10setDecimalERKNS_13UnicodeStringE
0000000000002f50 T __ZN6icu_5724DateTimePatternGenerator11addCLDRDataERKNS_6LocaleER10UErrorCode
0000000000004d70 T __ZN6icu_5724DateTimePatternGenerator11getSkeletonERKNS_13UnicodeStringER10UErrorCode
00000000000020e0 T __ZN6icu_5724DateTimePatternGenerator13copyHashtableEPNS_9HashtableER10UErrorCode
0000000000006ba0 T __ZN6icu_5724DateTimePatternGenerator13getAppendNameE21UDateTimePatternFieldRNS_13UnicodeStringE
0000000000009d50 T __ZN6icu_5724DateTimePatternGenerator13getRedundantsER10UErrorCode
00000000000065f0 T __ZN6icu_5724DateTimePatternGenerator13initHashtableER10UErrorCode
0000000000002ac0 T __ZN6icu_5724DateTimePatternGenerator14addICUPatternsERKNS_6LocaleER10UErrorCode
0000000000000090 T __ZN6icu_5724DateTimePatternGenerator14createInstanceER10UErrorCode
00000000000000c0 T __ZN6icu_5724DateTimePatternGenerator14createInstanceERKNS_6LocaleER10UErrorCode
0000000000006c60 T __ZN6icu_5724DateTimePatternGenerator14getBestPatternERKNS_13UnicodeStringE28UDateTimePatternMatchOptionsR10UErrorCode
0000000000006c10 T __ZN6icu_5724DateTimePatternGenerator14getBestPatternERKNS_13UnicodeStringER10UErrorCode
0000000000005520 T __ZN6icu_5724DateTimePatternGenerator15getBaseSkeletonERKNS_13UnicodeStringER10UErrorCode
00000000000097c0 T __ZN6icu_5724DateTimePatternGenerator15getTopBitNumberEi
0000000000007870 T __ZN6icu_5724DateTimePatternGenerator16adjustFieldTypesERKNS_13UnicodeStringEPKNS_11PtnSkeletonEi28UDateTimePatternMatchOptions
0000000000008280 T __ZN6icu_5724DateTimePatternGenerator16getBestAppendingEii28UDateTimePatternMatchOptions
0000000000000000 T __ZN6icu_5724DateTimePatternGenerator16getStaticClassIDEv
0000000000002980 T __ZN6icu_5724DateTimePatternGenerator17addCanonicalItemsEv
00000000000088f0 T __ZN6icu_5724DateTimePatternGenerator17replaceFieldTypesERKNS_13UnicodeStringES3_28UDateTimePatternMatchOptionsR10UErrorCode
00000000000088a0 T __ZN6icu_5724DateTimePatternGenerator17replaceFieldTypesERKNS_13UnicodeStringES3_R10UErrorCode
0000000000006510 T __ZN6icu_5724DateTimePatternGenerator17setAppendItemNameE21UDateTimePatternFieldRKNS_13UnicodeStringE
00000000000063d0 T __ZN6icu_5724DateTimePatternGenerator17setDateTimeFormatERKNS_13UnicodeStringE
0000000000004460 T __ZN6icu_5724DateTimePatternGenerator17setDecimalSymbolsERKNS_6LocaleER10UErrorCode
00000000000053f0 T __ZN6icu_5724DateTimePatternGenerator17staticGetSkeletonERKNS_13UnicodeStringER10UErrorCode
0000000000006710 T __ZN6icu_5724DateTimePatternGenerator18setAvailableFormatERKNS_13UnicodeStringER10UErrorCode
00000000000002f0 T __ZN6icu_5724DateTimePatternGenerator19createEmptyInstanceER10UErrorCode
0000000000006430 T __ZN6icu_5724DateTimePatternGenerator19setAppendItemFormatE21UDateTimePatternFieldRKNS_13UnicodeStringE
0000000000004790 T __ZN6icu_5724DateTimePatternGenerator21getAllowedHourFormatsERKNS_6LocaleER10UErrorCode
0000000000005740 T __ZN6icu_5724DateTimePatternGenerator21staticGetBaseSkeletonERKNS_13UnicodeStringER10UErrorCode
0000000000006750 T __ZN6icu_5724DateTimePatternGenerator22addPatternWithSkeletonERKNS_13UnicodeStringEPS2_aRS1_R10UErrorCode
00000000000041d0 T __ZN6icu_5724DateTimePatternGenerator23setDateTimeFromCalendarERKNS_6LocaleER10UErrorCode
0000000000004660 T __ZN6icu_5724DateTimePatternGenerator26loadAllowedHourFormatsDataER10UErrorCode
00000000000011e0 T __ZN6icu_5724DateTimePatternGenerator8initDataERKNS_6LocaleER10UErrorCode
00000000000058b0 T __ZN6icu_5724DateTimePatternGenerator9hackTimesERKNS_13UnicodeStringER10UErrorCode
00000000000003f0 T __ZN6icu_5724DateTimePatternGeneratorC1ER10UErrorCode
0000000000000230 T __ZN6icu_5724DateTimePatternGeneratorC1ERKNS_6LocaleER10UErrorCode
0000000000001c70 T __ZN6icu_5724DateTimePatternGeneratorC1ERKS0_
0000000000000420 T __ZN6icu_5724DateTimePatternGeneratorC2ER10UErrorCode
0000000000000b40 T __ZN6icu_5724DateTimePatternGeneratorC2ERKNS_6LocaleER10UErrorCode
00000000000012b0 T __ZN6icu_5724DateTimePatternGeneratorC2ERKS0_
0000000000002950 T __ZN6icu_5724DateTimePatternGeneratorD0Ev
0000000000002930 T __ZN6icu_5724DateTimePatternGeneratorD1Ev
0000000000002680 T __ZN6icu_5724DateTimePatternGeneratorD2Ev
00000000000018f0 T __ZN6icu_5724DateTimePatternGeneratoraSERKS0_
0000000000006260 T __ZN6icu_5725ures_getNextUnicodeStringEP15UResourceBundlePPKcP10UErrorCode
0000000000004be0 T __ZN6icu_5727LocalUResourceBundlePointerC1EP15UResourceBundle
000000000000c760 T __ZN6icu_5727LocalUResourceBundlePointerC2EP15UResourceBundle
0000000000004c90 T __ZN6icu_5727LocalUResourceBundlePointerD1Ev
000000000000d240 T __ZN6icu_5727LocalUResourceBundlePointerD2Ev
                 U __ZN6icu_576Locale10getDefaultEv
                 U __ZN6icu_576LocaleC1EPKcS2_S2_S2_
                 U __ZN6icu_576LocaleC1Ev
                 U __ZN6icu_576LocaleD1Ev
                 U __ZN6icu_576LocaleaSERKS0_
000000000000a7c0 T __ZN6icu_577PtnElemC1ERKNS_13UnicodeStringES3_
000000000000b8c0 T __ZN6icu_577PtnElemC2ERKNS_13UnicodeStringES3_
000000000000ba30 T __ZN6icu_577PtnElemD0Ev
000000000000ba10 T __ZN6icu_577PtnElemD1Ev
000000000000b960 T __ZN6icu_577PtnElemD2Ev
                 U __ZN6icu_577UMemorydlEPv
                 U __ZN6icu_577UMemorynwEm
0000000000000a80 T __ZN6icu_577UObjectC2Ev
                 U __ZN6icu_577UObjectD2Ev
                 U __ZN6icu_577UVector10addElementEPvR10UErrorCode
                 U __ZN6icu_577UVectorC1ER10UErrorCode
                 U __ZN6icu_578Calendar14createInstanceERKNS_6LocaleER10UErrorCode
000000000000d530 T __ZN6icu_579Hashtable4initEPFi8UElementEPFaS1_S1_ES5_R10UErrorCode
0000000000009840 T __ZN6icu_579Hashtable4putiERKNS_13UnicodeStringEiR10UErrorCode
0000000000006b10 T __ZN6icu_579HashtableC1EaR10UErrorCode
000000000000d480 T __ZN6icu_579HashtableC2EaR10UErrorCode
0000000000002910 T __ZN6icu_579HashtableD1Ev
000000000000c690 T __ZN6icu_579HashtableD2Ev
000000000000e980 s __ZN6icu_57L15CLDR_FIELD_NAMEE
000000000000efa0 s __ZN6icu_57L15Canonical_ItemsE
000000000000e8a0 s __ZN6icu_57L15Resource_FieldsE
000000000000ef62 s __ZN6icu_57L15hourFormatCharsE
000000000000e900 s __ZN6icu_57L17CLDR_FIELD_APPENDE
000000000000ef10 s __ZN6icu_57L17UDATPG_ItemFormatE
000000000000ef78 s __ZN6icu_57L20DT_DateTimeFieldsTagE
000000000000ef38 s __ZN6icu_57L22DT_DateTimeCalendarTagE
000000000000ef50 s __ZN6icu_57L22DT_DateTimePatternsTagE
000000000000ef2e s __ZN6icu_57L23DT_DateTimeGregorianTagE
000000000000ef6c s __ZN6icu_57L25DT_DateTimeAppendItemsTagE
000000000000ef80 s __ZN6icu_57L30DT_DateTimeAvailableFormatsTagE
000000000000efc0 s __ZN6icu_57L7dtTypesE
                 U __ZN6icu_57plERKNS_13UnicodeStringES2_
000000000000ce80 T __ZNK6icu_5713ResourceValue16getUnicodeStringER10UErrorCode
000000000000d830 T __ZNK6icu_5713UnicodeString10pinIndicesERiS1_
000000000000cf80 T __ZNK6icu_5713UnicodeString13getArrayStartEv
000000000000d460 T __ZNK6icu_5713UnicodeString14getShortLengthEv
000000000000d440 T __ZNK6icu_5713UnicodeString14hasShortLengthEv
00000000000061b0 T __ZNK6icu_5713UnicodeString6charAtEi
0000000000006380 T __ZNK6icu_5713UnicodeString6lengthEv
000000000000aa10 T __ZNK6icu_5713UnicodeString7compareERKS0_
000000000000c670 T __ZNK6icu_5713UnicodeString7isBogusEv
000000000000cf20 T __ZNK6icu_5713UnicodeString8doCharAtEi
                 U __ZNK6icu_5713UnicodeString8doEqualsERKS0_i
                 U __ZNK6icu_5713UnicodeString9doCompareEiiPKtii
000000000000d790 T __ZNK6icu_5713UnicodeString9doCompareEiiRKS0_ii
0000000000002570 T __ZNK6icu_5713UnicodeStringeqERKS0_
000000000000cef0 T __ZNK6icu_5713UnicodeStringixEi
0000000000002620 T __ZNK6icu_5713UnicodeStringneERKS0_
0000000000009540 T __ZNK6icu_5715DateTimeMatcher6equalsEPKS0_
000000000000d400 T __ZNK6icu_5715MaybeStackArrayIcLi40EE8getAliasEv
                 U __ZNK6icu_5715SimpleFormatter16formatAndReplaceEPKPKNS_13UnicodeStringEiRS1_PiiR10UErrorCode
                 U __ZNK6icu_5715SimpleFormatter6formatERKNS_13UnicodeStringES3_RS1_R10UErrorCode
0000000000004c30 T __ZNK6icu_5716LocalPointerBaseI15UResourceBundleE8getAliasEv
                 U __ZNK6icu_5717StringEnumeration5cloneEv
                 U __ZNK6icu_5717StringEnumerationeqERKS0_
                 U __ZNK6icu_5717StringEnumerationneERKS0_
0000000000008a00 T __ZNK6icu_5720DecimalFormatSymbols9getSymbolENS0_19ENumberFormatSymbolE
0000000000000040 T __ZNK6icu_5721DTSkeletonEnumeration17getDynamicClassIDEv
000000000000c0e0 T __ZNK6icu_5721DTSkeletonEnumeration5countER10UErrorCode
0000000000000070 T __ZNK6icu_5722DTRedundantEnumeration17getDynamicClassIDEv
000000000000c390 T __ZNK6icu_5722DTRedundantEnumeration5countER10UErrorCode
00000000000089e0 T __ZNK6icu_5724DateTimePatternGenerator10getDecimalEv
0000000000009970 T __ZNK6icu_5724DateTimePatternGenerator12getSkeletonsER10UErrorCode
000000000000a2d0 T __ZNK6icu_5724DateTimePatternGenerator15isCanonicalItemERKNS_13UnicodeStringE
0000000000009c90 T __ZNK6icu_5724DateTimePatternGenerator16getBaseSkeletonsER10UErrorCode
0000000000006b70 T __ZNK6icu_5724DateTimePatternGenerator17getAppendItemNameE21UDateTimePatternField
0000000000008840 T __ZNK6icu_5724DateTimePatternGenerator17getDateTimeFormatEv
0000000000000010 T __ZNK6icu_5724DateTimePatternGenerator17getDynamicClassIDEv
0000000000006b40 T __ZNK6icu_5724DateTimePatternGenerator19getAppendItemFormatE21UDateTimePatternField
0000000000006580 T __ZNK6icu_5724DateTimePatternGenerator19getAppendNameNumberEPKc
00000000000066d0 T __ZNK6icu_5724DateTimePatternGenerator20isAvailableFormatSetERKNS_13UnicodeStringE
00000000000064a0 T __ZNK6icu_5724DateTimePatternGenerator21getAppendFormatNumberEPKc
0000000000009a70 T __ZNK6icu_5724DateTimePatternGenerator21getPatternForSkeletonERKNS_13UnicodeStringE
000000000000a6b0 T __ZNK6icu_5724DateTimePatternGenerator5cloneEv
0000000000002200 T __ZNK6icu_5724DateTimePatternGeneratoreqERKS0_
0000000000002650 T __ZNK6icu_5724DateTimePatternGeneratorneERKS0_
0000000000004cd0 T __ZNK6icu_576Locale10getCountryEv
0000000000004cf0 T __ZNK6icu_576Locale11getLanguageEv
0000000000004cb0 T __ZNK6icu_576Locale7getNameEv
                 U __ZNK6icu_576LocaleeqERKS0_
                 U __ZNK6icu_577UObject17getDynamicClassIDEv
000000000000c0a0 T __ZNK6icu_577UVector4sizeEv
                 U __ZNK6icu_577UVector9elementAtEi
0000000000009940 T __ZNK6icu_579Hashtable11nextElementERi
0000000000009910 T __ZNK6icu_579Hashtable4getiERKNS_13UnicodeStringE
                 U __ZSt9terminatev
                 U __ZTIN6icu_5710DateFormatE
000000000000ec00 S __ZTIN6icu_5710PatternMapE
000000000000ec80 S __ZTIN6icu_5711PtnSkeletonE
000000000000ebc0 S __ZTIN6icu_5712DistanceInfoE
000000000000ec40 S __ZTIN6icu_5712FormatParserE
000000000000edc0 s __ZTIN6icu_5712_GLOBAL__N_122AllowedHourFormatsSink10LocaleSinkE
000000000000ee20 s __ZTIN6icu_5712_GLOBAL__N_122AllowedHourFormatsSink15AllowedListSinkE
000000000000ed50 s __ZTIN6icu_5712_GLOBAL__N_122AllowedHourFormatsSinkE
000000000000ec20 S __ZTIN6icu_5715DateTimeMatcherE
                 U __ZTIN6icu_5716SimpleDateFormatE
                 U __ZTIN6icu_5717ResourceArraySinkE
                 U __ZTIN6icu_5717ResourceTableSinkE
                 U __ZTIN6icu_5717StringEnumerationE
000000000000ec60 S __ZTIN6icu_5718PatternMapIteratorE
000000000000ecc0 S __ZTIN6icu_5721DTSkeletonEnumerationE
000000000000ece0 S __ZTIN6icu_5722DTRedundantEnumerationE
000000000000ebe0 S __ZTIN6icu_5724DateTimePatternGeneratorE
000000000000eca0 S __ZTIN6icu_577PtnElemE
000000000000f668 D __ZTIN6icu_577UMemoryE
                 U __ZTIN6icu_577UObjectE
000000000000f490 S __ZTSN6icu_5710PatternMapE
000000000000f510 S __ZTSN6icu_5711PtnSkeletonE
000000000000f420 S __ZTSN6icu_5712DistanceInfoE
000000000000f4d0 S __ZTSN6icu_5712FormatParserE
000000000000f5e0 s __ZTSN6icu_5712_GLOBAL__N_122AllowedHourFormatsSink10LocaleSinkE
000000000000f620 s __ZTSN6icu_5712_GLOBAL__N_122AllowedHourFormatsSink15AllowedListSinkE
000000000000f5b0 s __ZTSN6icu_5712_GLOBAL__N_122AllowedHourFormatsSinkE
000000000000f4b0 S __ZTSN6icu_5715DateTimeMatcherE
000000000000f4f0 S __ZTSN6icu_5718PatternMapIteratorE
000000000000f550 S __ZTSN6icu_5721DTSkeletonEnumerationE
000000000000f580 S __ZTSN6icu_5722DTRedundantEnumerationE
000000000000f460 S __ZTSN6icu_5724DateTimePatternGeneratorE
000000000000f530 S __ZTSN6icu_577PtnElemE
000000000000f440 S __ZTSN6icu_577UMemoryE
                 U __ZTVN10__cxxabiv117__class_type_infoE
                 U __ZTVN10__cxxabiv120__si_class_type_infoE
000000000000ea00 S __ZTVN6icu_5710PatternMapE
000000000000ea88 S __ZTVN6icu_5711PtnSkeletonE
                 U __ZTVN6icu_5711ReplaceableE
000000000000eb98 S __ZTVN6icu_5712DistanceInfoE
000000000000ea40 S __ZTVN6icu_5712FormatParserE
000000000000ed68 s __ZTVN6icu_5712_GLOBAL__N_122AllowedHourFormatsSink10LocaleSinkE
000000000000edd8 s __ZTVN6icu_5712_GLOBAL__N_122AllowedHourFormatsSink15AllowedListSinkE
000000000000ecf8 s __ZTVN6icu_5712_GLOBAL__N_122AllowedHourFormatsSinkE
                 U __ZTVN6icu_5713UnicodeStringE
000000000000ea20 S __ZTVN6icu_5715DateTimeMatcherE
                 U __ZTVN6icu_5717ResourceArraySinkE
                 U __ZTVN6icu_5717ResourceTableSinkE
000000000000ea68 S __ZTVN6icu_5718PatternMapIteratorE
000000000000eac8 S __ZTVN6icu_5721DTSkeletonEnumerationE
000000000000eb30 S __ZTVN6icu_5722DTRedundantEnumerationE
000000000000e870 S __ZTVN6icu_5724DateTimePatternGeneratorE
000000000000eaa8 S __ZTVN6icu_577PtnElemE
                 U __ZTVN6icu_577UObjectE
0000000000014109 b __ZZN6icu_5721DTSkeletonEnumeration16getStaticClassIDEvE7classID
000000000001410a b __ZZN6icu_5722DTRedundantEnumeration16getStaticClassIDEvE7classID
0000000000014108 b __ZZN6icu_5724DateTimePatternGenerator16getStaticClassIDEvE7classID
000000000000c240 T ___clang_call_terminate
                 U ___cxa_begin_catch
                 U ___dynamic_cast
                 U ___gxx_personality_v0
                 U ___stack_chk_fail
                 U ___stack_chk_guard
                 U _abs
                 U _memcpy
                 U _strcmp
                 U _strlen
                 U _u_UCharsToChars_57
                 U _u_strchr_57
                 U _ucln_i18n_registerCleanup_57
                 U _uhash_close_57
                 U _uhash_compareCaselessUnicodeString_57
                 U _uhash_compareChars_57
                 U _uhash_compareUnicodeString_57
                 U _uhash_get_57
                 U _uhash_geti_57
                 U _uhash_hashCaselessUnicodeString_57
                 U _uhash_hashChars_57
                 U _uhash_hashUnicodeString_57
                 U _uhash_init_57
                 U _uhash_nextElement_57
                 U _uhash_open_57
                 U _uhash_put_57
                 U _uhash_puti_57
                 U _uhash_setKeyDeleter_57
                 U _uhash_setValueDeleter_57
                 U _uloc_addLikelySubtags_57
                 U _uloc_getKeywordValue_57
                 U _uloc_getParent_57
                 U _uprv_deleteUObject_57
                 U _uprv_free_57
                 U _uprv_malloc_57
                 U _ures_close_57
                 U _ures_getAllTableItemsWithFallback_57
                 U _ures_getByKeyWithFallback_57
                 U _ures_getFunctionalEquivalent_57
                 U _ures_getLocaleByType_57
                 U _ures_getNextString_57
                 U _ures_getSize_57
                 U _ures_getStringByIndex_57
                 U _ures_getStringByKey_57
                 U _ures_openDirect_57
                 U _ures_open_57

libicui18n.a(udatpg.ao):
00000000000013e8 s GCC_except_table0
0000000000001504 s GCC_except_table11
0000000000001530 s GCC_except_table15
000000000000155c s GCC_except_table17
0000000000001588 s GCC_except_table19
00000000000015b4 s GCC_except_table22
00000000000015fc s GCC_except_table25
0000000000001414 s GCC_except_table6
0000000000001450 s GCC_except_table7
000000000000148c s GCC_except_table8
00000000000014c8 s GCC_except_table9
                 U __Unwind_Resume
00000000000001e0 t __ZL9U_FAILURE10UErrorCode
0000000000001350 T __ZN6icu_5711ReplaceableC2Ev
                 U __ZN6icu_5713UnicodeStringC1EaPKti
00000000000009d0 T __ZN6icu_5713UnicodeStringC1Ev
0000000000001310 T __ZN6icu_5713UnicodeStringC2Ev
                 U __ZN6icu_5713UnicodeStringD1Ev
                 U __ZN6icu_5724DateTimePatternGenerator10addPatternERKNS_13UnicodeStringEaRS1_R10UErrorCode
                 U __ZN6icu_5724DateTimePatternGenerator10setDecimalERKNS_13UnicodeStringE
                 U __ZN6icu_5724DateTimePatternGenerator14createInstanceER10UErrorCode
                 U __ZN6icu_5724DateTimePatternGenerator14createInstanceERKNS_6LocaleER10UErrorCode
                 U __ZN6icu_5724DateTimePatternGenerator14getBestPatternERKNS_13UnicodeStringE28UDateTimePatternMatchOptionsR10UErrorCode
                 U __ZN6icu_5724DateTimePatternGenerator17replaceFieldTypesERKNS_13UnicodeStringES3_28UDateTimePatternMatchOptionsR10UErrorCode
                 U __ZN6icu_5724DateTimePatternGenerator17setAppendItemNameE21UDateTimePatternFieldRKNS_13UnicodeStringE
                 U __ZN6icu_5724DateTimePatternGenerator17setDateTimeFormatERKNS_13UnicodeStringE
                 U __ZN6icu_5724DateTimePatternGenerator17staticGetSkeletonERKNS_13UnicodeStringER10UErrorCode
                 U __ZN6icu_5724DateTimePatternGenerator19createEmptyInstanceER10UErrorCode
                 U __ZN6icu_5724DateTimePatternGenerator19setAppendItemFormatE21UDateTimePatternFieldRKNS_13UnicodeStringE
                 U __ZN6icu_5724DateTimePatternGenerator21staticGetBaseSkeletonERKNS_13UnicodeStringER10UErrorCode
                 U __ZN6icu_576LocaleC1EPKcS2_S2_S2_
                 U __ZN6icu_576LocaleD1Ev
0000000000001390 T __ZN6icu_577UObjectC2Ev
00000000000013d0 T __ZNK6icu_5713UnicodeString14getShortLengthEv
00000000000013b0 T __ZNK6icu_5713UnicodeString14hasShortLengthEv
0000000000000af0 T __ZNK6icu_5713UnicodeString6lengthEv
                 U __ZNK6icu_5713UnicodeString7extractEPtiR10UErrorCode
0000000000000b40 T __ZNK6icu_5713UnicodeString9getBufferEv
                 U __ZNK6icu_5724DateTimePatternGenerator10getDecimalEv
                 U __ZNK6icu_5724DateTimePatternGenerator12getSkeletonsER10UErrorCode
                 U __ZNK6icu_5724DateTimePatternGenerator16getBaseSkeletonsER10UErrorCode
                 U __ZNK6icu_5724DateTimePatternGenerator17getAppendItemNameE21UDateTimePatternField
                 U __ZNK6icu_5724DateTimePatternGenerator17getDateTimeFormatEv
                 U __ZNK6icu_5724DateTimePatternGenerator19getAppendItemFormatE21UDateTimePatternField
                 U __ZNK6icu_5724DateTimePatternGenerator21getPatternForSkeletonERKNS_13UnicodeStringE
                 U __ZNK6icu_5724DateTimePatternGenerator5cloneEv
                 U __ZTVN6icu_5711ReplaceableE
                 U __ZTVN6icu_5713UnicodeStringE
                 U __ZTVN6icu_577UObjectE
                 U ___gxx_personality_v0
                 U ___stack_chk_fail
                 U ___stack_chk_guard
00000000000007b0 T _udatpg_addPattern_57
0000000000000190 T _udatpg_clone_57
0000000000000150 T _udatpg_close_57
0000000000000aa0 T _udatpg_getAppendItemFormat_57
0000000000000c60 T _udatpg_getAppendItemName_57
00000000000005f0 T _udatpg_getBaseSkeleton_57
0000000000000260 T _udatpg_getBestPatternWithOptions_57
0000000000000200 T _udatpg_getBestPattern_57
0000000000000d60 T _udatpg_getDateTimeFormat_57
0000000000000e60 T _udatpg_getDecimal_57
00000000000011f0 T _udatpg_getPatternForSkeleton_57
0000000000000430 T _udatpg_getSkeleton_57
00000000000011b0 T _udatpg_openBaseSkeletons_57
0000000000000130 T _udatpg_openEmpty_57
0000000000001170 T _udatpg_openSkeletons_57
0000000000000000 T _udatpg_open_57
0000000000000f30 T _udatpg_replaceFieldTypesWithOptions_57
0000000000000eb0 T _udatpg_replaceFieldTypes_57
00000000000009f0 T _udatpg_setAppendItemFormat_57
0000000000000bb0 T _udatpg_setAppendItemName_57
0000000000000cb0 T _udatpg_setDateTimeFormat_57
0000000000000db0 T _udatpg_setDecimal_57
                 U _uenum_openFromStringEnumeration_57

libicui18n.a(nfrs.ao):
00000000000032f0 s GCC_except_table0
0000000000003350 s GCC_except_table15
000000000000337c s GCC_except_table23
00000000000033a8 s GCC_except_table42
0000000000003418 s GCC_except_table67
                 U __Unwind_Resume
0000000000000520 t __ZL9U_FAILURE10UErrorCode
0000000000001120 T __ZN6icu_5710NFRuleList3addEPNS_6NFRuleE
00000000000031c0 T __ZN6icu_5710NFRuleList7releaseEv
0000000000000bf0 T __ZN6icu_5710NFRuleList9deleteAllEv
00000000000004f0 T __ZN6icu_5710NFRuleListC1Ej
0000000000002df0 T __ZN6icu_5710NFRuleListC2Ej
0000000000000860 T __ZN6icu_5710NFRuleListD1Ev
0000000000003100 T __ZN6icu_5710NFRuleListD2Ev
0000000000002a80 T __ZN6icu_5710util64_powEij
0000000000002b00 T __ZN6icu_5710util64_touExPtjja
                 U __ZN6icu_5711Formattable7setLongEi
                 U __ZN6icu_5711FormattableC1Ev
                 U __ZN6icu_5711FormattableD1Ev
                 U __ZN6icu_5711FormattableaSERKS0_
0000000000002d90 T __ZN6icu_5711ReplaceableC2Ev
                 U __ZN6icu_5712PatternProps12isWhiteSpaceEi
0000000000002770 T __ZN6icu_5713ParsePositionC1ERKS0_
0000000000002750 T __ZN6icu_5713ParsePositionC1Ev
0000000000003270 T __ZN6icu_5713ParsePositionC2ERKS0_
0000000000003210 T __ZN6icu_5713ParsePositionC2Ev
                 U __ZN6icu_5713ParsePositionD1Ev
00000000000027c0 T __ZN6icu_5713ParsePositionaSERKS0_
0000000000002fc0 T __ZN6icu_5713UnicodeString10setToEmptyEv
0000000000002fe0 T __ZN6icu_5713UnicodeString13setZeroLengthEv
00000000000030d0 T __ZN6icu_5713UnicodeString14setShortLengthEi
00000000000006d0 T __ZN6icu_5713UnicodeString5setToERKS0_
0000000000000610 T __ZN6icu_5713UnicodeString5setToERKS0_ii
0000000000002a00 T __ZN6icu_5713UnicodeString6appendERKS0_
0000000000002a50 T __ZN6icu_5713UnicodeString6appendEt
0000000000000660 T __ZN6icu_5713UnicodeString6removeEii
0000000000002f50 T __ZN6icu_5713UnicodeString6removeEv
                 U __ZN6icu_5713UnicodeString7unBogusEv
                 U __ZN6icu_5713UnicodeString8copyFromERKS0_a
                 U __ZN6icu_5713UnicodeString8doAppendEPKtii
                 U __ZN6icu_5713UnicodeString8doAppendERKS0_ii
00000000000007e0 T __ZN6icu_5713UnicodeString8truncateEi
                 U __ZN6icu_5713UnicodeString9doReplaceEiiPKtii
                 U __ZN6icu_5713UnicodeString9doReplaceEiiRKS0_ii
0000000000003070 T __ZN6icu_5713UnicodeString9setLengthEi
                 U __ZN6icu_5713UnicodeStringC1ERKS0_
                 U __ZN6icu_5713UnicodeStringC1EaPKti
00000000000004d0 T __ZN6icu_5713UnicodeStringC1Ev
0000000000002d50 T __ZN6icu_5713UnicodeStringC2Ev
                 U __ZN6icu_5713UnicodeStringD1Ev
0000000000001f60 T __ZN6icu_5717util64_fromDoubleEd
                 U __ZN6icu_576NFRule12setBaseValueExR10UErrorCode
                 U __ZN6icu_576NFRule23setDecimalFormatSymbolsERKNS_20DecimalFormatSymbolsER10UErrorCode
                 U __ZN6icu_576NFRule9makeRulesERNS_13UnicodeStringEPNS_9NFRuleSetEPKS0_PKNS_21RuleBasedNumberFormatERNS_10NFRuleListER10UErrorCode
                 U __ZN6icu_576NFRuleD1Ev
                 U __ZN6icu_577UMemorydlEPv
00000000000032d0 T __ZN6icu_577UObjectC2ERKS0_
0000000000002dd0 T __ZN6icu_577UObjectC2Ev
00000000000008c0 T __ZN6icu_579NFRuleSet10parseRulesERNS_13UnicodeStringER10UErrorCode
0000000000000f80 T __ZN6icu_579NFRuleSet19setBestFractionRuleEiPNS_6NFRuleEa
0000000000000df0 T __ZN6icu_579NFRuleSet19setNonNumericalRuleEPNS_6NFRuleE
00000000000015f0 T __ZN6icu_579NFRuleSet23setDecimalFormatSymbolsERKNS_20DecimalFormatSymbolsER10UErrorCode
0000000000000880 T __ZN6icu_579NFRuleSetC1EPNS_21RuleBasedNumberFormatEPNS_13UnicodeStringEiR10UErrorCode
0000000000000000 T __ZN6icu_579NFRuleSetC2EPNS_21RuleBasedNumberFormatEPNS_13UnicodeStringEiR10UErrorCode
0000000000001310 T __ZN6icu_579NFRuleSetD1Ev
0000000000001250 T __ZN6icu_579NFRuleSetD2Ev
00000000000034a0 s __ZN6icu_57L11asciiDigitsE
0000000000003470 s __ZN6icu_57L15gPercentPercentE
0000000000001550 t __ZN6icu_57L15util_equalRulesEPKNS_6NFRuleES2_
0000000000003480 s __ZN6icu_57L8gNoparseE
0000000000002080 t __ZN6icu_57L8util_lcmExx
0000000000000d00 T __ZNK6icu_5710NFRuleList4lastEv
0000000000000d60 T __ZNK6icu_5710NFRuleList4sizeEv
0000000000000d80 T __ZNK6icu_5710NFRuleListixEj
00000000000027a0 T __ZNK6icu_5713ParsePosition8getIndexEv
0000000000002f00 T __ZNK6icu_5713UnicodeString13getArrayStartEv
0000000000002e80 T __ZNK6icu_5713UnicodeString14getShortLengthEv
0000000000002e60 T __ZNK6icu_5713UnicodeString14hasShortLengthEv
0000000000000590 T __ZNK6icu_5713UnicodeString6charAtEi
0000000000000540 T __ZNK6icu_5713UnicodeString6lengthEv
0000000000000700 T __ZNK6icu_5713UnicodeString7indexOfEPKtii
                 U __ZNK6icu_5713UnicodeString7indexOfEPKtiiii
00000000000005c0 T __ZNK6icu_5713UnicodeString7indexOfEt
0000000000000ca0 T __ZNK6icu_5713UnicodeString7indexOfEti
0000000000002fa0 T __ZNK6icu_5713UnicodeString7isBogusEv
0000000000002ea0 T __ZNK6icu_5713UnicodeString8doCharAtEi
                 U __ZNK6icu_5713UnicodeString8doEqualsERKS0_i
0000000000000770 T __ZNK6icu_5713UnicodeString8endsWithEPKti
0000000000003000 T __ZNK6icu_5713UnicodeString8pinIndexERi
                 U __ZNK6icu_5713UnicodeString9doCompareEiiPKtii
                 U __ZNK6icu_5713UnicodeString9doIndexOfEtii
00000000000014a0 T __ZNK6icu_5713UnicodeStringeqERKS0_
00000000000011c0 T __ZNK6icu_5720DecimalFormatSymbols9getSymbolENS0_19ENumberFormatSymbolE
                 U __ZNK6icu_5721RuleBasedNumberFormat17getDefaultNaNRuleEv
                 U __ZNK6icu_5721RuleBasedNumberFormat22getDefaultInfinityRuleEv
                 U __ZNK6icu_5721RuleBasedNumberFormat23getDecimalFormatSymbolsEv
0000000000000dd0 T __ZNK6icu_576NFRule12getBaseValueEv
                 U __ZNK6icu_576NFRule14shouldRollBackEd
                 U __ZNK6icu_576NFRule15_appendRuleTextERNS_13UnicodeStringE
0000000000001230 T __ZNK6icu_576NFRule15getDecimalPointEv
                 U __ZNK6icu_576NFRule7doParseERKNS_13UnicodeStringERNS_13ParsePositionEadRNS_11FormattableE
                 U __ZNK6icu_576NFRule8doFormatEdRNS_13UnicodeStringEiiR10UErrorCode
                 U __ZNK6icu_576NFRule8doFormatExRNS_13UnicodeStringEiiR10UErrorCode
                 U __ZNK6icu_576NFRuleeqERKS0_
00000000000015c0 T __ZNK6icu_576NFRuleneERKS0_
00000000000027f0 T __ZNK6icu_579NFRuleSet11appendRulesERNS_13UnicodeStringE
0000000000001aa0 T __ZNK6icu_579NFRuleSet14findDoubleRuleEd
0000000000001820 T __ZNK6icu_579NFRuleSet14findNormalRuleEx
0000000000001cb0 T __ZNK6icu_579NFRuleSet17isFractionRuleSetEv
0000000000001cd0 T __ZNK6icu_579NFRuleSet23findFractionRuleSetRuleEd
00000000000021c0 T __ZNK6icu_579NFRuleSet5parseERKNS_13UnicodeStringERNS_13ParsePositionEdRNS_11FormattableE
0000000000001a10 T __ZNK6icu_579NFRuleSet6formatEdRNS_13UnicodeStringEiiR10UErrorCode
0000000000001790 T __ZNK6icu_579NFRuleSet6formatExRNS_13UnicodeStringEiiR10UErrorCode
0000000000001330 T __ZNK6icu_579NFRuleSeteqERKS0_
                 U __ZSt9terminatev
                 U __ZTVN6icu_5711ReplaceableE
                 U __ZTVN6icu_5713ParsePositionE
                 U __ZTVN6icu_5713UnicodeStringE
                 U __ZTVN6icu_577UObjectE
00000000000031b0 T ___clang_call_terminate
                 U ___cxa_begin_catch
                 U ___gxx_personality_v0
                 U ___stack_chk_fail
                 U ___stack_chk_guard
                 U _memset
                 U _u_strlen_57
                 U _uprv_floor_57
                 U _uprv_free_57
                 U _uprv_isInfinite_57
                 U _uprv_isNaN_57
                 U _uprv_malloc_57
                 U _uprv_maxMantissa_57
                 U _uprv_realloc_57
0000000000003450 s l_.str

libicui18n.a(nfrule.ao):
00000000000064fc s GCC_except_table0
0000000000006528 s GCC_except_table2
0000000000006624 s GCC_except_table23
0000000000006650 s GCC_except_table31
000000000000668c s GCC_except_table34
00000000000066b8 s GCC_except_table39
0000000000006718 s GCC_except_table40
0000000000006778 s GCC_except_table42
00000000000067f4 s GCC_except_table49
0000000000006870 s GCC_except_table50
00000000000068ac s GCC_except_table52
00000000000068d8 s GCC_except_table53
0000000000006554 s GCC_except_table6
000000000000692c s GCC_except_table66
00000000000065b4 s GCC_except_table9
                 U __Unwind_Resume
0000000000001d30 t __ZL9U_FAILURE10UErrorCode
0000000000001a30 T __ZN6icu_5710NFRuleList3addEPNS_6NFRuleE
                 U __ZN6icu_5710util64_powEij
                 U __ZN6icu_5710util64_touExPtjja
                 U __ZN6icu_5711Formattable7setLongEi
                 U __ZN6icu_5711Formattable9setDoubleEd
                 U __ZN6icu_5711FormattableC1Ev
                 U __ZN6icu_5711FormattableD1Ev
0000000000005f20 T __ZN6icu_5711ReplaceableC2Ev
0000000000005a40 T __ZN6icu_5712LocalPointerINS_24CollationElementIteratorEEC1EPS1_
0000000000006450 T __ZN6icu_5712LocalPointerINS_24CollationElementIteratorEEC2EPS1_
0000000000005ad0 T __ZN6icu_5712LocalPointerINS_24CollationElementIteratorEED1Ev
00000000000064a0 T __ZN6icu_5712LocalPointerINS_24CollationElementIteratorEED2Ev
                 U __ZN6icu_5712PatternProps12isWhiteSpaceEi
0000000000005b20 T __ZN6icu_5713FieldPosition13setBeginIndexEi
0000000000005af0 T __ZN6icu_5713FieldPositionC1Ei
00000000000061f0 T __ZN6icu_5713FieldPositionC2Ei
                 U __ZN6icu_5713FieldPositionD1Ev
0000000000004580 T __ZN6icu_5713ParsePosition13setErrorIndexEi
00000000000045c0 T __ZN6icu_5713ParsePosition8setIndexEi
0000000000004480 T __ZN6icu_5713ParsePositionC1Ev
0000000000006100 T __ZN6icu_5713ParsePositionC2Ev
                 U __ZN6icu_5713ParsePositionD1Ev
00000000000061b0 T __ZN6icu_5713UnicodeString10setToEmptyEv
0000000000001b00 T __ZN6icu_5713UnicodeString13removeBetweenEii
00000000000061d0 T __ZN6icu_5713UnicodeString13setZeroLengthEv
0000000000002b40 T __ZN6icu_5713UnicodeString5setToERKS0_
00000000000019e0 T __ZN6icu_5713UnicodeString5setToERKS0_ii
00000000000029c0 T __ZN6icu_5713UnicodeString6appendEPKti
0000000000002bd0 T __ZN6icu_5713UnicodeString6appendERKS0_
0000000000001960 T __ZN6icu_5713UnicodeString6appendERKS0_ii
00000000000029f0 T __ZN6icu_5713UnicodeString6appendEt
0000000000002b70 T __ZN6icu_5713UnicodeString6insertEiRKS0_
0000000000005200 T __ZN6icu_5713UnicodeString6removeEii
0000000000006160 T __ZN6icu_5713UnicodeString6removeEv
                 U __ZN6icu_5713UnicodeString7unBogusEv
                 U __ZN6icu_5713UnicodeString8copyFromERKS0_a
                 U __ZN6icu_5713UnicodeString8doAppendEPKtii
                 U __ZN6icu_5713UnicodeString8doAppendERKS0_ii
                 U __ZN6icu_5713UnicodeString9doReplaceEiiPKtii
                 U __ZN6icu_5713UnicodeString9doReplaceEiiRKS0_ii
                 U __ZN6icu_5713UnicodeStringC1EPKti
                 U __ZN6icu_5713UnicodeStringC1ERKS0_
                 U __ZN6icu_5713UnicodeStringC1EaPKti
0000000000001900 T __ZN6icu_5713UnicodeStringC1Ev
0000000000005ee0 T __ZN6icu_5713UnicodeStringC2Ev
                 U __ZN6icu_5713UnicodeStringD1Ev
                 U __ZN6icu_5713UnicodeStringaSERKS0_
                 U __ZN6icu_5714NFSubstitution16makeSubstitutionEiPKNS_6NFRuleES3_PKNS_9NFRuleSetEPKNS_21RuleBasedNumberFormatERKNS_13UnicodeStringER10UErrorCode
                 U __ZN6icu_5714NFSubstitution23setDecimalFormatSymbolsERKNS_20DecimalFormatSymbolsER10UErrorCode
0000000000006480 T __ZN6icu_5716LocalPointerBaseINS_24CollationElementIteratorEEC2EPS1_
00000000000064f0 T __ZN6icu_5716LocalPointerBaseINS_24CollationElementIteratorEED2Ev
0000000000005ab0 T __ZN6icu_5724CollationElementIterator12primaryOrderEi
                 U __ZN6icu_5724CollationElementIterator4nextER10UErrorCode
0000000000001b40 T __ZN6icu_576NFRule12setBaseValueExR10UErrorCode
0000000000001d50 T __ZN6icu_576NFRule19extractSubstitutionEPKNS_9NFRuleSetEPKS0_R10UErrorCode
0000000000000110 T __ZN6icu_576NFRule19parseRuleDescriptorERNS_13UnicodeStringER10UErrorCode
0000000000001470 T __ZN6icu_576NFRule20extractSubstitutionsEPKNS_9NFRuleSetERKNS_13UnicodeStringEPKS0_R10UErrorCode
0000000000005e70 T __ZN6icu_576NFRule23setDecimalFormatSymbolsERKNS_20DecimalFormatSymbolsER10UErrorCode
0000000000001940 T __ZN6icu_576NFRule7setTypeENS0_9ERuleTypeE
0000000000000af0 T __ZN6icu_576NFRule9makeRulesERNS_13UnicodeStringEPNS_9NFRuleSetEPKS0_PKNS_21RuleBasedNumberFormatERNS_10NFRuleListER10UErrorCode
00000000000009d0 T __ZN6icu_576NFRuleC1EPKNS_21RuleBasedNumberFormatERKNS_13UnicodeStringER10UErrorCode
0000000000000000 T __ZN6icu_576NFRuleC2EPKNS_21RuleBasedNumberFormatERKNS_13UnicodeStringER10UErrorCode
0000000000000ad0 T __ZN6icu_576NFRuleD1Ev
0000000000000a10 T __ZN6icu_576NFRuleD2Ev
                 U __ZN6icu_577UMemorydlEPv
                 U __ZN6icu_577UMemorynwEm
0000000000005f60 T __ZN6icu_577UObjectC2Ev
                 U __ZN6icu_579NFRuleSet19setNonNumericalRuleEPNS_6NFRuleE
00000000000069c8 s __ZN6icu_57L10gEqualHashE
00000000000069ce s __ZN6icu_57L10gEqualZeroE
00000000000069b6 s __ZN6icu_57L12gGreaterHashE
00000000000069bc s __ZN6icu_57L12gGreaterZeroE
0000000000006998 s __ZN6icu_57L12gLessPercentE
0000000000006a00 s __ZN6icu_57L13RULE_PREFIXESE
00000000000069c2 s __ZN6icu_57L13gEqualPercentE
0000000000002a20 t __ZN6icu_57L13util_append64ERNS_13UnicodeStringEx
00000000000069aa s __ZN6icu_57L15gGreaterGreaterE
00000000000069b0 s __ZN6icu_57L15gGreaterPercentE
000000000000697e s __ZN6icu_57L22gDollarOpenParenthesisE
000000000000698a s __ZN6icu_57L22gGreaterGreaterGreaterE
0000000000002390 t __ZN6icu_57L23util_equalSubstitutionsEPKNS_14NFSubstitutionES2_
0000000000006984 s __ZN6icu_57L24gClosedParenthesisDollarE
0000000000006976 s __ZN6icu_57L4gInfE
000000000000696e s __ZN6icu_57L4gNaNE
0000000000006968 s __ZN6icu_57L7gMinusXE
000000000000699e s __ZN6icu_57L9gLessHashE
0000000000006992 s __ZN6icu_57L9gLessLessE
00000000000069a4 s __ZN6icu_57L9gLessZeroE
0000000000005a20 T __ZNK6icu_5711Formattable9getDoubleEv
                 U __ZNK6icu_5712PluralFormat6formatEiR10UErrorCode
                 U __ZNK6icu_5712PluralFormat9parseTypeERKNS_13UnicodeStringEPKNS_6NFRuleERNS_11FormattableERNS_13FieldPositionE
0000000000005b60 T __ZNK6icu_5713FieldPosition11getEndIndexEv
0000000000005b40 T __ZNK6icu_5713FieldPosition13getBeginIndexEv
00000000000045a0 T __ZNK6icu_5713ParsePosition13getErrorIndexEv
0000000000004560 T __ZNK6icu_5713ParsePosition8getIndexEv
0000000000006300 T __ZNK6icu_5713UnicodeString10pinIndicesERiS1_
00000000000020e0 T __ZNK6icu_5713UnicodeString10startsWithERKS0_
0000000000006020 T __ZNK6icu_5713UnicodeString13getArrayStartEv
                 U __ZNK6icu_5713UnicodeString13tempSubStringEii
0000000000005fa0 T __ZNK6icu_5713UnicodeString14getShortLengthEv
0000000000005f80 T __ZNK6icu_5713UnicodeString14hasShortLengthEv
0000000000001ad0 T __ZNK6icu_5713UnicodeString6charAtEi
0000000000001990 T __ZNK6icu_5713UnicodeString6lengthEv
0000000000001ce0 T __ZNK6icu_5713UnicodeString7compareEPKti
0000000000005b80 T __ZNK6icu_5713UnicodeString7compareEiiRKS0_ii
0000000000002010 T __ZNK6icu_5713UnicodeString7indexOfEPKtii
                 U __ZNK6icu_5713UnicodeString7indexOfEPKtiiii
0000000000005bd0 T __ZNK6icu_5713UnicodeString7indexOfERKS0_i
00000000000063b0 T __ZNK6icu_5713UnicodeString7indexOfERKS0_iiii
00000000000013e0 T __ZNK6icu_5713UnicodeString7indexOfEt
0000000000002080 T __ZNK6icu_5713UnicodeString7indexOfEti
00000000000060e0 T __ZNK6icu_5713UnicodeString7isBogusEv
00000000000000e0 T __ZNK6icu_5713UnicodeString7isEmptyEv
0000000000005fc0 T __ZNK6icu_5713UnicodeString8doCharAtEi
                 U __ZNK6icu_5713UnicodeString8doEqualsERKS0_i
0000000000006070 T __ZNK6icu_5713UnicodeString8pinIndexERi
                 U __ZNK6icu_5713UnicodeString9doCompareEiiPKtii
0000000000006260 T __ZNK6icu_5713UnicodeString9doCompareEiiRKS0_ii
                 U __ZNK6icu_5713UnicodeString9doIndexOfEtii
00000000000022e0 T __ZNK6icu_5713UnicodeStringeqERKS0_
0000000000002b20 T __ZNK6icu_5714NFSubstitution6getPosEv
0000000000005a70 T __ZNK6icu_5716LocalPointerBaseINS_24CollationElementIteratorEE6isNullEv
0000000000005a90 T __ZNK6icu_5716LocalPointerBaseINS_24CollationElementIteratorEEptEv
                 U __ZNK6icu_5721RuleBasedNumberFormat11getCollatorEv
                 U __ZNK6icu_5721RuleBasedNumberFormat18createPluralFormatE11UPluralTypeRKNS_13UnicodeStringER10UErrorCode
                 U __ZNK6icu_5724CollationElementIterator9getOffsetEv
00000000000044a0 T __ZNK6icu_576NFRule11stripPrefixERNS_13UnicodeStringERKS1_RNS_13ParsePositionE
0000000000005270 T __ZNK6icu_576NFRule12allIgnorableERKNS_13UnicodeStringER10UErrorCode
0000000000004d50 T __ZNK6icu_576NFRule12prefixLengthERKNS_13UnicodeStringES3_R10UErrorCode
00000000000037b0 T __ZNK6icu_576NFRule14shouldRollBackEd
0000000000002400 T __ZNK6icu_576NFRule15_appendRuleTextERNS_13UnicodeStringE
0000000000005c50 T __ZNK6icu_576NFRule15findTextLenientERKNS_13UnicodeStringES3_iPi
0000000000001c20 T __ZNK6icu_576NFRule16expectedExponentEv
00000000000045e0 T __ZNK6icu_576NFRule16matchToDelimiterERKNS_13UnicodeStringEidS3_RNS_13ParsePositionEPKNS_14NFSubstitutionEd
0000000000002150 T __ZNK6icu_576NFRule20indexOfAnyRulePrefixEv
0000000000003890 T __ZNK6icu_576NFRule7doParseERKNS_13UnicodeStringERNS_13ParsePositionEadRNS_11FormattableE
0000000000001430 T __ZNK6icu_576NFRule7getTypeEv
0000000000003190 T __ZNK6icu_576NFRule8doFormatEdRNS_13UnicodeStringEiiR10UErrorCode
0000000000002c20 T __ZNK6icu_576NFRule8doFormatExRNS_13UnicodeStringEiiR10UErrorCode
0000000000005450 T __ZNK6icu_576NFRule8findTextERKNS_13UnicodeStringES3_iPi
00000000000021f0 T __ZNK6icu_576NFRuleeqERKS0_
0000000000001920 T __ZNK6icu_579NFRuleSet17isFractionRuleSetEv
                 U __ZTVN6icu_5711ReplaceableE
                 U __ZTVN6icu_5713FieldPositionE
                 U __ZTVN6icu_5713ParsePositionE
                 U __ZTVN6icu_5713UnicodeStringE
                 U __ZTVN6icu_577UObjectE
                 U ___gxx_personality_v0
                 U ___stack_chk_fail
                 U ___stack_chk_guard
                 U _memset
                 U _uprv_fmod_57
                 U _uprv_getInfinity_57
                 U _uprv_getNaN_57
                 U _uprv_log_57
                 U _uprv_pow_57
                 U _uprv_realloc_57
                 U _uprv_round_57
00000000000069d4 s l_.str
00000000000069e6 s l_.str.1

libicui18n.a(nfsubs.ao):
0000000000005138 s GCC_except_table144
0000000000005174 s GCC_except_table147
0000000000004de4 s GCC_except_table22
0000000000004e60 s GCC_except_table36
0000000000004ec0 s GCC_except_table48
0000000000004eec s GCC_except_table54
0000000000004f34 s GCC_except_table56
0000000000004f60 s GCC_except_table61
0000000000004f8c s GCC_except_table68
0000000000004fb8 s GCC_except_table79
0000000000004fe4 s GCC_except_table82
0000000000005010 s GCC_except_table84
000000000000509c s GCC_except_table93
00000000000050e4 s GCC_except_table95
                 U __Unwind_Resume
00000000000056e0 s __ZL13gEqualsEquals
00000000000056ee s __ZL19gGreaterGreaterThan
00000000000056e6 s __ZL26gGreaterGreaterGreaterThan
00000000000013c0 t __ZL9U_FAILURE10UErrorCode
0000000000001ff0 t __ZL9U_SUCCESS10UErrorCode
                 U __ZN6icu_5711Formattable7setLongEi
                 U __ZN6icu_5711Formattable9setDoubleEd
                 U __ZN6icu_5711FormattableC1Ed
                 U __ZN6icu_5711FormattableC1Ev
                 U __ZN6icu_5711FormattableD1Ev
0000000000004d10 T __ZN6icu_5711ReplaceableC2Ev
                 U __ZN6icu_5712NumberFormat14createInstanceER10UErrorCode
                 U __ZN6icu_5713DecimalFormatC1ERKNS_13UnicodeStringERKNS_20DecimalFormatSymbolsER10UErrorCode
0000000000003490 T __ZN6icu_5713ParsePosition8setIndexEi
0000000000003460 T __ZN6icu_5713ParsePositionC1Ei
0000000000004d80 T __ZN6icu_5713ParsePositionC2Ei
                 U __ZN6icu_5713ParsePositionD1Ev
0000000000004c90 T __ZN6icu_5713UnicodeString10setToEmptyEv
00000000000034b0 T __ZN6icu_5713UnicodeString13removeBetweenEii
0000000000004cb0 T __ZN6icu_5713UnicodeString13setZeroLengthEv
0000000000004d50 T __ZN6icu_5713UnicodeString5setToERKS0_
0000000000001820 T __ZN6icu_5713UnicodeString6appendERKS0_
00000000000017a0 T __ZN6icu_5713UnicodeString6appendEt
0000000000001ad0 T __ZN6icu_5713UnicodeString6insertEiRKS0_
0000000000002d20 T __ZN6icu_5713UnicodeString6insertEit
0000000000001330 T __ZN6icu_5713UnicodeString6removeEii
0000000000001750 T __ZN6icu_5713UnicodeString6removeEv
                 U __ZN6icu_5713UnicodeString8copyFromERKS0_a
                 U __ZN6icu_5713UnicodeString8doAppendEPKtii
                 U __ZN6icu_5713UnicodeString8doAppendERKS0_ii
                 U __ZN6icu_5713UnicodeString9doReplaceEiiPKtii
                 U __ZN6icu_5713UnicodeString9doReplaceEiiRKS0_ii
                 U __ZN6icu_5713UnicodeStringC1ERKS0_
                 U __ZN6icu_5713UnicodeStringC1ERKS0_ii
00000000000017d0 T __ZN6icu_5713UnicodeStringC1Ev
0000000000004cd0 T __ZN6icu_5713UnicodeStringC2Ev
                 U __ZN6icu_5713UnicodeStringD1Ev
                 U __ZN6icu_5713UnicodeStringaSERKS0_
0000000000001400 T __ZN6icu_5714NFSubstitution10setDivisorEiiR10UErrorCode
0000000000001470 T __ZN6icu_5714NFSubstitution16getStaticClassIDEv
0000000000000370 T __ZN6icu_5714NFSubstitution16makeSubstitutionEiPKNS_6NFRuleES3_PKNS_9NFRuleSetEPKNS_21RuleBasedNumberFormatERKNS_13UnicodeStringER10UErrorCode
0000000000001420 T __ZN6icu_5714NFSubstitution23setDecimalFormatSymbolsERKNS_20DecimalFormatSymbolsER10UErrorCode
0000000000000dc0 T __ZN6icu_5714NFSubstitutionC2EiPKNS_9NFRuleSetERKNS_13UnicodeStringER10UErrorCode
00000000000013f0 T __ZN6icu_5714NFSubstitutionD0Ev
00000000000013e0 T __ZN6icu_5714NFSubstitutionD1Ev
0000000000000020 T __ZN6icu_5714NFSubstitutionD2Ev
                 U __ZN6icu_5717util64_fromDoubleEd
00000000000042b0 T __ZN6icu_5719ModulusSubstitution10setDivisorEiiR10UErrorCode
0000000000002320 T __ZN6icu_5719ModulusSubstitution16getStaticClassIDEv
0000000000000d30 T __ZN6icu_5719ModulusSubstitutionC1EidPKNS_6NFRuleEPKNS_9NFRuleSetERKNS_13UnicodeStringER10UErrorCode
0000000000002210 T __ZN6icu_5719ModulusSubstitutionC2EidPKNS_6NFRuleEPKNS_9NFRuleSetERKNS_13UnicodeStringER10UErrorCode
0000000000000180 T __ZN6icu_5719ModulusSubstitutionD0Ev
0000000000000160 T __ZN6icu_5719ModulusSubstitutionD1Ev
0000000000000140 T __ZN6icu_5719ModulusSubstitutionD2Ev
0000000000004070 T __ZN6icu_5721NumeratorSubstitution16getStaticClassIDEv
00000000000056f4 S __ZN6icu_5721NumeratorSubstitution4LTLTE
0000000000004a10 T __ZN6icu_5721NumeratorSubstitution7fixdescERKNS_13UnicodeStringE
0000000000000be0 T __ZN6icu_5721NumeratorSubstitutionC1EidPNS_9NFRuleSetERKNS_13UnicodeStringER10UErrorCode
00000000000048a0 T __ZN6icu_5721NumeratorSubstitutionC2EidPNS_9NFRuleSetERKNS_13UnicodeStringER10UErrorCode
0000000000000340 T __ZN6icu_5721NumeratorSubstitutionD0Ev
0000000000000320 T __ZN6icu_5721NumeratorSubstitutionD1Ev
0000000000000300 T __ZN6icu_5721NumeratorSubstitutionD2Ev
0000000000002140 T __ZN6icu_5721SameValueSubstitution16getStaticClassIDEv
0000000000000d80 T __ZN6icu_5721SameValueSubstitutionC1EiPKNS_9NFRuleSetERKNS_13UnicodeStringER10UErrorCode
0000000000002030 T __ZN6icu_5721SameValueSubstitutionC2EiPKNS_9NFRuleSetERKNS_13UnicodeStringER10UErrorCode
00000000000000a0 T __ZN6icu_5721SameValueSubstitutionD0Ev
0000000000000080 T __ZN6icu_5721SameValueSubstitutionD1Ev
0000000000000000 T __ZN6icu_5721SameValueSubstitutionD2Ev
0000000000004140 T __ZN6icu_5722MultiplierSubstitution10setDivisorEiiR10UErrorCode
0000000000002170 T __ZN6icu_5722MultiplierSubstitution16getStaticClassIDEv
0000000000000c60 T __ZN6icu_5722MultiplierSubstitutionC1EidPKNS_9NFRuleSetERKNS_13UnicodeStringER10UErrorCode
0000000000004b20 T __ZN6icu_5722MultiplierSubstitutionC2EidPKNS_9NFRuleSetERKNS_13UnicodeStringER10UErrorCode
0000000000000110 T __ZN6icu_5722MultiplierSubstitutionD0Ev
00000000000000f0 T __ZN6icu_5722MultiplierSubstitutionD1Ev
00000000000000d0 T __ZN6icu_5722MultiplierSubstitutionD2Ev
0000000000002750 T __ZN6icu_5724IntegralPartSubstitution16getStaticClassIDEv
0000000000000b60 T __ZN6icu_5724IntegralPartSubstitutionC1EiPKNS_9NFRuleSetERKNS_13UnicodeStringER10UErrorCode
0000000000004830 T __ZN6icu_5724IntegralPartSubstitutionC2EiPKNS_9NFRuleSetERKNS_13UnicodeStringER10UErrorCode
00000000000001f0 T __ZN6icu_5724IntegralPartSubstitutionD0Ev
00000000000001d0 T __ZN6icu_5724IntegralPartSubstitutionD1Ev
00000000000001b0 T __ZN6icu_5724IntegralPartSubstitutionD2Ev
0000000000003580 T __ZN6icu_5725AbsoluteValueSubstitution16getStaticClassIDEv
0000000000000cb0 T __ZN6icu_5725AbsoluteValueSubstitutionC1EiPKNS_9NFRuleSetERKNS_13UnicodeStringER10UErrorCode
0000000000004c00 T __ZN6icu_5725AbsoluteValueSubstitutionC2EiPKNS_9NFRuleSetERKNS_13UnicodeStringER10UErrorCode
00000000000002d0 T __ZN6icu_5725AbsoluteValueSubstitutionD0Ev
00000000000002b0 T __ZN6icu_5725AbsoluteValueSubstitutionD1Ev
0000000000000290 T __ZN6icu_5725AbsoluteValueSubstitutionD2Ev
0000000000003550 T __ZN6icu_5726FractionalPartSubstitution16getStaticClassIDEv
0000000000000cf0 T __ZN6icu_5726FractionalPartSubstitutionC1EiPKNS_9NFRuleSetERKNS_13UnicodeStringER10UErrorCode
0000000000002780 T __ZN6icu_5726FractionalPartSubstitutionC2EiPKNS_9NFRuleSetERKNS_13UnicodeStringER10UErrorCode
0000000000000260 T __ZN6icu_5726FractionalPartSubstitutionD0Ev
0000000000000240 T __ZN6icu_5726FractionalPartSubstitutionD1Ev
0000000000000220 T __ZN6icu_5726FractionalPartSubstitutionD2Ev
                 U __ZN6icu_577UMemorydlEPv
                 U __ZN6icu_577UMemorynwEm
0000000000001310 T __ZN6icu_577UObjectC2Ev
                 U __ZN6icu_577UObjectD2Ev
                 U __ZN6icu_579DigitList12getDecimalAtEv
                 U __ZN6icu_579DigitList15roundFixedPointEi
                 U __ZN6icu_579DigitList3setEd
                 U __ZN6icu_579DigitList6appendEc
                 U __ZN6icu_579DigitList6reduceEv
                 U __ZN6icu_579DigitList8getDigitEi
                 U __ZN6icu_579DigitListC1Ev
                 U __ZN6icu_579DigitListD1Ev
0000000000002920 T __ZN6icu_579NFRuleSet23makeIntoFractionRuleSetEv
                 U __ZNK6icu_5711Formattable7getLongER10UErrorCode
                 U __ZNK6icu_5711Formattable9getDoubleER10UErrorCode
                 U __ZNK6icu_5712NumberFormat24getMaximumFractionDigitsEv
                 U __ZNK6icu_5712NumberFormat6formatEdRNS_13UnicodeStringE
0000000000001fd0 T __ZNK6icu_5713ParsePosition8getIndexEv
00000000000047e0 T __ZNK6icu_5713UnicodeString13getArrayStartEv
0000000000004760 T __ZNK6icu_5713UnicodeString14getShortLengthEv
0000000000004740 T __ZNK6icu_5713UnicodeString14hasShortLengthEv
0000000000000b10 T __ZNK6icu_5713UnicodeString6charAtEi
0000000000000ac0 T __ZNK6icu_5713UnicodeString6lengthEv
00000000000020f0 T __ZNK6icu_5713UnicodeString7compareEPKti
0000000000004c70 T __ZNK6icu_5713UnicodeString7isBogusEv
0000000000004780 T __ZNK6icu_5713UnicodeString8doCharAtEi
0000000000004ab0 T __ZNK6icu_5713UnicodeString8endsWithEPKti
                 U __ZNK6icu_5713UnicodeString9doCompareEiiPKtii
0000000000002900 T __ZNK6icu_5714NFSubstitution10getRuleSetEv
0000000000001b30 T __ZNK6icu_5714NFSubstitution14doSubstitutionEdRNS_13UnicodeStringEiiR10UErrorCode
0000000000001870 T __ZNK6icu_5714NFSubstitution14doSubstitutionExRNS_13UnicodeStringEiiR10UErrorCode
0000000000003a20 T __ZNK6icu_5714NFSubstitution15getNumberFormatEv
0000000000001480 T __ZNK6icu_5714NFSubstitution17getDynamicClassIDEv
0000000000002010 T __ZNK6icu_5714NFSubstitution21isModulusSubstitutionEv
00000000000024b0 T __ZNK6icu_5714NFSubstitution6getPosEv
0000000000001db0 T __ZNK6icu_5714NFSubstitution7doParseERKNS_13UnicodeStringERNS_13ParsePositionEddaRNS_11FormattableE
00000000000015c0 T __ZNK6icu_5714NFSubstitution8toStringERNS_13UnicodeStringE
00000000000014a0 T __ZNK6icu_5714NFSubstitutioneqERKS0_
00000000000043c0 T __ZNK6icu_5719ModulusSubstitution14calcUpperBoundEd
00000000000024d0 T __ZNK6icu_5719ModulusSubstitution14doSubstitutionEdRNS_13UnicodeStringEiiR10UErrorCode
00000000000023e0 T __ZNK6icu_5719ModulusSubstitution14doSubstitutionExRNS_13UnicodeStringEiiR10UErrorCode
0000000000004340 T __ZNK6icu_5719ModulusSubstitution15transformNumberEd
0000000000004320 T __ZNK6icu_5719ModulusSubstitution15transformNumberEx
0000000000004370 T __ZNK6icu_5719ModulusSubstitution16composeRuleValueEdd
0000000000002330 T __ZNK6icu_5719ModulusSubstitution17getDynamicClassIDEv
0000000000004400 T __ZNK6icu_5719ModulusSubstitution21isModulusSubstitutionEv
0000000000002590 T __ZNK6icu_5719ModulusSubstitution7doParseERKNS_13UnicodeStringERNS_13ParsePositionEddaRNS_11FormattableE
0000000000002690 T __ZNK6icu_5719ModulusSubstitution8toStringERNS_13UnicodeStringE
00000000000043e0 T __ZNK6icu_5719ModulusSubstitution9tokenCharEv
0000000000002350 T __ZNK6icu_5719ModulusSubstitutioneqERKNS_14NFSubstitutionE
0000000000004700 T __ZNK6icu_5721NumeratorSubstitution14calcUpperBoundEd
00000000000035b0 T __ZNK6icu_5721NumeratorSubstitution14doSubstitutionEdRNS_13UnicodeStringEiiR10UErrorCode
0000000000004670 T __ZNK6icu_5721NumeratorSubstitution14doSubstitutionExRNS_13UnicodeStringEiiR10UErrorCode
00000000000046b0 T __ZNK6icu_5721NumeratorSubstitution15transformNumberEd
0000000000004690 T __ZNK6icu_5721NumeratorSubstitution15transformNumberEx
00000000000046e0 T __ZNK6icu_5721NumeratorSubstitution16composeRuleValueEdd
0000000000004080 T __ZNK6icu_5721NumeratorSubstitution17getDynamicClassIDEv
0000000000003a40 T __ZNK6icu_5721NumeratorSubstitution7doParseERKNS_13UnicodeStringERNS_13ParsePositionEddaRNS_11FormattableE
0000000000004720 T __ZNK6icu_5721NumeratorSubstitution9tokenCharEv
0000000000004000 T __ZNK6icu_5721NumeratorSubstitutioneqERKNS_14NFSubstitutionE
                 U __ZNK6icu_5721RuleBasedNumberFormat11findRuleSetERKNS_13UnicodeStringER10UErrorCode
0000000000000bc0 T __ZNK6icu_5721RuleBasedNumberFormat17getDefaultRuleSetEv
                 U __ZNK6icu_5721RuleBasedNumberFormat23getDecimalFormatSymbolsEv
0000000000004100 T __ZNK6icu_5721SameValueSubstitution14calcUpperBoundEd
00000000000040c0 T __ZNK6icu_5721SameValueSubstitution15transformNumberEd
00000000000040a0 T __ZNK6icu_5721SameValueSubstitution15transformNumberEx
00000000000040e0 T __ZNK6icu_5721SameValueSubstitution16composeRuleValueEdd
0000000000002150 T __ZNK6icu_5721SameValueSubstitution17getDynamicClassIDEv
0000000000004120 T __ZNK6icu_5721SameValueSubstitution9tokenCharEv
0000000000004270 T __ZNK6icu_5722MultiplierSubstitution14calcUpperBoundEd
00000000000041d0 T __ZNK6icu_5722MultiplierSubstitution15transformNumberEd
00000000000041b0 T __ZNK6icu_5722MultiplierSubstitution15transformNumberEx
0000000000004240 T __ZNK6icu_5722MultiplierSubstitution16composeRuleValueEdd
0000000000002180 T __ZNK6icu_5722MultiplierSubstitution17getDynamicClassIDEv
0000000000004290 T __ZNK6icu_5722MultiplierSubstitution9tokenCharEv
00000000000021a0 T __ZNK6icu_5722MultiplierSubstitutioneqERKNS_14NFSubstitutionE
0000000000004480 T __ZNK6icu_5724IntegralPartSubstitution14calcUpperBoundEd
0000000000004430 T __ZNK6icu_5724IntegralPartSubstitution15transformNumberEd
0000000000004410 T __ZNK6icu_5724IntegralPartSubstitution15transformNumberEx
0000000000004460 T __ZNK6icu_5724IntegralPartSubstitution16composeRuleValueEdd
0000000000002760 T __ZNK6icu_5724IntegralPartSubstitution17getDynamicClassIDEv
00000000000044a0 T __ZNK6icu_5724IntegralPartSubstitution9tokenCharEv
0000000000004630 T __ZNK6icu_5725AbsoluteValueSubstitution14calcUpperBoundEd
00000000000045d0 T __ZNK6icu_5725AbsoluteValueSubstitution15transformNumberEd
0000000000004590 T __ZNK6icu_5725AbsoluteValueSubstitution15transformNumberEx
0000000000004600 T __ZNK6icu_5725AbsoluteValueSubstitution16composeRuleValueEdd
0000000000003590 T __ZNK6icu_5725AbsoluteValueSubstitution17getDynamicClassIDEv
0000000000004650 T __ZNK6icu_5725AbsoluteValueSubstitution9tokenCharEv
0000000000004550 T __ZNK6icu_5726FractionalPartSubstitution14calcUpperBoundEd
0000000000002940 T __ZNK6icu_5726FractionalPartSubstitution14doSubstitutionEdRNS_13UnicodeStringEiiR10UErrorCode
00000000000044c0 T __ZNK6icu_5726FractionalPartSubstitution14doSubstitutionExRNS_13UnicodeStringEiiR10UErrorCode
00000000000044f0 T __ZNK6icu_5726FractionalPartSubstitution15transformNumberEd
00000000000044e0 T __ZNK6icu_5726FractionalPartSubstitution15transformNumberEx
0000000000004530 T __ZNK6icu_5726FractionalPartSubstitution16composeRuleValueEdd
0000000000003560 T __ZNK6icu_5726FractionalPartSubstitution17getDynamicClassIDEv
0000000000002d60 T __ZNK6icu_5726FractionalPartSubstitution7doParseERKNS_13UnicodeStringERNS_13ParsePositionEddaRNS_11FormattableE
0000000000004570 T __ZNK6icu_5726FractionalPartSubstitution9tokenCharEv
00000000000034f0 T __ZNK6icu_5726FractionalPartSubstitutioneqERKNS_14NFSubstitutionE
                 U __ZNK6icu_576Format6formatERKNS_11FormattableERNS_13UnicodeStringER10UErrorCode
0000000000000c30 T __ZNK6icu_576NFRule10getDivisorEv
0000000000000b40 T __ZNK6icu_576NFRule12getBaseValueEv
                 U __ZNK6icu_576NFRule7doParseERKNS_13UnicodeStringERNS_13ParsePositionEadRNS_11FormattableE
                 U __ZNK6icu_576NFRule8doFormatEdRNS_13UnicodeStringEiiR10UErrorCode
                 U __ZNK6icu_576NFRule8doFormatExRNS_13UnicodeStringEiiR10UErrorCode
                 U __ZNK6icu_579DigitList8getCountEv
                 U __ZNK6icu_579DigitList9getDoubleEv
                 U __ZNK6icu_579NFRuleSet14findDoubleRuleEd
0000000000000ba0 T __ZNK6icu_579NFRuleSet17isFractionRuleSetEv
                 U __ZNK6icu_579NFRuleSet5parseERKNS_13UnicodeStringERNS_13ParsePositionEdRNS_11FormattableE
                 U __ZNK6icu_579NFRuleSet6formatEdRNS_13UnicodeStringEiiR10UErrorCode
                 U __ZNK6icu_579NFRuleSet6formatExRNS_13UnicodeStringEiiR10UErrorCode
00000000000017f0 T __ZNK6icu_579NFRuleSet7getNameERNS_13UnicodeStringE
00000000000013a0 T __ZNK6icu_579NFRuleSet8getOwnerEv
00000000000053e0 S __ZTIN6icu_5714NFSubstitutionE
00000000000054c0 S __ZTIN6icu_5719ModulusSubstitutionE
00000000000056c0 S __ZTIN6icu_5721NumeratorSubstitutionE
0000000000005400 S __ZTIN6icu_5721SameValueSubstitutionE
00000000000054a0 S __ZTIN6icu_5722MultiplierSubstitutionE
0000000000005560 S __ZTIN6icu_5724IntegralPartSubstitutionE
0000000000005620 S __ZTIN6icu_5725AbsoluteValueSubstitutionE
0000000000005580 S __ZTIN6icu_5726FractionalPartSubstitutionE
                 U __ZTIN6icu_577UObjectE
0000000000005730 S __ZTSN6icu_5714NFSubstitutionE
0000000000005780 S __ZTSN6icu_5719ModulusSubstitutionE
0000000000005830 S __ZTSN6icu_5721NumeratorSubstitutionE
0000000000005700 S __ZTSN6icu_5721SameValueSubstitutionE
0000000000005750 S __ZTSN6icu_5722MultiplierSubstitutionE
00000000000057a0 S __ZTSN6icu_5724IntegralPartSubstitutionE
0000000000005800 S __ZTSN6icu_5725AbsoluteValueSubstitutionE
00000000000057d0 S __ZTSN6icu_5726FractionalPartSubstitutionE
                 U __ZTVN10__cxxabiv120__si_class_type_infoE
                 U __ZTVN6icu_5711ReplaceableE
                 U __ZTVN6icu_5713ParsePositionE
                 U __ZTVN6icu_5713UnicodeStringE
00000000000051c0 S __ZTVN6icu_5714NFSubstitutionE
00000000000052d0 S __ZTVN6icu_5719ModulusSubstitutionE
0000000000005638 S __ZTVN6icu_5721NumeratorSubstitutionE
0000000000005248 S __ZTVN6icu_5721SameValueSubstitutionE
0000000000005418 S __ZTVN6icu_5722MultiplierSubstitutionE
00000000000054d8 S __ZTVN6icu_5724IntegralPartSubstitutionE
0000000000005598 S __ZTVN6icu_5725AbsoluteValueSubstitutionE
0000000000005358 S __ZTVN6icu_5726FractionalPartSubstitutionE
                 U __ZTVN6icu_577UObjectE
00000000000084e0 b __ZZN6icu_5714NFSubstitution16getStaticClassIDEvE7classID
00000000000084e3 b __ZZN6icu_5719ModulusSubstitution16getStaticClassIDEvE7classID
00000000000084e7 b __ZZN6icu_5721NumeratorSubstitution16getStaticClassIDEvE7classID
00000000000084e1 b __ZZN6icu_5721SameValueSubstitution16getStaticClassIDEvE7classID
00000000000084e2 b __ZZN6icu_5722MultiplierSubstitution16getStaticClassIDEvE7classID
00000000000084e4 b __ZZN6icu_5724IntegralPartSubstitution16getStaticClassIDEvE7classID
00000000000084e6 b __ZZN6icu_5725AbsoluteValueSubstitution16getStaticClassIDEvE7classID
00000000000084e5 b __ZZN6icu_5726FractionalPartSubstitution16getStaticClassIDEvE7classID
                 U ___cxa_bad_typeid
                 U ___cxa_pure_virtual
                 U ___gxx_personality_v0
                 U ___stack_chk_fail
                 U ___stack_chk_guard
                 U _memset
                 U _u_strlen_57
                 U _uprv_fabs_57
                 U _uprv_floor_57
                 U _uprv_fmod_57
                 U _uprv_getInfinity_57
                 U _uprv_isInfinite_57
                 U _uprv_pow_57
                 U _uprv_round_57

libicui18n.a(rbnf.ao):
00000000000090cc s GCC_except_table101
00000000000090f8 s GCC_except_table102
0000000000009118 s GCC_except_table103
000000000000916c s GCC_except_table104
00000000000091c0 s GCC_except_table105
0000000000008a6c s GCC_except_table11
00000000000091ec s GCC_except_table111
0000000000009218 s GCC_except_table117
0000000000009254 s GCC_except_table122
0000000000009274 s GCC_except_table123
0000000000009294 s GCC_except_table130
0000000000008aa8 s GCC_except_table17
0000000000008ad4 s GCC_except_table29
0000000000008b00 s GCC_except_table33
0000000000008b18 s GCC_except_table40
0000000000008b60 s GCC_except_table42
0000000000008c10 s GCC_except_table44
0000000000008c58 s GCC_except_table46
0000000000008ca0 s GCC_except_table48
0000000000008ce8 s GCC_except_table50
0000000000008d30 s GCC_except_table52
0000000000008dac s GCC_except_table55
0000000000008dd8 s GCC_except_table57
0000000000008e20 s GCC_except_table58
0000000000008e4c s GCC_except_table63
0000000000008e64 s GCC_except_table66
0000000000008e84 s GCC_except_table68
0000000000008eb0 s GCC_except_table69
0000000000008edc s GCC_except_table74
0000000000008f30 s GCC_except_table75
0000000000008f78 s GCC_except_table76
0000000000008fc0 s GCC_except_table87
000000000000903c s GCC_except_table97
0000000000009084 s GCC_except_table99
                 U __Unwind_Resume
0000000000009312 s __ZL12gSemiPercent
00000000000092f0 s __ZL13gLenientParse
00000000000092e6 s __ZL15gPercentPercent
00000000000005a0 t __ZL9U_FAILURE10UErrorCode
0000000000001220 t __ZL9U_SUCCESS10UErrorCode
                 U __ZN6icu_5711Formattable7setLongEi
                 U __ZN6icu_5711FormattableC1Ev
                 U __ZN6icu_5711FormattableD1Ev
                 U __ZN6icu_5711FormattableaSERKS0_
0000000000008580 T __ZN6icu_5711ReplaceableC2Ev
                 U __ZN6icu_5712NumberFormat10setContextE15UDisplayContextR10UErrorCode
                 U __ZN6icu_5712NumberFormat11setCurrencyEPKtR10UErrorCode
                 U __ZN6icu_5712NumberFormat15setGroupingUsedEa
                 U __ZN6icu_5712NumberFormat19setParseIntegerOnlyEa
                 U __ZN6icu_5712NumberFormat23setMaximumIntegerDigitsEi
                 U __ZN6icu_5712NumberFormat23setMinimumIntegerDigitsEi
                 U __ZN6icu_5712NumberFormat24setMaximumFractionDigitsEi
                 U __ZN6icu_5712NumberFormat24setMinimumFractionDigitsEi
                 U __ZN6icu_5712NumberFormatC2ERKS0_
                 U __ZN6icu_5712NumberFormatC2Ev
                 U __ZN6icu_5712NumberFormatD2Ev
                 U __ZN6icu_5712NumberFormataSERKS0_
                 U __ZN6icu_5712PatternProps12isWhiteSpaceEi
                 U __ZN6icu_5712PluralFormatC1ERKNS_6LocaleE11UPluralTypeRKNS_13UnicodeStringER10UErrorCode
                 U __ZN6icu_5713BreakIterator22createSentenceInstanceERKNS_6LocaleER10UErrorCode
0000000000001310 T __ZN6icu_5713LocDataParser10nextStringEv
0000000000000ad0 T __ZN6icu_5713LocDataParser10parseErrorEPKc
00000000000009b0 T __ZN6icu_5713LocDataParser14skipWhitespaceEv
0000000000001200 T __ZN6icu_5713LocDataParser3incEv
0000000000001030 T __ZN6icu_5713LocDataParser5checkEt
0000000000000480 T __ZN6icu_5713LocDataParser5parseEPti
00000000000005c0 T __ZN6icu_5713LocDataParser7doParseEv
0000000000000a50 T __ZN6icu_5713LocDataParser8checkIncEt
0000000000000cf0 T __ZN6icu_5713LocDataParser9nextArrayERi
00000000000017d0 T __ZN6icu_5713LocDataParserC1ER11UParseErrorR10UErrorCode
00000000000084e0 T __ZN6icu_5713LocDataParserC2ER11UParseErrorR10UErrorCode
0000000000001800 T __ZN6icu_5713LocDataParserD1Ev
0000000000008530 T __ZN6icu_5713LocDataParserD2Ev
00000000000062d0 T __ZN6icu_5713ParsePosition13setErrorIndexEi
0000000000006390 T __ZN6icu_5713ParsePosition8setIndexEi
0000000000006310 T __ZN6icu_5713ParsePositionC1Ei
0000000000008720 T __ZN6icu_5713ParsePositionC2Ei
                 U __ZN6icu_5713ParsePositionD1Ev
0000000000006360 T __ZN6icu_5713ParsePositionaSERKS0_
                 U __ZN6icu_5713UnicodeString10setToBogusEv
0000000000008a30 T __ZN6icu_5713UnicodeString10setToEmptyEv
0000000000008a50 T __ZN6icu_5713UnicodeString13setZeroLengthEv
                 U __ZN6icu_5713UnicodeString19getTerminatedBufferEv
0000000000007ac0 T __ZN6icu_5713UnicodeString5setToERKS0_
0000000000007520 T __ZN6icu_5713UnicodeString5setToERKS0_ii
                 U __ZN6icu_5713UnicodeString5setToEaPKti
0000000000003970 T __ZN6icu_5713UnicodeString6appendERKS0_
0000000000007a90 T __ZN6icu_5713UnicodeString6appendERKS0_ii
0000000000007570 T __ZN6icu_5713UnicodeString6removeEii
00000000000089e0 T __ZN6icu_5713UnicodeString6removeEv
                 U __ZN6icu_5713UnicodeString7toTitleEPNS_13BreakIteratorERKNS_6LocaleEj
                 U __ZN6icu_5713UnicodeString7unBogusEv
                 U __ZN6icu_5713UnicodeString8copyFromERKS0_a
                 U __ZN6icu_5713UnicodeString8doAppendERKS0_ii
                 U __ZN6icu_5713UnicodeString9doReplaceEiiPKtii
                 U __ZN6icu_5713UnicodeString9doReplaceEiiRKS0_ii
                 U __ZN6icu_5713UnicodeString9getBufferEi
                 U __ZN6icu_5713UnicodeStringC1EOS0_
                 U __ZN6icu_5713UnicodeStringC1EPKciNS0_10EInvariantE
                 U __ZN6icu_5713UnicodeStringC1ERKS0_
                 U __ZN6icu_5713UnicodeStringC1ERKS0_i
                 U __ZN6icu_5713UnicodeStringC1EaPKti
0000000000001cc0 T __ZN6icu_5713UnicodeStringC1Ev
0000000000008540 T __ZN6icu_5713UnicodeStringC2Ev
                 U __ZN6icu_5713UnicodeStringD1Ev
                 U __ZN6icu_5713UnicodeStringaSERKS0_
0000000000004230 T __ZN6icu_5716LocalizationInfo3refEv
0000000000007af0 T __ZN6icu_5716LocalizationInfo5unrefEv
00000000000083b0 T __ZN6icu_5716LocalizationInfoC2Ev
0000000000000050 T __ZN6icu_5716LocalizationInfoD0Ev
0000000000000040 T __ZN6icu_5716LocalizationInfoD1Ev
0000000000000030 T __ZN6icu_5716LocalizationInfoD2Ev
                 U __ZN6icu_5717RuleBasedCollatorC1ERKNS_13UnicodeStringER10UErrorCode
                 U __ZN6icu_5720DecimalFormatSymbolsC1ERKNS_6LocaleER10UErrorCode
                 U __ZN6icu_5720DecimalFormatSymbolsC1ERKS0_
0000000000007600 T __ZN6icu_5721RuleBasedNumberFormat10setContextE15UDisplayContextR10UErrorCode
00000000000063f0 T __ZN6icu_5721RuleBasedNumberFormat10setLenientEa
0000000000007260 T __ZN6icu_5721RuleBasedNumberFormat15stripWhitespaceERNS_13UnicodeStringE
0000000000000000 T __ZN6icu_5721RuleBasedNumberFormat16getStaticClassIDEv
0000000000006470 T __ZN6icu_5721RuleBasedNumberFormat17setDefaultRuleSetERKNS_13UnicodeStringER10UErrorCode
0000000000006700 T __ZN6icu_5721RuleBasedNumberFormat18initDefaultRuleSetEv
00000000000052a0 T __ZN6icu_5721RuleBasedNumberFormat21getRuleSetDisplayNameERKNS_13UnicodeStringERKNS_6LocaleE
0000000000004e60 T __ZN6icu_5721RuleBasedNumberFormat21getRuleSetDisplayNameEiRKNS_6LocaleE
0000000000008120 T __ZN6icu_5721RuleBasedNumberFormat23setDecimalFormatSymbolsERKNS_20DecimalFormatSymbolsE
0000000000006f90 T __ZN6icu_5721RuleBasedNumberFormat24initializeDefaultNaNRuleER10UErrorCode
0000000000007fb0 T __ZN6icu_5721RuleBasedNumberFormat25adoptDecimalFormatSymbolsEPNS_20DecimalFormatSymbolsE
0000000000007770 T __ZN6icu_5721RuleBasedNumberFormat29initCapitalizationContextInfoERKNS_6LocaleE
0000000000006cc0 T __ZN6icu_5721RuleBasedNumberFormat29initializeDefaultInfinityRuleER10UErrorCode
0000000000006b90 T __ZN6icu_5721RuleBasedNumberFormat30initializeDecimalFormatSymbolsER10UErrorCode
0000000000001ce0 T __ZN6icu_5721RuleBasedNumberFormat4initERKNS_13UnicodeStringEPNS_16LocalizationInfoER11UParseErrorR10UErrorCode
0000000000003f70 T __ZN6icu_5721RuleBasedNumberFormat7disposeEv
0000000000003ab0 T __ZN6icu_5721RuleBasedNumberFormatC1ENS_15URBNFRuleSetTagERKNS_6LocaleER10UErrorCode
0000000000002f80 T __ZN6icu_5721RuleBasedNumberFormatC1ERKNS_13UnicodeStringEPNS_16LocalizationInfoERKNS_6LocaleER11UParseErrorR10UErrorCode
0000000000003160 T __ZN6icu_5721RuleBasedNumberFormatC1ERKNS_13UnicodeStringER11UParseErrorR10UErrorCode
0000000000003320 T __ZN6icu_5721RuleBasedNumberFormatC1ERKNS_13UnicodeStringERKNS_6LocaleER11UParseErrorR10UErrorCode
0000000000002dc0 T __ZN6icu_5721RuleBasedNumberFormatC1ERKNS_13UnicodeStringES3_R11UParseErrorR10UErrorCode
0000000000002bc0 T __ZN6icu_5721RuleBasedNumberFormatC1ERKNS_13UnicodeStringES3_RKNS_6LocaleER11UParseErrorR10UErrorCode
0000000000003f40 T __ZN6icu_5721RuleBasedNumberFormatC1ERKS0_
0000000000003360 T __ZN6icu_5721RuleBasedNumberFormatC2ENS_15URBNFRuleSetTagERKNS_6LocaleER10UErrorCode
0000000000002e00 T __ZN6icu_5721RuleBasedNumberFormatC2ERKNS_13UnicodeStringEPNS_16LocalizationInfoERKNS_6LocaleER11UParseErrorR10UErrorCode
0000000000002fd0 T __ZN6icu_5721RuleBasedNumberFormatC2ERKNS_13UnicodeStringER11UParseErrorR10UErrorCode
00000000000031a0 T __ZN6icu_5721RuleBasedNumberFormatC2ERKNS_13UnicodeStringERKNS_6LocaleER11UParseErrorR10UErrorCode
0000000000002c10 T __ZN6icu_5721RuleBasedNumberFormatC2ERKNS_13UnicodeStringES3_R11UParseErrorR10UErrorCode
0000000000001b20 T __ZN6icu_5721RuleBasedNumberFormatC2ERKNS_13UnicodeStringES3_RKNS_6LocaleER11UParseErrorR10UErrorCode
0000000000003af0 T __ZN6icu_5721RuleBasedNumberFormatC2ERKS0_
0000000000004310 T __ZN6icu_5721RuleBasedNumberFormatD0Ev
00000000000042f0 T __ZN6icu_5721RuleBasedNumberFormatD1Ev
0000000000004250 T __ZN6icu_5721RuleBasedNumberFormatD2Ev
0000000000003c70 T __ZN6icu_5721RuleBasedNumberFormataSERKS0_
0000000000001640 T __ZN6icu_5722StringLocalizationInfo6createERKNS_13UnicodeStringER11UParseErrorR10UErrorCode
0000000000001290 T __ZN6icu_5722StringLocalizationInfoC1EPtPPS1_ii
0000000000008340 T __ZN6icu_5722StringLocalizationInfoC2EPtPPS1_ii
0000000000001950 T __ZN6icu_5722StringLocalizationInfoD0Ev
0000000000001930 T __ZN6icu_5722StringLocalizationInfoD1Ev
0000000000001820 T __ZN6icu_5722StringLocalizationInfoD2Ev
00000000000039c0 T __ZN6icu_5725ures_getNextUnicodeStringEP15UResourceBundlePPKcP10UErrorCode
                 U __ZN6icu_576Format12setLocaleIDsEPKcS2_
                 U __ZN6icu_576Locale10getDefaultEv
                 U __ZN6icu_576LocaleC1EPKcS2_S2_S2_
                 U __ZN6icu_576LocaleC1ERKS0_
                 U __ZN6icu_576LocaleC1Ev
                 U __ZN6icu_576LocaleD1Ev
                 U __ZN6icu_576LocaleaSERKS0_
                 U __ZN6icu_576NFRuleC1EPKNS_21RuleBasedNumberFormatERKNS_13UnicodeStringER10UErrorCode
                 U __ZN6icu_576NFRuleD1Ev
00000000000010a0 T __ZN6icu_576VArray3addEPvR10UErrorCode
0000000000001240 T __ZN6icu_576VArray6lengthEv
0000000000001260 T __ZN6icu_576VArray7releaseEv
0000000000000cc0 T __ZN6icu_576VArrayC1EPFvPvE
00000000000012f0 T __ZN6icu_576VArrayC1Ev
0000000000008310 T __ZN6icu_576VArrayC2EPFvPvE
0000000000008470 T __ZN6icu_576VArrayC2Ev
00000000000012d0 T __ZN6icu_576VArrayD1Ev
00000000000083e0 T __ZN6icu_576VArrayD2Ev
                 U __ZN6icu_577UMemorydaEPv
                 U __ZN6icu_577UMemorydlEPv
                 U __ZN6icu_577UMemorynaEm
                 U __ZN6icu_577UMemorynwEm
00000000000085c0 T __ZN6icu_577UObjectC2Ev
                 U __ZN6icu_578Collator14createInstanceERKNS_6LocaleER10UErrorCode
                 U __ZN6icu_579NFRuleSet10parseRulesERNS_13UnicodeStringER10UErrorCode
                 U __ZN6icu_579NFRuleSet23setDecimalFormatSymbolsERKNS_20DecimalFormatSymbolsER10UErrorCode
                 U __ZN6icu_579NFRuleSetC1EPNS_21RuleBasedNumberFormatEPNS_13UnicodeStringEiR10UErrorCode
                 U __ZN6icu_579NFRuleSetD1Ev
00000000000092d0 s __ZN6icu_57L15DQUOTE_STOPLISTE
00000000000092d4 s __ZN6icu_57L15SQUOTE_STOPLISTE
00000000000092d8 s __ZN6icu_57L16NOQUOTE_STOPLISTE
00000000000002c0 t __ZN6icu_57L5streqEPKtS1_
0000000000000ca0 t __ZN6icu_57L8DeleteFnEPv
                 U __ZNK6icu_5711Formattable7getTypeEv
00000000000063d0 T __ZNK6icu_5711Formattable9getDoubleEv
                 U __ZNK6icu_5712NumberFormat10getContextE19UDisplayContextTypeR10UErrorCode
                 U __ZNK6icu_5712NumberFormat11parseObjectERKNS_13UnicodeStringERNS_11FormattableERNS_13ParsePositionE
                 U __ZNK6icu_5712NumberFormat13parseCurrencyERKNS_13UnicodeStringERNS_13ParsePositionE
                 U __ZNK6icu_5712NumberFormat20getEffectiveCurrencyEPtR10UErrorCode
                 U __ZNK6icu_5712NumberFormat5parseERKNS_13UnicodeStringERNS_11FormattableER10UErrorCode
                 U __ZNK6icu_5712NumberFormat6formatERKNS_11FormattableERNS_13UnicodeStringEPNS_21FieldPositionIteratorER10UErrorCode
                 U __ZNK6icu_5712NumberFormat6formatERKNS_11FormattableERNS_13UnicodeStringERNS_13FieldPositionER10UErrorCode
                 U __ZNK6icu_5712NumberFormat6formatERKNS_11StringPieceERNS_13UnicodeStringEPNS_21FieldPositionIteratorER10UErrorCode
                 U __ZNK6icu_5712NumberFormat6formatERKNS_9DigitListERNS_13UnicodeStringEPNS_21FieldPositionIteratorER10UErrorCode
                 U __ZNK6icu_5712NumberFormat6formatERKNS_9DigitListERNS_13UnicodeStringERNS_13FieldPositionER10UErrorCode
                 U __ZNK6icu_5712NumberFormat6formatEdRNS_13UnicodeStringEPNS_21FieldPositionIteratorER10UErrorCode
                 U __ZNK6icu_5712NumberFormat6formatEdRNS_13UnicodeStringERNS_13FieldPositionER10UErrorCode
                 U __ZNK6icu_5712NumberFormat6formatEiRNS_13UnicodeStringEPNS_21FieldPositionIteratorER10UErrorCode
                 U __ZNK6icu_5712NumberFormat6formatEiRNS_13UnicodeStringERNS_13FieldPositionER10UErrorCode
                 U __ZNK6icu_5712NumberFormat6formatExRNS_13UnicodeStringEPNS_21FieldPositionIteratorER10UErrorCode
                 U __ZNK6icu_5712NumberFormat6formatExRNS_13UnicodeStringERNS_13FieldPositionER10UErrorCode
0000000000001580 T __ZNK6icu_5713LocDataParser6inListEtPKt
00000000000063b0 T __ZNK6icu_5713ParsePosition13getErrorIndexEv
00000000000062f0 T __ZNK6icu_5713ParsePosition8getIndexEv
0000000000008880 T __ZNK6icu_5713UnicodeString10pinIndicesERiS1_
0000000000006a50 T __ZNK6icu_5713UnicodeString10startsWithERKS0_
0000000000008930 T __ZNK6icu_5713UnicodeString13getArrayStartEv
00000000000084c0 T __ZNK6icu_5713UnicodeString14getShortLengthEv
00000000000084a0 T __ZNK6icu_5713UnicodeString14hasShortLengthEv
00000000000074f0 T __ZNK6icu_5713UnicodeString6charAtEi
0000000000001780 T __ZNK6icu_5713UnicodeString6lengthEv
0000000000008790 T __ZNK6icu_5713UnicodeString7compareEiiRKS0_ii
                 U __ZNK6icu_5713UnicodeString7extractEPtiR10UErrorCode
                 U __ZNK6icu_5713UnicodeString7extractEiiPciNS0_10EInvariantE
00000000000059e0 T __ZNK6icu_5713UnicodeString7indexOfEPKtii
                 U __ZNK6icu_5713UnicodeString7indexOfEPKtiiii
0000000000007a30 T __ZNK6icu_5713UnicodeString7indexOfEti
0000000000008690 T __ZNK6icu_5713UnicodeString7isBogusEv
00000000000066d0 T __ZNK6icu_5713UnicodeString7isEmptyEv
                 U __ZNK6icu_5713UnicodeString8char32AtEi
0000000000008980 T __ZNK6icu_5713UnicodeString8doCharAtEi
                 U __ZNK6icu_5713UnicodeString8doEqualsERKS0_i
00000000000086b0 T __ZNK6icu_5713UnicodeString8pinIndexERi
                 U __ZNK6icu_5713UnicodeString9doCompareEiiPKtii
00000000000087e0 T __ZNK6icu_5713UnicodeString9doCompareEiiRKS0_ii
                 U __ZNK6icu_5713UnicodeString9doIndexOfEtii
00000000000085e0 T __ZNK6icu_5713UnicodeStringeqERKS0_
0000000000000330 T __ZNK6icu_5716LocalizationInfo14indexForLocaleEPKt
00000000000003d0 T __ZNK6icu_5716LocalizationInfo15indexForRuleSetEPKt
0000000000000060 T __ZNK6icu_5716LocalizationInfoeqEPKS0_
                 U __ZNK6icu_5717RuleBasedCollator8getRulesEv
0000000000007f00 T __ZNK6icu_5720DecimalFormatSymbols9getSymbolENS0_19ENumberFormatSymbolE
00000000000054b0 T __ZNK6icu_5721RuleBasedNumberFormat11findRuleSetERKNS_13UnicodeStringER10UErrorCode
0000000000007b50 T __ZNK6icu_5721RuleBasedNumberFormat11getCollatorEv
0000000000004720 T __ZNK6icu_5721RuleBasedNumberFormat14getRuleSetNameEi
0000000000007f90 T __ZNK6icu_5721RuleBasedNumberFormat17getDefaultNaNRuleEv
00000000000075e0 T __ZNK6icu_5721RuleBasedNumberFormat17getDefaultRuleSetEv
0000000000000010 T __ZNK6icu_5721RuleBasedNumberFormat17getDynamicClassIDEv
00000000000081e0 T __ZNK6icu_5721RuleBasedNumberFormat18createPluralFormatE11UPluralTypeRKNS_13UnicodeStringER10UErrorCode
0000000000006ac0 T __ZNK6icu_5721RuleBasedNumberFormat21getDefaultRuleSetNameEv
0000000000007f70 T __ZNK6icu_5721RuleBasedNumberFormat22getDefaultInfinityRuleEv
0000000000004210 T __ZNK6icu_5721RuleBasedNumberFormat23getDecimalFormatSymbolsEv
00000000000049a0 T __ZNK6icu_5721RuleBasedNumberFormat23getNumberOfRuleSetNamesEv
0000000000004ab0 T __ZNK6icu_5721RuleBasedNumberFormat27getRuleSetDisplayNameLocaleEiR10UErrorCode
0000000000005660 T __ZNK6icu_5721RuleBasedNumberFormat30adjustForCapitalizationContextEiRNS_13UnicodeStringE
0000000000004a60 T __ZNK6icu_5721RuleBasedNumberFormat36getNumberOfRuleSetDisplayNameLocalesEv
0000000000004340 T __ZNK6icu_5721RuleBasedNumberFormat5cloneEv
0000000000005c50 T __ZNK6icu_5721RuleBasedNumberFormat5parseERKNS_13UnicodeStringERNS_11FormattableERNS_13ParsePositionE
0000000000005b50 T __ZNK6icu_5721RuleBasedNumberFormat6formatEdRKNS_13UnicodeStringERS1_RNS_13FieldPositionER10UErrorCode
0000000000005830 T __ZNK6icu_5721RuleBasedNumberFormat6formatEdRNS_13UnicodeStringERNS_13FieldPositionE
00000000000058e0 T __ZNK6icu_5721RuleBasedNumberFormat6formatEiRKNS_13UnicodeStringERS1_RNS_13FieldPositionER10UErrorCode
00000000000055b0 T __ZNK6icu_5721RuleBasedNumberFormat6formatEiRNS_13UnicodeStringERNS_13FieldPositionE
0000000000005a50 T __ZNK6icu_5721RuleBasedNumberFormat6formatExRKNS_13UnicodeStringERS1_RNS_13FieldPositionER10UErrorCode
0000000000005780 T __ZNK6icu_5721RuleBasedNumberFormat6formatExRNS_13UnicodeStringERNS_13FieldPositionE
0000000000004650 T __ZNK6icu_5721RuleBasedNumberFormat8getRulesEv
00000000000082f0 T __ZNK6icu_5721RuleBasedNumberFormat9isLenientEv
00000000000043f0 T __ZNK6icu_5721RuleBasedNumberFormateqERKNS_6FormatE
00000000000019f0 T __ZNK6icu_5722StringLocalizationInfo13getLocaleNameEi
0000000000001a70 T __ZNK6icu_5722StringLocalizationInfo14getDisplayNameEii
0000000000001980 T __ZNK6icu_5722StringLocalizationInfo14getRuleSetNameEi
00000000000082b0 T __ZNK6icu_5722StringLocalizationInfo19getNumberOfRuleSetsEv
00000000000082d0 T __ZNK6icu_5722StringLocalizationInfo25getNumberOfDisplayLocalesEv
                 U __ZNK6icu_576Locale11getBaseNameEv
0000000000003950 T __ZNK6icu_576Locale7getNameEv
                 U __ZNK6icu_576LocaleeqERKS0_
0000000000007a00 T __ZNK6icu_576LocaleneERKS0_
                 U __ZNK6icu_579NFRuleSet11appendRulesERNS_13UnicodeStringE
0000000000006340 T __ZNK6icu_579NFRuleSet11isParseableEv
                 U __ZNK6icu_579NFRuleSet5parseERKNS_13UnicodeStringERNS_13ParsePositionEdRNS_11FormattableE
                 U __ZNK6icu_579NFRuleSet6formatEdRNS_13UnicodeStringEiiR10UErrorCode
                 U __ZNK6icu_579NFRuleSet6formatExRNS_13UnicodeStringEiiR10UErrorCode
0000000000004970 T __ZNK6icu_579NFRuleSet7getNameERNS_13UnicodeStringE
0000000000005570 T __ZNK6icu_579NFRuleSet7isNamedERKNS_13UnicodeStringE
0000000000004950 T __ZNK6icu_579NFRuleSet8isPublicEv
                 U __ZNK6icu_579NFRuleSeteqERKS0_
                 U __ZSt9terminatev
                 U __ZTIN6icu_5712NumberFormatE
0000000000009620 S __ZTIN6icu_5716LocalizationInfoE
                 U __ZTIN6icu_5717RuleBasedCollatorE
0000000000009660 S __ZTIN6icu_5721RuleBasedNumberFormatE
0000000000009640 S __ZTIN6icu_5722StringLocalizationInfoE
0000000000009770 D __ZTIN6icu_577UMemoryE
                 U __ZTIN6icu_578CollatorE
0000000000009320 S __ZTSN6icu_5716LocalizationInfoE
0000000000009390 S __ZTSN6icu_5721RuleBasedNumberFormatE
0000000000009360 S __ZTSN6icu_5722StringLocalizationInfoE
0000000000009340 S __ZTSN6icu_577UMemoryE
                 U __ZTVN10__cxxabiv117__class_type_infoE
                 U __ZTVN10__cxxabiv120__si_class_type_infoE
                 U __ZTVN6icu_5711ReplaceableE
                 U __ZTVN6icu_5713ParsePositionE
                 U __ZTVN6icu_5713UnicodeStringE
00000000000095b8 S __ZTVN6icu_5716LocalizationInfoE
0000000000009420 S __ZTVN6icu_5721RuleBasedNumberFormatE
00000000000093c0 S __ZTVN6icu_5722StringLocalizationInfoE
                 U __ZTVN6icu_577UObjectE
000000000000c2f8 b __ZZN6icu_5721RuleBasedNumberFormat16getStaticClassIDEvE7classID
0000000000001920 T ___clang_call_terminate
                 U ___cxa_bad_typeid
                 U ___cxa_begin_catch
                 U ___cxa_pure_virtual
                 U ___dynamic_cast
                 U ___gxx_personality_v0
                 U ___stack_chk_fail
                 U ___stack_chk_guard
                 U _memset
                 U _u_islower_57
                 U _u_strcmp_57
                 U _u_strlen_57
                 U _u_strncpy_57
                 U _uprv_free_57
                 U _uprv_isNaN_57
                 U _uprv_malloc_57
                 U _uprv_realloc_57
                 U _uprv_trunc_57
                 U _ures_close_57
                 U _ures_getByKeyWithFallback_57
                 U _ures_getIntVector_57
                 U _ures_getLocaleByType_57
                 U _ures_getNextString_57
                 U _ures_hasNext_57
                 U _ures_open_57
0000000000009740 s l_.str.10
0000000000009754 s l_.str.13
0000000000009760 s l_.str.14
00000000000096f2 s l_.str.7
00000000000096f8 s l_.str.8
0000000000009720 s l_.str.9

libicui18n.a(numsys.ao):
00000000000019ec s GCC_except_table13
0000000000001a34 s GCC_except_table19
0000000000001a60 s GCC_except_table21
0000000000001a8c s GCC_except_table23
0000000000001ab8 s GCC_except_table31
0000000000001984 s GCC_except_table4
0000000000001b28 s GCC_except_table50
00000000000019c0 s GCC_except_table9
                 U __Unwind_Resume
00000000000005d0 t __ZL9U_FAILURE10UErrorCode
0000000000001670 t __ZL9U_SUCCESS10UErrorCode
0000000000001810 T __ZN6icu_5711ReplaceableC2Ev
00000000000014c0 T __ZN6icu_5712LocalPointerINS_7UVectorEEC1EPS1_R10UErrorCode
0000000000001870 T __ZN6icu_5712LocalPointerINS_7UVectorEEC2EPS1_R10UErrorCode
0000000000001580 T __ZN6icu_5712LocalPointerINS_7UVectorEED1Ev
0000000000001940 T __ZN6icu_5712LocalPointerINS_7UVectorEED2Ev
                 U __ZN6icu_5713UnicodeString10setToBogusEv
00000000000001e0 T __ZN6icu_5713UnicodeString5setToERKS0_
                 U __ZN6icu_5713UnicodeString5setToEaPKti
                 U __ZN6icu_5713UnicodeString8copyFromERKS0_a
                 U __ZN6icu_5713UnicodeStringC1EPKciNS0_10EInvariantE
                 U __ZN6icu_5713UnicodeStringC1ERKS0_
                 U __ZN6icu_5713UnicodeStringC1EaPKti
00000000000001c0 T __ZN6icu_5713UnicodeStringC1Ev
00000000000017d0 T __ZN6icu_5713UnicodeStringC2Ev
                 U __ZN6icu_5713UnicodeStringD1Ev
                 U __ZN6icu_5713UnicodeStringaSERKS0_
0000000000000d80 T __ZN6icu_5715NumberingSystem14createInstanceER10UErrorCode
00000000000006c0 T __ZN6icu_5715NumberingSystem14createInstanceERKNS_6LocaleER10UErrorCode
00000000000003b0 T __ZN6icu_5715NumberingSystem14createInstanceEiaRKNS_13UnicodeStringER10UErrorCode
0000000000000640 T __ZN6icu_5715NumberingSystem14setAlgorithmicEa
0000000000000000 T __ZN6icu_5715NumberingSystem16getStaticClassIDEv
0000000000000fd0 T __ZN6icu_5715NumberingSystem17getAvailableNamesER10UErrorCode
0000000000000af0 T __ZN6icu_5715NumberingSystem20createInstanceByNameEPKcR10UErrorCode
0000000000000610 T __ZN6icu_5715NumberingSystem7setDescENS_13UnicodeStringE
0000000000000660 T __ZN6icu_5715NumberingSystem7setNameEPKc
00000000000005f0 T __ZN6icu_5715NumberingSystem8setRadixEi
0000000000000380 T __ZN6icu_5715NumberingSystemC1ERKS0_
0000000000000210 T __ZN6icu_5715NumberingSystemC1Ev
0000000000000230 T __ZN6icu_5715NumberingSystemC2ERKS0_
0000000000000060 T __ZN6icu_5715NumberingSystemC2Ev
0000000000000f10 T __ZN6icu_5715NumberingSystemD0Ev
0000000000000ef0 T __ZN6icu_5715NumberingSystemD1Ev
0000000000000ea0 T __ZN6icu_5715NumberingSystemD2Ev
0000000000000300 T __ZN6icu_5715NumberingSystemaSERKS0_
0000000000001560 T __ZN6icu_5716LocalPointerBaseINS_7UVectorEE6orphanEv
0000000000001910 T __ZN6icu_5716LocalPointerBaseINS_7UVectorEEC2EPS1_
0000000000001930 T __ZN6icu_5716LocalPointerBaseINS_7UVectorEED2Ev
                 U __ZN6icu_5717StringEnumeration4nextEPiR10UErrorCode
                 U __ZN6icu_5717StringEnumeration5unextEPiR10UErrorCode
                 U __ZN6icu_5717StringEnumerationC2Ev
                 U __ZN6icu_5717StringEnumerationD2Ev
0000000000000030 T __ZN6icu_5721NumsysNameEnumeration16getStaticClassIDEv
00000000000016b0 T __ZN6icu_5721NumsysNameEnumeration5resetER10UErrorCode
00000000000015f0 T __ZN6icu_5721NumsysNameEnumeration5snextER10UErrorCode
0000000000001530 T __ZN6icu_5721NumsysNameEnumerationC1EPNS_7UVectorER10UErrorCode
00000000000015a0 T __ZN6icu_5721NumsysNameEnumerationC2EPNS_7UVectorER10UErrorCode
00000000000017a0 T __ZN6icu_5721NumsysNameEnumerationD0Ev
0000000000001780 T __ZN6icu_5721NumsysNameEnumerationD1Ev
0000000000001720 T __ZN6icu_5721NumsysNameEnumerationD2Ev
0000000000000db0 T __ZN6icu_5726ures_getUnicodeStringByKeyEPK15UResourceBundlePKcP10UErrorCode
                 U __ZN6icu_576Locale10getDefaultEv
                 U __ZN6icu_577UMemorydlEPv
                 U __ZN6icu_577UMemorynwEm
00000000000002e0 T __ZN6icu_577UObjectC2ERKS0_
00000000000001a0 T __ZN6icu_577UObjectC2Ev
                 U __ZN6icu_577UObjectD2Ev
0000000000001850 T __ZN6icu_577UObjectaSERKS0_
                 U __ZN6icu_577UVector10addElementEPvR10UErrorCode
                 U __ZN6icu_577UVectorC1EPFvPvEPFa8UElementS4_ER10UErrorCode
0000000000001c9c s __ZN6icu_57L12gAlgorithmicE
0000000000001c54 s __ZN6icu_57L12gTraditionalE
0000000000001c68 s __ZN6icu_57L15gNumberElementsE
0000000000001c80 s __ZN6icu_57L17gNumberingSystemsE
0000000000001c91 s __ZN6icu_57L5gDescE
0000000000001c40 s __ZN6icu_57L5gLatnE
0000000000001c96 s __ZN6icu_57L6gRadixE
0000000000001c4d s __ZN6icu_57L7gNativeE
0000000000001c45 s __ZN6icu_57L8gDefaultE
0000000000001c60 s __ZN6icu_57L8gFinanceE
                 U __ZNK6icu_5713UnicodeString11countChar32Eii
0000000000000fb0 T __ZNK6icu_5715NumberingSystem13isAlgorithmicEv
0000000000000f60 T __ZNK6icu_5715NumberingSystem14getDescriptionEv
0000000000000010 T __ZNK6icu_5715NumberingSystem17getDynamicClassIDEv
0000000000000f90 T __ZNK6icu_5715NumberingSystem7getNameEv
0000000000000f40 T __ZNK6icu_5715NumberingSystem8getRadixEv
0000000000001510 T __ZNK6icu_5716LocalPointerBaseINS_7UVectorEE8getAliasEv
00000000000014f0 T __ZNK6icu_5716LocalPointerBaseINS_7UVectorEEptEv
                 U __ZNK6icu_5717StringEnumeration5cloneEv
                 U __ZNK6icu_5717StringEnumerationeqERKS0_
                 U __ZNK6icu_5717StringEnumerationneERKS0_
0000000000000040 T __ZNK6icu_5721NumsysNameEnumeration17getDynamicClassIDEv
00000000000016d0 T __ZNK6icu_5721NumsysNameEnumeration5countER10UErrorCode
                 U __ZNK6icu_576Locale15getKeywordValueEPKcPciR10UErrorCode
0000000000000ad0 T __ZNK6icu_576Locale7getNameEv
0000000000001690 T __ZNK6icu_577UVector4sizeEv
                 U __ZNK6icu_577UVector9elementAtEi
0000000000001bf0 S __ZTIN6icu_5715NumberingSystemE
                 U __ZTIN6icu_5717StringEnumerationE
0000000000001c10 S __ZTIN6icu_5721NumsysNameEnumerationE
                 U __ZTIN6icu_577UObjectE
0000000000001cb0 S __ZTSN6icu_5715NumberingSystemE
0000000000001cd0 S __ZTSN6icu_5721NumsysNameEnumerationE
                 U __ZTVN10__cxxabiv120__si_class_type_infoE
                 U __ZTVN6icu_5711ReplaceableE
                 U __ZTVN6icu_5713UnicodeStringE
0000000000001b50 S __ZTVN6icu_5715NumberingSystemE
0000000000001b80 S __ZTVN6icu_5721NumsysNameEnumerationE
                 U __ZTVN6icu_577UObjectE
0000000000002cb8 b __ZZN6icu_5715NumberingSystem16getStaticClassIDEvE7classID
0000000000002cc0 b __ZZN6icu_5715NumberingSystem17getAvailableNamesER10UErrorCodeE14availableNames
0000000000002cb9 b __ZZN6icu_5721NumsysNameEnumeration16getStaticClassIDEvE7classID
                 U ___gxx_personality_v0
                 U ___stack_chk_fail
                 U ___stack_chk_guard
                 U _strcmp
                 U _strcpy
                 U _strncpy
                 U _u_UCharsToChars_57
                 U _uprv_deleteUObject_57
                 U _ures_close_57
                 U _ures_getByKey_57
                 U _ures_getInt_57
                 U _ures_getKey_57
                 U _ures_getNextResource_57
                 U _ures_getStringByKeyWithFallback_57
                 U _ures_getStringByKey_57
                 U _ures_hasNext_57
                 U _ures_openDirect_57
                 U _ures_open_57
0000000000001c28 s l_.str

libicui18n.a(unumsys.ao):
0000000000000314 s GCC_except_table0
0000000000000340 s GCC_except_table8
                 U __Unwind_Resume
0000000000000130 t __ZL9U_FAILURE10UErrorCode
                 U __ZN6icu_5713UnicodeStringD1Ev
                 U __ZN6icu_5715NumberingSystem14createInstanceERKNS_6LocaleER10UErrorCode
                 U __ZN6icu_5715NumberingSystem17getAvailableNamesER10UErrorCode
                 U __ZN6icu_5715NumberingSystem20createInstanceByNameEPKcR10UErrorCode
                 U __ZN6icu_576LocaleC1EPKcS2_S2_S2_
                 U __ZN6icu_576LocaleD1Ev
                 U __ZNK6icu_5713UnicodeString7extractEPtiR10UErrorCode
                 U __ZNK6icu_5715NumberingSystem13isAlgorithmicEv
                 U __ZNK6icu_5715NumberingSystem7getNameEv
                 U __ZNK6icu_5715NumberingSystem8getRadixEv
                 U ___gxx_personality_v0
                 U ___stack_chk_fail
                 U ___stack_chk_guard
                 U _uenum_openFromStringEnumeration_57
0000000000000150 T _unumsys_close_57
0000000000000220 T _unumsys_getDescription_57
00000000000001c0 T _unumsys_getName_57
00000000000001e0 T _unumsys_getRadix_57
0000000000000200 T _unumsys_isAlgorithmic_57
0000000000000190 T _unumsys_openAvailableNames_57
00000000000000e0 T _unumsys_openByName_57
0000000000000000 T _unumsys_open_57

libicui18n.a(ucsdet.ao):
0000000000000550 s GCC_except_table0
                 U __Unwind_Resume
0000000000000110 t __ZL9U_FAILURE10UErrorCode
                 U __ZN6icu_5715CharsetDetector16setStripTagsFlagEa
                 U __ZN6icu_5715CharsetDetector20setDetectableCharsetEPKcaR10UErrorCode
                 U __ZN6icu_5715CharsetDetector24getAllDetectableCharsetsER10UErrorCode
                 U __ZN6icu_5715CharsetDetector6detectER10UErrorCode
                 U __ZN6icu_5715CharsetDetector7setTextEPKci
                 U __ZN6icu_5715CharsetDetector9detectAllERiR10UErrorCode
                 U __ZN6icu_5715CharsetDetectorC1ER10UErrorCode
                 U __ZN6icu_5715CharsetDetectorD1Ev
                 U __ZN6icu_577UMemorydlEPv
                 U __ZN6icu_577UMemorynwEm
                 U __ZNK6icu_5712CharsetMatch11getLanguageEv
                 U __ZNK6icu_5712CharsetMatch13getConfidenceEv
                 U __ZNK6icu_5712CharsetMatch7getNameEv
                 U __ZNK6icu_5712CharsetMatch9getUCharsEPtiP10UErrorCode
                 U __ZNK6icu_5715CharsetDetector16getStripTagsFlagEv
                 U __ZNK6icu_5715CharsetDetector19setDeclaredEncodingEPKci
                 U __ZNK6icu_5715CharsetDetector21getDetectableCharsetsER10UErrorCode
                 U ___gxx_personality_v0
0000000000000130 T _ucsdet_close_57
0000000000000350 T _ucsdet_detectAll_57
00000000000002b0 T _ucsdet_detect_57
00000000000003f0 T _ucsdet_enableInputFilter_57
0000000000000500 T _ucsdet_getAllDetectableCharsets_57
0000000000000210 T _ucsdet_getConfidence_57
0000000000000520 T _ucsdet_getDetectableCharsets_57
0000000000000260 T _ucsdet_getLanguage_57
00000000000001c0 T _ucsdet_getName_57
0000000000000450 T _ucsdet_getUChars_57
00000000000003b0 T _ucsdet_isInputFilterEnabled_57
0000000000000000 T _ucsdet_open_57
0000000000000300 T _ucsdet_setDeclaredEncoding_57
00000000000004b0 T _ucsdet_setDetectableCharset_57
0000000000000170 T _ucsdet_setText_57

libicui18n.a(ucal.ao):
0000000000002a1c s GCC_except_table12
0000000000002a64 s GCC_except_table16
0000000000002a90 s GCC_except_table17
00000000000029a8 s GCC_except_table3
0000000000002b28 s GCC_except_table42
0000000000002b70 s GCC_except_table49
0000000000002b9c s GCC_except_table50
0000000000002be4 s GCC_except_table52
00000000000029f0 s GCC_except_table8
                 U __Unwind_Resume
00000000000002c0 t __ZL15_createTimeZonePKtiP10UErrorCode
0000000000002db8 s __ZL20defaultKeywordValues
0000000000002d20 s __ZL9CAL_TYPES
00000000000005a0 t __ZL9U_FAILURE10UErrorCode
00000000000001f0 t __ZL9U_SUCCESS10UErrorCode
0000000000002910 T __ZN6icu_5711ReplaceableC2Ev
                 U __ZN6icu_5713UnicodeString5setToEPtii
                 U __ZN6icu_5713UnicodeString5setToEaPKti
                 U __ZN6icu_5713UnicodeStringC1EPKti
0000000000000210 T __ZN6icu_5713UnicodeStringC1Ev
00000000000028d0 T __ZN6icu_5713UnicodeStringC2Ev
                 U __ZN6icu_5713UnicodeStringD1Ev
                 U __ZN6icu_5713UnicodeStringaSERKS0_
                 U __ZN6icu_5717GregorianCalendar18setGregorianChangeEdR10UErrorCode
                 U __ZN6icu_5718TimeZoneTransitionC1Ev
                 U __ZN6icu_5718TimeZoneTransitionD1Ev
                 U __ZN6icu_576LocaleC1EPKcS2_S2_S2_
                 U __ZN6icu_576LocaleD1Ev
0000000000002950 T __ZN6icu_577UObjectC2Ev
                 U __ZN6icu_578Calendar10setLenientEa
                 U __ZN6icu_578Calendar13adoptTimeZoneEPNS_8TimeZoneE
                 U __ZN6icu_578Calendar14createInstanceEPNS_8TimeZoneERKNS_6LocaleER10UErrorCode
                 U __ZN6icu_578Calendar15setTimeInMillisEdR10UErrorCode
                 U __ZN6icu_578Calendar17setFirstDayOfWeekE19UCalendarDaysOfWeek
                 U __ZN6icu_578Calendar24setSkippedWallTimeOptionE23UCalendarWallTimeOption
                 U __ZN6icu_578Calendar25setMinimalDaysInFirstWeekEh
                 U __ZN6icu_578Calendar25setRepeatedWallTimeOptionE23UCalendarWallTimeOption
                 U __ZN6icu_578Calendar3setE19UCalendarDateFieldsi
                 U __ZN6icu_578Calendar3setEiii
                 U __ZN6icu_578Calendar3setEiiiiii
                 U __ZN6icu_578Calendar5clearE19UCalendarDateFields
                 U __ZN6icu_578Calendar5clearEv
                 U __ZN6icu_578Calendar6getNowEv
00000000000014e0 T __ZN6icu_578Calendar7setTimeEdR10UErrorCode
                 U __ZN6icu_578TimeZone12adoptDefaultEPS0_
                 U __ZN6icu_578TimeZone12getWindowsIDERKNS_13UnicodeStringERS1_R10UErrorCode
                 U __ZN6icu_578TimeZone13createDefaultEv
                 U __ZN6icu_578TimeZone14createTimeZoneERKNS_13UnicodeStringE
                 U __ZN6icu_578TimeZone14getCanonicalIDERKNS_13UnicodeStringERS1_RaR10UErrorCode
                 U __ZN6icu_578TimeZone16getTZDataVersionER10UErrorCode
                 U __ZN6icu_578TimeZone17createEnumerationEPKc
                 U __ZN6icu_578TimeZone17createEnumerationEv
                 U __ZN6icu_578TimeZone17getIDForWindowsIDERKNS_13UnicodeStringEPKcRS1_R10UErrorCode
                 U __ZN6icu_578TimeZone27createTimeZoneIDEnumerationE19USystemTimeZoneTypePKcPKiR10UErrorCode
0000000000002990 T __ZNK6icu_5713UnicodeString14getShortLengthEv
0000000000002970 T __ZNK6icu_5713UnicodeString14hasShortLengthEv
0000000000002670 T __ZNK6icu_5713UnicodeString6lengthEv
                 U __ZNK6icu_5713UnicodeString7extractEPtiR10UErrorCode
                 U __ZNK6icu_5717GregorianCalendar18getGregorianChangeEv
                 U __ZNK6icu_5718TimeZoneTransition7getTimeEv
                 U __ZNK6icu_578Calendar11getLocaleIDE18ULocDataLocaleTypeR10UErrorCode
                 U __ZNK6icu_578Calendar11getTimeZoneEv
                 U __ZNK6icu_578Calendar15getTimeInMillisER10UErrorCode
                 U __ZNK6icu_578Calendar17getFirstDayOfWeekEv
                 U __ZNK6icu_578Calendar24getSkippedWallTimeOptionEv
                 U __ZNK6icu_578Calendar25getMinimalDaysInFirstWeekEv
                 U __ZNK6icu_578Calendar25getRepeatedWallTimeOptionEv
                 U __ZNK6icu_578Calendar3getE19UCalendarDateFieldsR10UErrorCode
                 U __ZNK6icu_578Calendar5isSetE19UCalendarDateFields
0000000000001460 T __ZNK6icu_578Calendar7getTimeER10UErrorCode
                 U __ZNK6icu_578Calendar9isLenientEv
                 U __ZNK6icu_578TimeZone14getDisplayNameEaNS0_12EDisplayTypeERKNS_6LocaleERNS_13UnicodeStringE
0000000000000230 T __ZNK6icu_578TimeZone5getIDERNS_13UnicodeStringE
                 U __ZTIN6icu_5713BasicTimeZoneE
                 U __ZTIN6icu_5714SimpleTimeZoneE
                 U __ZTIN6icu_5717GregorianCalendarE
                 U __ZTIN6icu_578CalendarE
                 U __ZTIN6icu_578TimeZoneE
                 U __ZTVN6icu_5711ReplaceableE
                 U __ZTVN6icu_5713UnicodeStringE
                 U __ZTVN6icu_577UObjectE
                 U ___cxa_bad_typeid
                 U ___dynamic_cast
                 U ___gxx_personality_v0
                 U ___stack_chk_fail
                 U ___stack_chk_guard
                 U _memcpy
                 U _strlen
                 U _strncpy
                 U _u_UCharsToChars_57
                 U _u_strlen_57
0000000000001620 T _ucal_add_57
00000000000017a0 T _ucal_clearField_57
00000000000017d0 T _ucal_clear_57
0000000000000910 T _ucal_clone_57
00000000000008d0 T _ucal_close_57
0000000000001400 T _ucal_countAvailable_57
00000000000015e0 T _ucal_equivalentTo_57
0000000000001240 T _ucal_getAttribute_57
00000000000013e0 T _ucal_getAvailable_57
00000000000019f0 T _ucal_getCanonicalTimeZoneID_57
0000000000000410 T _ucal_getDSTSavings_57
0000000000001cc0 T _ucal_getDayOfWeekType_57
00000000000000a0 T _ucal_getDefaultTimeZone_57
0000000000001de0 T _ucal_getFieldDifference_57
00000000000010f0 T _ucal_getGregorianChange_57
0000000000001e50 T _ucal_getKeywordValuesForLocale_57
00000000000017f0 T _ucal_getLimit_57
0000000000001960 T _ucal_getLocaleByType_57
0000000000001410 T _ucal_getMillis_57
00000000000005c0 T _ucal_getNow_57
00000000000019d0 T _ucal_getTZDataVersion_57
0000000000000b30 T _ucal_getTimeZoneDisplayName_57
00000000000026c0 T _ucal_getTimeZoneIDForWindowsID_57
0000000000000a20 T _ucal_getTimeZoneID_57
0000000000002210 T _ucal_getTimeZoneTransitionDate_57
0000000000001c60 T _ucal_getType_57
0000000000001d20 T _ucal_getWeekendTransition_57
0000000000002470 T _ucal_getWindowsTimeZoneID_57
00000000000016e0 T _ucal_get_57
0000000000000f60 T _ucal_inDaylightTime_57
0000000000001770 T _ucal_isSet_57
0000000000001d80 T _ucal_isWeekend_57
0000000000000070 T _ucal_openCountryTimeZones_57
0000000000000000 T _ucal_openTimeZoneIDEnumeration_57
0000000000000040 T _ucal_openTimeZones_57
00000000000005d0 T _ucal_open_57
0000000000001680 T _ucal_roll_57
0000000000001310 T _ucal_setAttribute_57
0000000000001560 T _ucal_setDateTime_57
0000000000001510 T _ucal_setDate_57
0000000000000270 T _ucal_setDefaultTimeZone_57
0000000000000fb0 T _ucal_setGregorianChange_57
0000000000001490 T _ucal_setMillis_57
0000000000000990 T _ucal_setTimeZone_57
0000000000001740 T _ucal_set_57
                 U _uenum_openFromStringEnumeration_57
                 U _uenum_unextDefault_57
                 U _ulist_addItemEndList_57
                 U _ulist_close_keyword_values_iterator_57
                 U _ulist_containsString_57
                 U _ulist_count_keyword_values_57
                 U _ulist_createEmptyList_57
                 U _ulist_deleteList_57
                 U _ulist_next_keyword_value_57
                 U _ulist_resetList_57
                 U _ulist_reset_keyword_values_iterator_57
                 U _uloc_countAvailable_57
                 U _uloc_getAvailable_57
                 U _uloc_getDefault_57
                 U _uloc_setKeywordValue_57
                 U _ulocimp_getRegionForSupplementalData_57
                 U _uprv_malloc_57
                 U _ures_close_57
                 U _ures_getByKey_57
                 U _ures_getSize_57
                 U _ures_getStringByIndex_57
                 U _ures_openDirect_57

libicui18n.a(calendar.ao):
000000000000bbc4 s GCC_except_table108
000000000000bbf0 s GCC_except_table165
000000000000bc38 s GCC_except_table166
000000000000bc98 s GCC_except_table167
000000000000bd08 s GCC_except_table170
000000000000bd44 s GCC_except_table174
000000000000bd80 s GCC_except_table180
000000000000bdc8 s GCC_except_table188
000000000000b940 s GCC_except_table20
000000000000bdf4 s GCC_except_table204
000000000000be14 s GCC_except_table216
000000000000be40 s GCC_except_table221
000000000000b960 s GCC_except_table23
000000000000be60 s GCC_except_table231
000000000000b9ec s GCC_except_table24
000000000000ba0c s GCC_except_table25
000000000000ba2c s GCC_except_table29
000000000000b8a4 s GCC_except_table3
000000000000ba4c s GCC_except_table35
000000000000b8d0 s GCC_except_table4
000000000000ba78 s GCC_except_table40
000000000000bb6c s GCC_except_table47
000000000000bb98 s GCC_except_table65
                 U __Unwind_Resume
0000000000001c90 t __ZL14uprv_arrayCopyPKaPai
0000000000001c50 t __ZL14uprv_arrayCopyPKiPii
000000000000a450 t __ZL16calendar_cleanupv
0000000000011598 b __ZL16gServiceInitOnce
0000000000011590 b __ZL8gService
00000000000008d0 t __ZL9U_FAILURE10UErrorCode
0000000000002f60 t __ZL9U_SUCCESS10UErrorCode
000000000000c2f0 s __ZL9gCalTypes
                 U __ZN6icu_5710ICUService10unregisterEPKvR10UErrorCode
                 U __ZN6icu_5710ICUService11clearCachesEv
                 U __ZN6icu_5710ICUService15registerFactoryEPNS_17ICUServiceFactoryER10UErrorCode
                 U __ZN6icu_5710ICUService19createSimpleFactoryEPNS_7UObjectERKNS_13UnicodeStringEaR10UErrorCode
                 U __ZN6icu_5710ICUService21reInitializeFactoriesEv
                 U __ZN6icu_5710ICUService5resetEv
                 U __ZN6icu_5711ICUNotifier11addListenerEPKNS_13EventListenerER10UErrorCode
                 U __ZN6icu_5711ICUNotifier13notifyChangedEv
                 U __ZN6icu_5711ICUNotifier14removeListenerEPKNS_13EventListenerER10UErrorCode
                 U __ZN6icu_5711LocaleBased12setLocaleIDsEPKcS2_
0000000000009560 T __ZN6icu_5711LocaleBasedC1EPKcS2_
00000000000094d0 T __ZN6icu_5711LocaleBasedC1EPcS1_
000000000000a840 T __ZN6icu_5711LocaleBasedC2EPKcS2_
000000000000a810 T __ZN6icu_5711LocaleBasedC2EPcS1_
000000000000aae0 T __ZN6icu_5711ReplaceableC2Ev
000000000000b810 T __ZN6icu_5712CacheKeyBaseC2ERKS0_
000000000000b590 T __ZN6icu_5712CacheKeyBaseC2Ev
                 U __ZN6icu_5712CacheKeyBaseD2Ev
                 U __ZN6icu_5712CalendarData8getByKeyEPKcR10UErrorCode
                 U __ZN6icu_5712CalendarDataC1ERKNS_6LocaleEPKcR10UErrorCode
                 U __ZN6icu_5712CalendarDataD1Ev
0000000000003040 T __ZN6icu_5712LocalPointerINS_8TimeZoneEEC1EPS1_
000000000000aff0 T __ZN6icu_5712LocalPointerINS_8TimeZoneEEC2EPS1_
00000000000033a0 T __ZN6icu_5712LocalPointerINS_8TimeZoneEED1Ev
000000000000b040 T __ZN6icu_5712LocalPointerINS_8TimeZoneEED2Ev
000000000000b210 T __ZN6icu_5712SharedObject7copyPtrINS_14SharedCalendarEEEvPKT_RS5_
000000000000b280 T __ZN6icu_5712SharedObject8clearPtrINS_14SharedCalendarEEEvRPKT_
000000000000a080 T __ZN6icu_5712SharedObjectC2Ev
                 U __ZN6icu_5712SharedObjectD2Ev
0000000000003070 T __ZN6icu_5712UnifiedCache11getByLocaleINS_14SharedCalendarEEEvRKNS_6LocaleERPKT_R10UErrorCode
                 U __ZN6icu_5712UnifiedCache11getInstanceER10UErrorCode
                 U __ZN6icu_5713DangiCalendarC1ERKNS_6LocaleER10UErrorCode
                 U __ZN6icu_5713LocaleUtility18initLocaleFromNameERKNS_13UnicodeStringERNS_6LocaleE
000000000000aea0 T __ZN6icu_5713UnicodeString6appendERKS0_
000000000000afc0 T __ZN6icu_5713UnicodeString6appendEt
                 U __ZN6icu_5713UnicodeString8doAppendEPKtii
                 U __ZN6icu_5713UnicodeString8doAppendERKS0_ii
                 U __ZN6icu_5713UnicodeStringC1EPKciNS0_10EInvariantE
                 U __ZN6icu_5713UnicodeStringC1ERKS0_
                 U __ZN6icu_5713UnicodeStringC1EaPKti
                 U __ZN6icu_5713UnicodeStringC1Et
000000000000a870 T __ZN6icu_5713UnicodeStringC1Ev
000000000000aaa0 T __ZN6icu_5713UnicodeStringC2Ev
                 U __ZN6icu_5713UnicodeStringD1Ev
000000000000a170 T __ZN6icu_5713umtx_initOnceERNS_9UInitOnceEPFvR10UErrorCodeES3_
                 U __ZN6icu_5714CopticCalendarC1ERKNS_6LocaleER10UErrorCode
                 U __ZN6icu_5714HebrewCalendarC1ERKNS_6LocaleER10UErrorCode
                 U __ZN6icu_5714IndianCalendarC1ERKNS_6LocaleER10UErrorCode
000000000000b0f0 T __ZN6icu_5714LocaleCacheKeyINS_14SharedCalendarEEC1ERKNS_6LocaleE
000000000000b720 T __ZN6icu_5714LocaleCacheKeyINS_14SharedCalendarEEC1ERKS2_
000000000000b2c0 T __ZN6icu_5714LocaleCacheKeyINS_14SharedCalendarEEC2ERKNS_6LocaleE
000000000000b750 T __ZN6icu_5714LocaleCacheKeyINS_14SharedCalendarEEC2ERKS2_
000000000000b390 T __ZN6icu_5714LocaleCacheKeyINS_14SharedCalendarEED0Ev
000000000000b120 T __ZN6icu_5714LocaleCacheKeyINS_14SharedCalendarEED1Ev
000000000000b860 T __ZN6icu_5714LocaleCacheKeyINS_14SharedCalendarEED2Ev
00000000000008f0 T __ZN6icu_5714SharedCalendarC1EPNS_8CalendarE
000000000000a040 T __ZN6icu_5714SharedCalendarC2EPNS_8CalendarE
0000000000000080 T __ZN6icu_5714SharedCalendarD0Ev
0000000000000060 T __ZN6icu_5714SharedCalendarD1Ev
0000000000000000 T __ZN6icu_5714SharedCalendarD2Ev
                 U __ZN6icu_5714TaiwanCalendarC1ERKNS_6LocaleER10UErrorCode
000000000000a4b0 T __ZN6icu_5715CalendarServiceC1Ev
000000000000a590 T __ZN6icu_5715CalendarServiceC2Ev
0000000000000a60 T __ZN6icu_5715CalendarServiceD0Ev
0000000000000a40 T __ZN6icu_5715CalendarServiceD1Ev
0000000000000a20 T __ZN6icu_5715CalendarServiceD2Ev
                 U __ZN6icu_5715ChineseCalendarC1ERKNS_6LocaleER10UErrorCode
                 U __ZN6icu_5715IslamicCalendarC1ERKNS_6LocaleER10UErrorCodeNS0_16ECalculationTypeE
                 U __ZN6icu_5715PersianCalendarC1ERKNS_6LocaleER10UErrorCode
                 U __ZN6icu_5716BuddhistCalendarC1ERKNS_6LocaleER10UErrorCode
                 U __ZN6icu_5716EthiopicCalendarC1ERKNS_6LocaleER10UErrorCodeNS0_8EEraTypeE
                 U __ZN6icu_5716ICULocaleService16registerInstanceEPNS_7UObjectERKNS_13UnicodeStringEaR10UErrorCode
                 U __ZN6icu_5716ICULocaleService16registerInstanceEPNS_7UObjectERKNS_6LocaleER10UErrorCode
                 U __ZN6icu_5716ICULocaleService16registerInstanceEPNS_7UObjectERKNS_6LocaleEiR10UErrorCode
                 U __ZN6icu_5716ICULocaleService16registerInstanceEPNS_7UObjectERKNS_6LocaleEiiR10UErrorCode
                 U __ZN6icu_5716ICULocaleServiceC2ERKNS_13UnicodeStringE
                 U __ZN6icu_5716ICULocaleServiceD2Ev
                 U __ZN6icu_5716JapaneseCalendarC1ERKNS_6LocaleER10UErrorCode
0000000000003230 T __ZN6icu_5716LocalPointerBaseINS_8TimeZoneEE6orphanEv
000000000000b020 T __ZN6icu_5716LocalPointerBaseINS_8TimeZoneEEC2EPS1_
000000000000b090 T __ZN6icu_5716LocalPointerBaseINS_8TimeZoneEED2Ev
                 U __ZN6icu_5716LocaleKeyFactoryC2Ei
                 U __ZN6icu_5716LocaleKeyFactoryD2Ev
000000000000a3d0 T __ZN6icu_5716umtx_loadAcquireERNSt3__16atomicIiEE
                 U __ZN6icu_5717GregorianCalendarC1ERKNS_6LocaleER10UErrorCode
                 U __ZN6icu_5718TimeZoneTransitionC1Ev
                 U __ZN6icu_5718TimeZoneTransitionD1Ev
                 U __ZN6icu_5718UStringEnumerationC1EP12UEnumeration
000000000000a4d0 T __ZN6icu_5720BasicCalendarFactoryC1Ev
000000000000a7a0 T __ZN6icu_5720BasicCalendarFactoryC2Ev
0000000000000980 T __ZN6icu_5720BasicCalendarFactoryD0Ev
0000000000000960 T __ZN6icu_5720BasicCalendarFactoryD1Ev
0000000000000940 T __ZN6icu_5720BasicCalendarFactoryD2Ev
                 U __ZN6icu_5720umtx_initImplPreInitERNS_9UInitOnceE
                 U __ZN6icu_5721umtx_initImplPostInitERNS_9UInitOnceE
000000000000a740 T __ZN6icu_5722DefaultCalendarFactoryC1Ev
000000000000a760 T __ZN6icu_5722DefaultCalendarFactoryC2Ev
00000000000009f0 T __ZN6icu_5722DefaultCalendarFactoryD0Ev
00000000000009d0 T __ZN6icu_5722DefaultCalendarFactoryD1Ev
00000000000009b0 T __ZN6icu_5722DefaultCalendarFactoryD2Ev
                 U __ZN6icu_5724ICUResourceBundleFactoryC2Ev
                 U __ZN6icu_5724ICUResourceBundleFactoryD2Ev
                 U __ZN6icu_575Grego11dayToFieldsEdRiS1_S1_S1_S1_
0000000000007dc0 T __ZN6icu_575Grego17julianDayToMillisEi
                 U __ZN6icu_576Locale10getDefaultEv
                 U __ZN6icu_576Locale14createFromNameEPKc
                 U __ZN6icu_576Locale19getAvailableLocalesERi
                 U __ZN6icu_576LocaleC1EPKcS2_S2_S2_
                 U __ZN6icu_576LocaleC1ERKS0_
                 U __ZN6icu_576LocaleC1Ev
                 U __ZN6icu_576LocaleD1Ev
                 U __ZN6icu_576LocaleaSERKS0_
                 U __ZN6icu_577UMemorydlEPv
                 U __ZN6icu_577UMemorynwEm
0000000000001a00 T __ZN6icu_577UObjectC2ERKS0_
0000000000000ca0 T __ZN6icu_577UObjectC2Ev
                 U __ZN6icu_577UObjectD2Ev
000000000000b7d0 T __ZN6icu_578CacheKeyINS_14SharedCalendarEEC2ERKS2_
000000000000b330 T __ZN6icu_578CacheKeyINS_14SharedCalendarEEC2Ev
000000000000b5f0 T __ZN6icu_578CacheKeyINS_14SharedCalendarEED0Ev
000000000000b5e0 T __ZN6icu_578CacheKeyINS_14SharedCalendarEED1Ev
000000000000b370 T __ZN6icu_578CacheKeyINS_14SharedCalendarEED2Ev
0000000000006340 T __ZN6icu_578Calendar10setLenientEa
0000000000000b10 T __ZN6icu_578Calendar10unregisterEPKvR10UErrorCode
0000000000003a80 T __ZN6icu_578Calendar10updateTimeER10UErrorCode
0000000000004d80 T __ZN6icu_578Calendar10weekNumberEii
0000000000004db0 T __ZN6icu_578Calendar10weekNumberEiii
0000000000007a10 T __ZN6icu_578Calendar11computeTimeER10UErrorCode
0000000000008930 T __ZN6icu_578Calendar11getLocalDOWEv
0000000000004940 T __ZN6icu_578Calendar11internalSetE19UCalendarDateFieldsi
00000000000095f0 T __ZN6icu_578Calendar11internalSetENS0_11EDateFieldsEi
00000000000033c0 T __ZN6icu_578Calendar11setTimeZoneERKNS_8TimeZoneE
0000000000000d30 T __ZN6icu_578Calendar11setWeekDataERKNS_6LocaleEPKcR10UErrorCode
00000000000001f0 T __ZN6icu_578Calendar12makeInstanceERKNS_6LocaleER10UErrorCode
00000000000031c0 T __ZN6icu_578Calendar13adoptTimeZoneEPNS_8TimeZoneE
00000000000046a0 T __ZN6icu_578Calendar13computeFieldsER10UErrorCode
00000000000077f0 T __ZN6icu_578Calendar13resolveFieldsEPA12_A8_Ki
0000000000007530 T __ZN6icu_578Calendar13validateFieldE19UCalendarDateFieldsR10UErrorCode
0000000000007730 T __ZN6icu_578Calendar13validateFieldE19UCalendarDateFieldsiiR10UErrorCode
0000000000001d00 T __ZN6icu_578Calendar14createInstanceEPNS_8TimeZoneERKNS_6LocaleER10UErrorCode
0000000000001cd0 T __ZN6icu_578Calendar14createInstanceER10UErrorCode
0000000000001f20 T __ZN6icu_578Calendar14createInstanceERKNS_6LocaleER10UErrorCode
0000000000001e80 T __ZN6icu_578Calendar14createInstanceERKNS_8TimeZoneER10UErrorCode
0000000000001ec0 T __ZN6icu_578Calendar14createInstanceERKNS_8TimeZoneERKNS_6LocaleER10UErrorCode
000000000000ca90 S __ZN6icu_578Calendar14kDOWPrecedenceE
00000000000069e0 T __ZN6icu_578Calendar14orphanTimeZoneEv
0000000000004270 T __ZN6icu_578Calendar14setRelatedYearEi
0000000000007490 T __ZN6icu_578Calendar14validateFieldsER10UErrorCode
0000000000006500 T __ZN6icu_578Calendar15fieldDifferenceEd19UCalendarDateFieldsR10UErrorCode
00000000000064b0 T __ZN6icu_578Calendar15fieldDifferenceEdNS0_11EDateFieldsER10UErrorCode
0000000000008170 T __ZN6icu_578Calendar15internalSetTimeEd
000000000000c610 S __ZN6icu_578Calendar15kDatePrecedenceE
000000000000cd90 S __ZN6icu_578Calendar15kYearPrecedenceE
0000000000000a90 T __ZN6icu_578Calendar15registerFactoryEPNS_17ICUServiceFactoryER10UErrorCode
0000000000003250 T __ZN6icu_578Calendar15setTimeInMillisEdR10UErrorCode
0000000000007ce0 T __ZN6icu_578Calendar16computeJulianDayEv
0000000000009280 T __ZN6icu_578Calendar16prepareGetActualE19UCalendarDateFieldsaR10UErrorCode
0000000000003d00 T __ZN6icu_578Calendar16recalculateStampEv
0000000000004a30 T __ZN6icu_578Calendar17computeWeekFieldsER10UErrorCode
0000000000007f30 T __ZN6icu_578Calendar17computeZoneOffsetEdiR10UErrorCode
0000000000002f80 T __ZN6icu_578Calendar17setFirstDayOfWeekE19UCalendarDaysOfWeek
0000000000007df0 T __ZN6icu_578Calendar18computeMillisInDayEv
0000000000003950 T __ZN6icu_578Calendar19getAvailableLocalesERi
0000000000004e50 T __ZN6icu_578Calendar19handleComputeFieldsEiR10UErrorCode
0000000000008a10 T __ZN6icu_578Calendar20getDefaultDayInMonthEii
0000000000004c50 T __ZN6icu_578Calendar20julianDayToDayOfWeekEd
0000000000008a00 T __ZN6icu_578Calendar21getDefaultMonthInYearEi
0000000000004cd0 T __ZN6icu_578Calendar22computeGregorianFieldsEiR10UErrorCode
0000000000008370 T __ZN6icu_578Calendar22handleComputeJulianDayE19UCalendarDateFields
0000000000006ab0 T __ZN6icu_578Calendar24setSkippedWallTimeOptionE23UCalendarWallTimeOption
0000000000003400 T __ZN6icu_578Calendar25getCalendarTypeFromLocaleERKNS_6LocaleEPciR10UErrorCode
0000000000003970 T __ZN6icu_578Calendar25getKeywordValuesForLocaleEPKcRKNS_6LocaleEaR10UErrorCode
0000000000002fd0 T __ZN6icu_578Calendar25setMinimalDaysInFirstWeekEh
0000000000006a50 T __ZN6icu_578Calendar25setRepeatedWallTimeOptionE23UCalendarWallTimeOption
0000000000004980 T __ZN6icu_578Calendar28computeGregorianAndDOWFieldsEiR10UErrorCode
0000000000008a30 T __ZN6icu_578Calendar35handleGetExtendedYearFromWeekFieldsEii
0000000000005d80 T __ZN6icu_578Calendar3addE19UCalendarDateFieldsiR10UErrorCode
0000000000005d50 T __ZN6icu_578Calendar3addENS0_11EDateFieldsEiR10UErrorCode
0000000000003c50 T __ZN6icu_578Calendar3setE19UCalendarDateFieldsi
0000000000003e10 T __ZN6icu_578Calendar3setEiii
0000000000003e70 T __ZN6icu_578Calendar3setEiiiii
0000000000003ef0 T __ZN6icu_578Calendar3setEiiiiii
0000000000004ff0 T __ZN6icu_578Calendar4rollE19UCalendarDateFieldsiR10UErrorCode
0000000000004fa0 T __ZN6icu_578Calendar4rollENS0_11EDateFieldsEiR10UErrorCode
0000000000004480 T __ZN6icu_578Calendar5clearE19UCalendarDateFields
0000000000000cc0 T __ZN6icu_578Calendar5clearEv
0000000000003390 T __ZN6icu_578Calendar6getNowEv
0000000000006e60 T __ZN6icu_578Calendar7setTimeEdR10UErrorCode
0000000000003bb0 T __ZN6icu_578Calendar8completeER10UErrorCode
00000000000045d0 T __ZN6icu_578Calendar8pinFieldE19UCalendarDateFieldsR10UErrorCode
0000000000001680 T __ZN6icu_578CalendarC2EPNS_8TimeZoneERKNS_6LocaleER10UErrorCode
0000000000000b60 T __ZN6icu_578CalendarC2ER10UErrorCode
00000000000017b0 T __ZN6icu_578CalendarC2ERKNS_8TimeZoneERKNS_6LocaleER10UErrorCode
0000000000001970 T __ZN6icu_578CalendarC2ERKS0_
0000000000001960 T __ZN6icu_578CalendarD0Ev
0000000000001950 T __ZN6icu_578CalendarD1Ev
00000000000018f0 T __ZN6icu_578CalendarD2Ev
0000000000001a20 T __ZN6icu_578CalendaraSERKS0_
                 U __ZN6icu_578TimeZone13createDefaultEv
0000000000004910 T __ZN6icu_579ClockMath11floorDivideEdd
000000000000aef0 T __ZN6icu_579Hashtable3putERKNS_13UnicodeStringEPvR10UErrorCode
000000000000a4f0 T __ZN6icu_579UInitOnce5resetEv
000000000000a7e0 T __ZN6icu_579UInitOnce7isResetEv
000000000000d090 s __ZN6icu_57L11gMonthNamesE
0000000000004120 t __ZN6icu_57L15getCalendarTypeEPKc
000000000000c4a0 s __ZN6icu_57L15kCalendarLimitsE
000000000000a890 t __ZN6icu_57L18getCalendarKeywordERKNS_13UnicodeStringEPci
0000000000000ad0 t __ZN6icu_57L18getCalendarServiceER10UErrorCode
000000000000a210 t __ZN6icu_57L19initCalendarServiceER10UErrorCode
0000000000001f50 t __ZN6icu_57L21isCalendarServiceUsedEv
0000000000001f80 t __ZN6icu_57L22createStandardCalendarE8ECalTypeRKNS_6LocaleER10UErrorCode
0000000000002c10 t __ZN6icu_57L24getCalendarTypeForLocaleEPKc
00000000000041a0 t __ZN6icu_57L25gregoYearFromIslamicStartEi
000000000000aa50 t __ZN6icu_57L26isStandardSupportedKeywordEPKcR10UErrorCode
00000000000043b0 t __ZN6icu_57L30firstIslamicStartYearFromGregoEi
                 U __ZNK6icu_5710ICUService14countFactoriesEv
                 U __ZNK6icu_5710ICUService14notifyListenerERNS_13EventListenerE
                 U __ZNK6icu_5710ICUService15acceptsListenerERKNS_13EventListenerE
                 U __ZNK6icu_5710ICUService6getKeyERNS_13ICUServiceKeyEPNS_13UnicodeStringER10UErrorCode
                 U __ZNK6icu_5711LocaleBased11getLocaleIDE18ULocDataLocaleTypeR10UErrorCode
                 U __ZNK6icu_5711LocaleBased9getLocaleE18ULocDataLocaleTypeR10UErrorCode
                 U __ZNK6icu_5712SharedObject6addRefEa
0000000000000920 T __ZNK6icu_5712SharedObject6addRefEv
                 U __ZNK6icu_5712SharedObject9removeRefEa
00000000000031a0 T __ZNK6icu_5712SharedObject9removeRefEv
000000000000b140 T __ZNK6icu_5712UnifiedCache3getINS_14SharedCalendarEEEvRKNS_8CacheKeyIT_EEPKvRPKS4_R10UErrorCode
000000000000b0a0 T __ZNK6icu_5712UnifiedCache3getINS_14SharedCalendarEEEvRKNS_8CacheKeyIT_EERPKS4_R10UErrorCode
                 U __ZNK6icu_5712UnifiedCache4_getERKNS_12CacheKeyBaseERPKNS_12SharedObjectEPKvR10UErrorCode
000000000000adf0 T __ZNK6icu_5713UnicodeString10pinIndicesERiS1_
000000000000ace0 T __ZNK6icu_5713UnicodeString13getArrayStartEv
000000000000abf0 T __ZNK6icu_5713UnicodeString14compareBetweenEiiRKS0_ii
000000000000ac60 T __ZNK6icu_5713UnicodeString14getShortLengthEv
000000000000ac40 T __ZNK6icu_5713UnicodeString14hasShortLengthEv
000000000000ab20 T __ZNK6icu_5713UnicodeString6lengthEv
                 U __ZNK6icu_5713UnicodeString7extractEiiPciNS0_10EInvariantE
000000000000ab70 T __ZNK6icu_5713UnicodeString7indexOfEt
000000000000add0 T __ZNK6icu_5713UnicodeString7isBogusEv
000000000000ac80 T __ZNK6icu_5713UnicodeString8doCharAtEi
                 U __ZNK6icu_5713UnicodeString9doCompareEiiPKtii
000000000000ad30 T __ZNK6icu_5713UnicodeString9doCompareEiiRKS0_ii
                 U __ZNK6icu_5713UnicodeString9doIndexOfEtii
000000000000abc0 T __ZNK6icu_5713UnicodeStringixEi
00000000000000b0 T __ZNK6icu_5714LocaleCacheKeyINS_14SharedCalendarEE12createObjectEPKvR10UErrorCode
000000000000b530 T __ZNK6icu_5714LocaleCacheKeyINS_14SharedCalendarEE16writeDescriptionEPci
000000000000b400 T __ZNK6icu_5714LocaleCacheKeyINS_14SharedCalendarEE5cloneEv
000000000000b3c0 T __ZNK6icu_5714LocaleCacheKeyINS_14SharedCalendarEE8hashCodeEv
000000000000b4b0 T __ZNK6icu_5714LocaleCacheKeyINS_14SharedCalendarEEeqERKNS_12CacheKeyBaseE
0000000000003180 T __ZNK6icu_5714SharedCalendarptEv
0000000000009de0 T __ZNK6icu_5715CalendarService13cloneInstanceEPNS_7UObjectE
0000000000009e90 T __ZNK6icu_5715CalendarService13handleDefaultERKNS_13ICUServiceKeyEPNS_13UnicodeStringER10UErrorCode
0000000000009db0 T __ZNK6icu_5715CalendarService9isDefaultEv
                 U __ZNK6icu_5716ICULocaleService19getAvailableLocalesEv
                 U __ZNK6icu_5716ICULocaleService3getERKNS_6LocaleEiPS1_R10UErrorCode
                 U __ZNK6icu_5716ICULocaleService9createKeyEPKNS_13UnicodeStringER10UErrorCode
                 U __ZNK6icu_5716ICULocaleService9createKeyEPKNS_13UnicodeStringEiR10UErrorCode
                 U __ZNK6icu_5716LocaleKeyFactory10handlesKeyERKNS_13ICUServiceKeyER10UErrorCode
                 U __ZNK6icu_5716LocaleKeyFactory12handleCreateERKNS_6LocaleEiPKNS_10ICUServiceER10UErrorCode
                 U __ZNK6icu_5716LocaleKeyFactory14getDisplayNameERKNS_13UnicodeStringERKNS_6LocaleERS1_
                 U __ZNK6icu_5716LocaleKeyFactory15getSupportedIDsER10UErrorCode
                 U __ZNK6icu_5716LocaleKeyFactory16updateVisibleIDsERNS_9HashtableER10UErrorCode
                 U __ZNK6icu_5716LocaleKeyFactory17getDynamicClassIDEv
                 U __ZNK6icu_5718TimeZoneTransition7getTimeEv
0000000000009890 T __ZNK6icu_5720BasicCalendarFactory16updateVisibleIDsERNS_9HashtableER10UErrorCode
0000000000009620 T __ZNK6icu_5720BasicCalendarFactory6createERKNS_13ICUServiceKeyEPKNS_10ICUServiceER10UErrorCode
0000000000009a90 T __ZNK6icu_5722DefaultCalendarFactory6createERKNS_13ICUServiceKeyEPKNS_10ICUServiceER10UErrorCode
                 U __ZNK6icu_5724ICUResourceBundleFactory12handleCreateERKNS_6LocaleEiPKNS_10ICUServiceER10UErrorCode
                 U __ZNK6icu_5724ICUResourceBundleFactory15getSupportedIDsER10UErrorCode
                 U __ZNK6icu_5724ICUResourceBundleFactory17getDynamicClassIDEv
0000000000009470 T __ZNK6icu_576Locale10getCountryEv
00000000000094b0 T __ZNK6icu_576Locale11getLanguageEv
                 U __ZNK6icu_576Locale15getKeywordValueEPKcPciR10UErrorCode
0000000000002f40 T __ZNK6icu_576Locale7getNameEv
                 U __ZNK6icu_576Locale8hashCodeEv
0000000000009490 T __ZNK6icu_576Locale9getScriptEv
                 U __ZNK6icu_576LocaleeqERKS0_
                 U __ZNK6icu_577UObject17getDynamicClassIDEv
000000000000b6c0 T __ZNK6icu_578CacheKeyINS_14SharedCalendarEE16writeDescriptionEPci
000000000000b600 T __ZNK6icu_578CacheKeyINS_14SharedCalendarEE8hashCodeEv
000000000000b650 T __ZNK6icu_578CacheKeyINS_14SharedCalendarEEeqERKNS_12CacheKeyBaseE
0000000000007060 T __ZNK6icu_578Calendar10getMaximumE19UCalendarDateFields
0000000000007030 T __ZNK6icu_578Calendar10getMaximumENS0_11EDateFieldsE
0000000000007000 T __ZNK6icu_578Calendar10getMinimumE19UCalendarDateFields
0000000000006fd0 T __ZNK6icu_578Calendar10getMinimumENS0_11EDateFieldsE
00000000000077a0 T __ZNK6icu_578Calendar10newerFieldE19UCalendarDateFieldsS1_
0000000000009590 T __ZNK6icu_578Calendar11getLocaleIDE18ULocDataLocaleTypeR10UErrorCode
00000000000048f0 T __ZNK6icu_578Calendar11getTimeZoneEv
0000000000005d30 T __ZNK6icu_578Calendar11internalGetE19UCalendarDateFields
00000000000088e0 T __ZNK6icu_578Calendar11internalGetE19UCalendarDateFieldsi
0000000000004550 T __ZNK6icu_578Calendar11newestStampE19UCalendarDateFieldsS1_i
0000000000003f90 T __ZNK6icu_578Calendar14getRelatedYearER10UErrorCode
0000000000003600 T __ZNK6icu_578Calendar14isEquivalentToERKS0_
0000000000009080 T __ZNK6icu_578Calendar15getActualHelperE19UCalendarDateFieldsiiR10UErrorCode
0000000000007120 T __ZNK6icu_578Calendar15getLeastMaximumE19UCalendarDateFields
00000000000070f0 T __ZNK6icu_578Calendar15getLeastMaximumENS0_11EDateFieldsE
0000000000003570 T __ZNK6icu_578Calendar15getTimeInMillisER10UErrorCode
00000000000048d0 T __ZNK6icu_578Calendar15internalGetTimeEv
0000000000008d80 T __ZNK6icu_578Calendar16getActualMaximumE19UCalendarDateFieldsR10UErrorCode
0000000000007340 T __ZNK6icu_578Calendar16getActualMinimumE19UCalendarDateFieldsR10UErrorCode
0000000000007150 T __ZNK6icu_578Calendar16getActualMinimumENS0_11EDateFieldsER10UErrorCode
0000000000008190 T __ZNK6icu_578Calendar16getBasicTimeZoneEv
0000000000006b10 T __ZNK6icu_578Calendar16getDayOfWeekTypeE19UCalendarDaysOfWeekR10UErrorCode
0000000000004f80 T __ZNK6icu_578Calendar16getGregorianYearEv
0000000000006af0 T __ZNK6icu_578Calendar17getFirstDayOfWeekER10UErrorCode
0000000000004d40 T __ZNK6icu_578Calendar17getFirstDayOfWeekEv
0000000000004f20 T __ZNK6icu_578Calendar17getGregorianMonthEv
00000000000070c0 T __ZNK6icu_578Calendar18getGreatestMinimumE19UCalendarDateFields
0000000000007090 T __ZNK6icu_578Calendar18getGreatestMinimumENS0_11EDateFieldsE
0000000000008d20 T __ZNK6icu_578Calendar19handleGetYearLengthEi
0000000000006cd0 T __ZNK6icu_578Calendar20getWeekendTransitionE19UCalendarDaysOfWeekR10UErrorCode
0000000000008cc0 T __ZNK6icu_578Calendar20handleGetMonthLengthEii
0000000000004f60 T __ZNK6icu_578Calendar21getGregorianDayOfYearEv
0000000000004f40 T __ZNK6icu_578Calendar22getGregorianDayOfMonthEv
0000000000007780 T __ZNK6icu_578Calendar23getFieldResolutionTableEv
0000000000006ad0 T __ZNK6icu_578Calendar24getSkippedWallTimeOptionEv
0000000000004d60 T __ZNK6icu_578Calendar25getMinimalDaysInFirstWeekEv
0000000000006a90 T __ZNK6icu_578Calendar25getRepeatedWallTimeOptionEv
0000000000006360 T __ZNK6icu_578Calendar34getImmediatePreviousZoneTransitionEdPdR10UErrorCode
0000000000003b30 T __ZNK6icu_578Calendar3getE19UCalendarDateFieldsR10UErrorCode
00000000000038e0 T __ZNK6icu_578Calendar5afterERKS0_R10UErrorCode
0000000000004500 T __ZNK6icu_578Calendar5isSetE19UCalendarDateFields
0000000000003870 T __ZNK6icu_578Calendar6beforeERKS0_R10UErrorCode
00000000000037d0 T __ZNK6icu_578Calendar6equalsERKS0_R10UErrorCode
0000000000003840 T __ZNK6icu_578Calendar7getTimeER10UErrorCode
0000000000007190 T __ZNK6icu_578Calendar8getLimitE19UCalendarDateFieldsNS0_10ELimitTypeE
0000000000009500 T __ZNK6icu_578Calendar9getLocaleE18ULocDataLocaleTypeR10UErrorCode
0000000000003b10 T __ZNK6icu_578Calendar9isLenientEv
0000000000006d80 T __ZNK6icu_578Calendar9isWeekendEdR10UErrorCode
0000000000006e90 T __ZNK6icu_578Calendar9isWeekendEv
00000000000034c0 T __ZNK6icu_578CalendareqERKS0_
                 U __ZTIN6icu_5712CacheKeyBaseE
                 U __ZTIN6icu_5712SharedObjectE
                 U __ZTIN6icu_5713OlsonTimeZoneE
                 U __ZTIN6icu_5713UnicodeStringE
000000000000d220 D __ZTIN6icu_5714LocaleCacheKeyINS_14SharedCalendarEEE
000000000000c100 S __ZTIN6icu_5714SharedCalendarE
                 U __ZTIN6icu_5714SimpleTimeZoneE
000000000000c2d0 S __ZTIN6icu_5715CalendarServiceE
                 U __ZTIN6icu_5716ICULocaleServiceE
                 U __ZTIN6icu_5716LocaleKeyFactoryE
                 U __ZTIN6icu_5717RuleBasedTimeZoneE
000000000000c170 S __ZTIN6icu_5720BasicCalendarFactoryE
000000000000c1e0 S __ZTIN6icu_5722DefaultCalendarFactoryE
                 U __ZTIN6icu_5724ICUResourceBundleFactoryE
                 U __ZTIN6icu_577UObjectE
000000000000d200 D __ZTIN6icu_578CacheKeyINS_14SharedCalendarEEE
000000000000c0e0 S __ZTIN6icu_578CalendarE
                 U __ZTIN6icu_578TimeZoneE
                 U __ZTIN6icu_579VTimeZoneE
000000000000d130 S __ZTSN6icu_5714LocaleCacheKeyINS_14SharedCalendarEEE
000000000000d0a0 S __ZTSN6icu_5714SharedCalendarE
000000000000d110 S __ZTSN6icu_5715CalendarServiceE
000000000000d0c0 S __ZTSN6icu_5720BasicCalendarFactoryE
000000000000d0e0 S __ZTSN6icu_5722DefaultCalendarFactoryE
000000000000d160 S __ZTSN6icu_578CacheKeyINS_14SharedCalendarEEE
000000000000c480 S __ZTSN6icu_578CalendarE
                 U __ZTVN10__cxxabiv120__si_class_type_infoE
                 U __ZTVN6icu_5711ReplaceableE
                 U __ZTVN6icu_5712CacheKeyBaseE
                 U __ZTVN6icu_5712SharedObjectE
                 U __ZTVN6icu_5713UnicodeStringE
000000000000d1b0 D __ZTVN6icu_5714LocaleCacheKeyINS_14SharedCalendarEEE
000000000000bf10 S __ZTVN6icu_5714SharedCalendarE
000000000000c1f8 S __ZTVN6icu_5715CalendarServiceE
000000000000c118 S __ZTVN6icu_5720BasicCalendarFactoryE
000000000000c188 S __ZTVN6icu_5722DefaultCalendarFactoryE
                 U __ZTVN6icu_577UObjectE
000000000000d238 D __ZTVN6icu_578CacheKeyINS_14SharedCalendarEEE
000000000000bf38 S __ZTVN6icu_578CalendarE
                 U ___cxa_bad_typeid
                 U ___cxa_pure_virtual
                 U ___dynamic_cast
                 U ___gxx_personality_v0
                 U ___stack_chk_fail
                 U ___stack_chk_guard
                 U _memcpy
                 U _strcmp
                 U _strcpy
                 U _strlen
                 U _strncpy
                 U _u_UCharsToChars_57
                 U _ucal_getKeywordValuesForLocale_57
                 U _ucln_i18n_registerCleanup_57
                 U _uenum_close_57
                 U _uhash_put_57
                 U _uloc_addLikelySubtags_57
                 U _uloc_canonicalize_57
                 U _uloc_getKeywordValue_57
                 U _uloc_minimizeSubtags_57
                 U _ulocimp_getRegionForSupplementalData_57
                 U _uprv_floor_57
                 U _uprv_fmod_57
                 U _uprv_getUTCtime_57
                 U _uprv_stricmp_57
                 U _ures_close_57
                 U _ures_getByKey_57
                 U _ures_getIntVector_57
                 U _ures_getLocaleByType_57
                 U _ures_getStringByIndex_57
                 U _ures_openDirect_57
                 U _ustr_hashCharsN_57
000000000000d18a s l_.str.11
000000000000d19c s l_.str.27

libicui18n.a(gregocal.ao):
00000000000031a8 s GCC_except_table10
00000000000031d4 s GCC_except_table12
0000000000003200 s GCC_except_table14
000000000000322c s GCC_except_table16
0000000000003258 s GCC_except_table18
00000000000030f8 s GCC_except_table2
0000000000003284 s GCC_except_table25
00000000000032a4 s GCC_except_table28
0000000000003124 s GCC_except_table4
0000000000003150 s GCC_except_table6
00000000000032d0 s GCC_except_table78
000000000000317c s GCC_except_table8
                 U __Unwind_Resume
0000000000003540 s __ZL12kLeapNumDays
0000000000003584 s __ZL12kMonthLength
0000000000003578 s __ZL16kLeapMonthLength
0000000000003590 s __ZL24kGregorianCalendarLimits
0000000000003560 s __ZL8kNumDays
00000000000010a0 t __ZL9U_FAILURE10UErrorCode
0000000000002da0 t __ZL9U_SUCCESS10UErrorCode
0000000000002e80 T __ZN6icu_5713umtx_initOnceERNS_9UInitOnceEPFvvE
0000000000003080 T __ZN6icu_5716umtx_loadAcquireERNSt3__16atomicIiEE
0000000000001e10 T __ZN6icu_5717GregorianCalendar11getEpochDayER10UErrorCode
0000000000001b10 T __ZN6icu_5717GregorianCalendar13pinDayOfMonthEv
0000000000002050 T __ZN6icu_5717GregorianCalendar14aggregateStampEii
0000000000000000 T __ZN6icu_5717GregorianCalendar16getStaticClassIDEv
0000000000002020 T __ZN6icu_5717GregorianCalendar17julianDayToMillisEd
0000000000001fe0 T __ZN6icu_5717GregorianCalendar17millisToJulianDayEd
0000000000000e60 T __ZN6icu_5717GregorianCalendar18setGregorianChangeEdR10UErrorCode
0000000000001120 T __ZN6icu_5717GregorianCalendar19handleComputeFieldsEiR10UErrorCode
0000000000002ab0 T __ZN6icu_5717GregorianCalendar21handleGetExtendedYearEv
0000000000001ed0 T __ZN6icu_5717GregorianCalendar22computeJulianDayOfYearEaiRa
0000000000001580 T __ZN6icu_5717GregorianCalendar22handleComputeJulianDayE19UCalendarDateFields
0000000000002c80 T __ZN6icu_5717GregorianCalendar35handleGetExtendedYearFromWeekFieldsEii
00000000000020f0 T __ZN6icu_5717GregorianCalendar4rollE19UCalendarDateFieldsiR10UErrorCode
00000000000020a0 T __ZN6icu_5717GregorianCalendar4rollENS_8Calendar11EDateFieldsEiR10UErrorCode
0000000000000210 T __ZN6icu_5717GregorianCalendarC1EPNS_8TimeZoneER10UErrorCode
0000000000000540 T __ZN6icu_5717GregorianCalendarC1EPNS_8TimeZoneERKNS_6LocaleER10UErrorCode
0000000000000100 T __ZN6icu_5717GregorianCalendarC1ER10UErrorCode
0000000000000430 T __ZN6icu_5717GregorianCalendarC1ERKNS_6LocaleER10UErrorCode
0000000000000320 T __ZN6icu_5717GregorianCalendarC1ERKNS_8TimeZoneER10UErrorCode
0000000000000660 T __ZN6icu_5717GregorianCalendarC1ERKNS_8TimeZoneERKNS_6LocaleER10UErrorCode
0000000000000c80 T __ZN6icu_5717GregorianCalendarC1ERKS0_
00000000000007b0 T __ZN6icu_5717GregorianCalendarC1EiiiR10UErrorCode
0000000000000940 T __ZN6icu_5717GregorianCalendarC1EiiiiiR10UErrorCode
0000000000000b00 T __ZN6icu_5717GregorianCalendarC1EiiiiiiR10UErrorCode
0000000000000130 T __ZN6icu_5717GregorianCalendarC2EPNS_8TimeZoneER10UErrorCode
0000000000000460 T __ZN6icu_5717GregorianCalendarC2EPNS_8TimeZoneERKNS_6LocaleER10UErrorCode
0000000000000030 T __ZN6icu_5717GregorianCalendarC2ER10UErrorCode
0000000000000350 T __ZN6icu_5717GregorianCalendarC2ERKNS_6LocaleER10UErrorCode
0000000000000240 T __ZN6icu_5717GregorianCalendarC2ERKNS_8TimeZoneER10UErrorCode
0000000000000580 T __ZN6icu_5717GregorianCalendarC2ERKNS_8TimeZoneERKNS_6LocaleER10UErrorCode
0000000000000bd0 T __ZN6icu_5717GregorianCalendarC2ERKS0_
00000000000006a0 T __ZN6icu_5717GregorianCalendarC2EiiiR10UErrorCode
00000000000007f0 T __ZN6icu_5717GregorianCalendarC2EiiiiiR10UErrorCode
0000000000000990 T __ZN6icu_5717GregorianCalendarC2EiiiiiiR10UErrorCode
0000000000000ba0 T __ZN6icu_5717GregorianCalendarD0Ev
0000000000000b80 T __ZN6icu_5717GregorianCalendarD1Ev
0000000000000b60 T __ZN6icu_5717GregorianCalendarD2Ev
0000000000000d60 T __ZN6icu_5717GregorianCalendaraSERKS0_
                 U __ZN6icu_5720umtx_initImplPreInitERNS_9UInitOnceE
                 U __ZN6icu_5721umtx_initImplPostInitERNS_9UInitOnceE
0000000000001430 T __ZN6icu_575Grego14gregorianShiftEi
                 U __ZN6icu_576Locale10getDefaultEv
                 U __ZN6icu_577UMemorydlEPv
                 U __ZN6icu_577UMemorynwEm
                 U __ZN6icu_578Calendar10setLenientEa
00000000000027d0 T __ZN6icu_578Calendar10weekNumberEii
                 U __ZN6icu_578Calendar10weekNumberEiii
                 U __ZN6icu_578Calendar11computeTimeER10UErrorCode
0000000000001480 T __ZN6icu_578Calendar11internalSetE19UCalendarDateFieldsi
                 U __ZN6icu_578Calendar13computeFieldsER10UErrorCode
                 U __ZN6icu_578Calendar13validateFieldE19UCalendarDateFieldsR10UErrorCode
                 U __ZN6icu_578Calendar14setRelatedYearEi
                 U __ZN6icu_578Calendar15fieldDifferenceEd19UCalendarDateFieldsR10UErrorCode
                 U __ZN6icu_578Calendar15fieldDifferenceEdNS0_11EDateFieldsER10UErrorCode
                 U __ZN6icu_578Calendar15setTimeInMillisEdR10UErrorCode
                 U __ZN6icu_578Calendar16prepareGetActualE19UCalendarDateFieldsaR10UErrorCode
                 U __ZN6icu_578Calendar20getDefaultDayInMonthEii
                 U __ZN6icu_578Calendar21getDefaultMonthInYearEi
                 U __ZN6icu_578Calendar22handleComputeJulianDayE19UCalendarDateFields
                 U __ZN6icu_578Calendar35handleGetExtendedYearFromWeekFieldsEii
                 U __ZN6icu_578Calendar3addE19UCalendarDateFieldsiR10UErrorCode
                 U __ZN6icu_578Calendar3addENS0_11EDateFieldsEiR10UErrorCode
                 U __ZN6icu_578Calendar3setE19UCalendarDateFieldsi
                 U __ZN6icu_578Calendar4rollE19UCalendarDateFieldsiR10UErrorCode
                 U __ZN6icu_578Calendar6getNowEv
00000000000010f0 T __ZN6icu_578Calendar7setTimeEdR10UErrorCode
                 U __ZN6icu_578Calendar8completeER10UErrorCode
                 U __ZN6icu_578Calendar8pinFieldE19UCalendarDateFieldsR10UErrorCode
                 U __ZN6icu_578CalendarC2EPNS_8TimeZoneERKNS_6LocaleER10UErrorCode
                 U __ZN6icu_578CalendarC2ER10UErrorCode
                 U __ZN6icu_578CalendarC2ERKNS_8TimeZoneERKNS_6LocaleER10UErrorCode
                 U __ZN6icu_578CalendarC2ERKS0_
                 U __ZN6icu_578CalendarD2Ev
                 U __ZN6icu_578CalendaraSERKS0_
                 U __ZN6icu_578TimeZone13createDefaultEv
00000000000010c0 T __ZN6icu_579ClockMath11floorDivideEdd
                 U __ZN6icu_579ClockMath11floorDivideEdiRi
                 U __ZN6icu_579ClockMath11floorDivideEii
0000000000004e9c b __ZN6icu_57L25gSystemDefaultCenturyInitE
0000000000003728 d __ZN6icu_57L26gSystemDefaultCenturyStartE
0000000000003730 d __ZN6icu_57L30gSystemDefaultCenturyStartYearE
0000000000002ed0 t __ZN6icu_57L30initializeSystemDefaultCenturyEv
00000000000014e0 T __ZNK6icu_5717GregorianCalendar10isLeapYearEi
0000000000001a80 T __ZNK6icu_5717GregorianCalendar10yearLengthEi
0000000000001ac0 T __ZNK6icu_5717GregorianCalendar10yearLengthEv
0000000000001d70 T __ZNK6icu_5717GregorianCalendar11boundsCheckEi19UCalendarDateFields
00000000000019c0 T __ZNK6icu_5717GregorianCalendar11monthLengthEi
0000000000001a20 T __ZNK6icu_5717GregorianCalendar11monthLengthEii
00000000000028a0 T __ZNK6icu_5717GregorianCalendar14handleGetLimitE19UCalendarDateFieldsNS_8Calendar10ELimitTypeE
0000000000002ce0 T __ZNK6icu_5717GregorianCalendar14inDaylightTimeER10UErrorCode
0000000000002dc0 T __ZNK6icu_5717GregorianCalendar14internalGetEraEv
0000000000000df0 T __ZNK6icu_5717GregorianCalendar14isEquivalentToERKNS_8CalendarE
0000000000001b90 T __ZNK6icu_5717GregorianCalendar14validateFieldsEv
00000000000028d0 T __ZNK6icu_5717GregorianCalendar16getActualMaximumE19UCalendarDateFieldsR10UErrorCode
0000000000002870 T __ZNK6icu_5717GregorianCalendar16getActualMinimumE19UCalendarDateFieldsR10UErrorCode
0000000000002800 T __ZNK6icu_5717GregorianCalendar16getActualMinimumENS_8Calendar11EDateFieldsE
0000000000002840 T __ZNK6icu_5717GregorianCalendar16getActualMinimumENS_8Calendar11EDateFieldsER10UErrorCode
0000000000000010 T __ZNK6icu_5717GregorianCalendar17getDynamicClassIDEv
00000000000014c0 T __ZNK6icu_5717GregorianCalendar18getGregorianChangeEv
0000000000002e40 T __ZNK6icu_5717GregorianCalendar18haveDefaultCenturyEv
0000000000002e50 T __ZNK6icu_5717GregorianCalendar19defaultCenturyStartEv
0000000000001980 T __ZNK6icu_5717GregorianCalendar19handleGetYearLengthEi
00000000000018f0 T __ZNK6icu_5717GregorianCalendar20handleGetMonthLengthEii
0000000000003050 T __ZNK6icu_5717GregorianCalendar23defaultCenturyStartYearEv
0000000000001720 T __ZNK6icu_5717GregorianCalendar23handleComputeMonthStartEiia
0000000000000cb0 T __ZNK6icu_5717GregorianCalendar5cloneEv
0000000000002e20 T __ZNK6icu_5717GregorianCalendar7getTypeEv
                 U __ZNK6icu_578Calendar10getMaximumE19UCalendarDateFields
                 U __ZNK6icu_578Calendar10getMaximumENS0_11EDateFieldsE
                 U __ZNK6icu_578Calendar10getMinimumE19UCalendarDateFields
                 U __ZNK6icu_578Calendar10getMinimumENS0_11EDateFieldsE
                 U __ZNK6icu_578Calendar11getTimeZoneEv
0000000000001700 T __ZNK6icu_578Calendar11internalGetE19UCalendarDateFields
0000000000002c30 T __ZNK6icu_578Calendar11internalGetE19UCalendarDateFieldsi
                 U __ZNK6icu_578Calendar14getRelatedYearER10UErrorCode
                 U __ZNK6icu_578Calendar14isEquivalentToERKS0_
                 U __ZNK6icu_578Calendar15getLeastMaximumE19UCalendarDateFields
                 U __ZNK6icu_578Calendar15getLeastMaximumENS0_11EDateFieldsE
                 U __ZNK6icu_578Calendar15getTimeInMillisER10UErrorCode
0000000000001eb0 T __ZNK6icu_578Calendar15internalGetTimeEv
                 U __ZNK6icu_578Calendar16getActualMaximumE19UCalendarDateFieldsR10UErrorCode
                 U __ZNK6icu_578Calendar16getDayOfWeekTypeE19UCalendarDaysOfWeekR10UErrorCode
0000000000001410 T __ZNK6icu_578Calendar16getGregorianYearEv
                 U __ZNK6icu_578Calendar17getFirstDayOfWeekEv
00000000000013b0 T __ZNK6icu_578Calendar17getGregorianMonthEv
                 U __ZNK6icu_578Calendar18getGreatestMinimumE19UCalendarDateFields
                 U __ZNK6icu_578Calendar18getGreatestMinimumENS0_11EDateFieldsE
                 U __ZNK6icu_578Calendar20getWeekendTransitionE19UCalendarDaysOfWeekR10UErrorCode
00000000000013f0 T __ZNK6icu_578Calendar21getGregorianDayOfYearEv
00000000000013d0 T __ZNK6icu_578Calendar22getGregorianDayOfMonthEv
                 U __ZNK6icu_578Calendar23getFieldResolutionTableEv
                 U __ZNK6icu_578Calendar25getMinimalDaysInFirstWeekEv
                 U __ZNK6icu_578Calendar3getE19UCalendarDateFieldsR10UErrorCode
                 U __ZNK6icu_578Calendar5isSetE19UCalendarDateFields
0000000000002a80 T __ZNK6icu_578Calendar7getTimeER10UErrorCode
                 U __ZNK6icu_578Calendar8getLimitE19UCalendarDateFieldsNS0_10ELimitTypeE
                 U __ZNK6icu_578Calendar9isWeekendEdR10UErrorCode
                 U __ZNK6icu_578Calendar9isWeekendEv
                 U __ZNK6icu_578CalendareqERKS0_
0000000000003520 S __ZTIN6icu_5717GregorianCalendarE
                 U __ZTIN6icu_578CalendarE
0000000000003700 S __ZTSN6icu_5717GregorianCalendarE
                 U __ZTVN10__cxxabiv120__si_class_type_infoE
0000000000003360 S __ZTVN6icu_5717GregorianCalendarE
0000000000004e98 b __ZZN6icu_5717GregorianCalendar16getStaticClassIDEvE7classID
                 U ___gxx_personality_v0
                 U ___stack_chk_fail
                 U ___stack_chk_guard
                 U _uprv_floor_57
                 U _uprv_fmod_57
                 U _uprv_max_57

libicui18n.a(timezone.ao):
0000000000007274 s GCC_except_table105
00000000000072a0 s GCC_except_table108
00000000000072e8 s GCC_except_table121
0000000000007314 s GCC_except_table122
0000000000006ef0 s GCC_except_table13
0000000000006f10 s GCC_except_table20
0000000000006f4c s GCC_except_table21
0000000000006e5c s GCC_except_table3
0000000000006fa0 s GCC_except_table34
0000000000006fb8 s GCC_except_table41
0000000000007028 s GCC_except_table48
0000000000007070 s GCC_except_table50
000000000000709c s GCC_except_table57
0000000000006eb0 s GCC_except_table6
0000000000007118 s GCC_except_table69
00000000000071fc s GCC_except_table86
0000000000007228 s GCC_except_table89
0000000000006ed0 s GCC_except_table9
0000000000007248 s GCC_except_table97
                 U __Unwind_Resume
0000000000009ac8 b __ZL12DEFAULT_ZONE
0000000000009ab0 b __ZL13_UNKNOWN_ZONE
0000000000009ae0 b __ZL14TZDATA_VERSION
00000000000074d0 s __ZL15UNKNOWN_ZONE_ID
0000000000009b00 b __ZL16LEN_SYSTEM_ZONES
0000000000009b08 b __ZL16MAP_SYSTEM_ZONES
0000000000000fd0 t __ZL16timeZone_cleanupv
0000000000009af8 b __ZL20gDefaultZoneInitOnce
0000000000009af0 b __ZL20gStaticZonesInitOnce
0000000000009b30 b __ZL20gSystemZonesInitOnce
0000000000009b48 b __ZL22gTZDataVersionInitOnce
0000000000009b38 b __ZL23gCanonicalZonesInitOnce
0000000000009b10 b __ZL26LEN_CANONICAL_SYSTEM_ZONES
0000000000009b18 b __ZL26MAP_CANONICAL_SYSTEM_ZONES
0000000000009b40 b __ZL31gCanonicalLocationZonesInitOnce
0000000000009b20 b __ZL35LEN_CANONICAL_SYSTEM_LOCATION_ZONES
0000000000009b28 b __ZL35MAP_CANONICAL_SYSTEM_LOCATION_ZONES
0000000000009ab8 b __ZL4_GMT
000000000000753a s __ZL5WORLD
00000000000074ec s __ZL6GMT_ID
0000000000001360 t __ZL9U_FAILURE10UErrorCode
0000000000001f00 t __ZL9U_SUCCESS10UErrorCode
                 U __ZN6icu_5711Formattable7setLongEi
                 U __ZN6icu_5711FormattableC1Ei
                 U __ZN6icu_5711FormattableD1Ev
00000000000057a0 T __ZN6icu_5711ReplaceableC2Ev
00000000000036f0 T __ZN6icu_5712LocalPointerINS_13TimeZoneNamesEEC1EPS1_
0000000000006db0 T __ZN6icu_5712LocalPointerINS_13TimeZoneNamesEEC2EPS1_
0000000000003770 T __ZN6icu_5712LocalPointerINS_13TimeZoneNamesEED1Ev
0000000000006e00 T __ZN6icu_5712LocalPointerINS_13TimeZoneNamesEED2Ev
0000000000003630 T __ZN6icu_5712LocalPointerINS_14TimeZoneFormatEEC1EPS1_
0000000000006d00 T __ZN6icu_5712LocalPointerINS_14TimeZoneFormatEEC2EPS1_
00000000000036d0 T __ZN6icu_5712LocalPointerINS_14TimeZoneFormatEED1Ev
0000000000006d50 T __ZN6icu_5712LocalPointerINS_14TimeZoneFormatEED2Ev
                 U __ZN6icu_5712NumberFormat14createInstanceER10UErrorCode
0000000000000140 t __ZN6icu_5712_GLOBAL__N_119initStaticTimeZonesEv
00000000000008a0 t __ZN6icu_5712_GLOBAL__N_120createSystemTimeZoneERKNS_13UnicodeStringE
0000000000005800 t __ZN6icu_5712_GLOBAL__N_120createSystemTimeZoneERKNS_13UnicodeStringER10UErrorCode
                 U __ZN6icu_5713OlsonTimeZoneC1EPK15UResourceBundleS3_RKNS_13UnicodeStringER10UErrorCode
0000000000004710 T __ZN6icu_5713ParsePosition8setIndexEi
0000000000004690 T __ZN6icu_5713ParsePositionC1Ei
00000000000068c0 T __ZN6icu_5713ParsePositionC2Ei
                 U __ZN6icu_5713ParsePositionD1Ev
0000000000001500 T __ZN6icu_5713TZEnumeration16getStaticClassIDEv
0000000000006b60 T __ZN6icu_5713TZEnumeration5getIDEi
00000000000056c0 T __ZN6icu_5713TZEnumeration5resetER10UErrorCode
0000000000005620 T __ZN6icu_5713TZEnumeration5snextER10UErrorCode
0000000000001570 T __ZN6icu_5713TZEnumeration6createE19USystemTimeZoneTypePKcPKiR10UErrorCode
0000000000005c20 T __ZN6icu_5713TZEnumeration6getMapE19USystemTimeZoneTypeRiR10UErrorCode
0000000000005e70 T __ZN6icu_5713TZEnumerationC1EPiia
0000000000006990 T __ZN6icu_5713TZEnumerationC1ERKS0_
0000000000006500 T __ZN6icu_5713TZEnumerationC2EPiia
00000000000069c0 T __ZN6icu_5713TZEnumerationC2ERKS0_
00000000000014d0 T __ZN6icu_5713TZEnumerationD0Ev
00000000000014b0 T __ZN6icu_5713TZEnumerationD1Ev
0000000000001420 T __ZN6icu_5713TZEnumerationD2Ev
                 U __ZN6icu_5713TimeZoneNames14createInstanceERKNS_6LocaleER10UErrorCode
                 U __ZN6icu_5713UnicodeString10setToBogusEv
0000000000006880 T __ZN6icu_5713UnicodeString10setToEmptyEv
                 U __ZN6icu_5713UnicodeString12fastCopyFromERKS0_
00000000000068a0 T __ZN6icu_5713UnicodeString13setZeroLengthEv
0000000000005aa0 T __ZN6icu_5713UnicodeString14setShortLengthEi
0000000000004750 T __ZN6icu_5713UnicodeString5setToEPKti
                 U __ZN6icu_5713UnicodeString5setToEaPKti
0000000000000db0 T __ZN6icu_5713UnicodeString6appendEt
0000000000003660 T __ZN6icu_5713UnicodeString6removeEv
                 U __ZN6icu_5713UnicodeString7toUpperERKNS_6LocaleE
                 U __ZN6icu_5713UnicodeString7unBogusEv
                 U __ZN6icu_5713UnicodeString8doAppendEPKtii
                 U __ZN6icu_5713UnicodeString8moveFromERS0_
0000000000000de0 T __ZN6icu_5713UnicodeString8truncateEi
                 U __ZN6icu_5713UnicodeString9doReplaceEiiPKtii
0000000000005a40 T __ZN6icu_5713UnicodeString9setLengthEi
                 U __ZN6icu_5713UnicodeStringC1EPKciNS0_10EInvariantE
                 U __ZN6icu_5713UnicodeStringC1EPKt
                 U __ZN6icu_5713UnicodeStringC1ERKS0_
                 U __ZN6icu_5713UnicodeStringC1EaPKti
00000000000004e0 T __ZN6icu_5713UnicodeStringC1Ev
0000000000005760 T __ZN6icu_5713UnicodeStringC2Ev
                 U __ZN6icu_5713UnicodeStringD1Ev
0000000000005140 T __ZN6icu_5713UnicodeStringaSEOS0_
                 U __ZN6icu_5713UnicodeStringaSERKS0_
00000000000047a0 T __ZN6icu_5713UnicodeStringpLEt
00000000000048b0 T __ZN6icu_5713umtx_initOnceERNS_9UInitOnceEPFvR10UErrorCodeES3_
00000000000000f0 T __ZN6icu_5713umtx_initOnceERNS_9UInitOnceEPFvvE
0000000000005eb0 T __ZN6icu_5713umtx_initOnceI19USystemTimeZoneTypeEEvRNS_9UInitOnceEPFvT_R10UErrorCodeES4_S6_
                 U __ZN6icu_5714SimpleTimeZoneC1EiRKNS_13UnicodeStringE
                 U __ZN6icu_5714TimeZoneFormat14createInstanceERKNS_6LocaleER10UErrorCode
0000000000006de0 T __ZN6icu_5716LocalPointerBaseINS_13TimeZoneNamesEEC2EPS1_
0000000000006e50 T __ZN6icu_5716LocalPointerBaseINS_13TimeZoneNamesEED2Ev
0000000000006d30 T __ZN6icu_5716LocalPointerBaseINS_14TimeZoneFormatEEC2EPS1_
0000000000006da0 T __ZN6icu_5716LocalPointerBaseINS_14TimeZoneFormatEED2Ev
00000000000056e0 T __ZN6icu_5716umtx_loadAcquireERNSt3__16atomicIiEE
                 U __ZN6icu_5717StringEnumeration4nextEPiR10UErrorCode
                 U __ZN6icu_5717StringEnumeration5unextEPiR10UErrorCode
                 U __ZN6icu_5717StringEnumerationC2Ev
                 U __ZN6icu_5717StringEnumerationD2Ev
                 U __ZN6icu_5720umtx_initImplPreInitERNS_9UInitOnceE
                 U __ZN6icu_5721umtx_initImplPostInitERNS_9UInitOnceE
0000000000005d80 T __ZN6icu_5728ures_getUnicodeStringByIndexEPK15UResourceBundleiP10UErrorCode
0000000000005bb0 T __ZN6icu_575Grego10isLeapYearEi
0000000000001380 T __ZN6icu_575Grego11dayToFieldsEdRiS1_S1_S1_
                 U __ZN6icu_575Grego11dayToFieldsEdRiS1_S1_S1_S1_
00000000000013d0 T __ZN6icu_575Grego11monthLengthEii
                 U __ZN6icu_575Grego12MONTH_LENGTHE
                 U __ZN6icu_576Locale10getDefaultEv
                 U __ZN6icu_576LocaleC1EPKcS2_S2_S2_
                 U __ZN6icu_576LocaleD1Ev
                 U __ZN6icu_577UMemorydlEPv
                 U __ZN6icu_577UMemorynwEm
0000000000000660 T __ZN6icu_577UObjectC2ERKS0_
00000000000004c0 T __ZN6icu_577UObjectC2Ev
                 U __ZN6icu_577UObjectD2Ev
                 U __ZN6icu_578Calendar6getNowEv
00000000000000c0 T __ZN6icu_578TimeZone10getUnknownEv
0000000000001150 T __ZN6icu_578TimeZone10setDefaultERKS0_
0000000000004580 T __ZN6icu_578TimeZone11getCustomIDERKNS_13UnicodeStringERS1_R10UErrorCode
0000000000000f60 T __ZN6icu_578TimeZone12adoptDefaultEPS0_
0000000000004b30 T __ZN6icu_578TimeZone12getWindowsIDERKNS_13UnicodeStringERS1_R10UErrorCode
0000000000000eb0 T __ZN6icu_578TimeZone13createDefaultEv
0000000000003790 T __ZN6icu_578TimeZone13parseCustomIDERKNS_13UnicodeStringERiS4_S4_S4_
0000000000000820 T __ZN6icu_578TimeZone14createTimeZoneERKNS_13UnicodeStringE
0000000000004340 T __ZN6icu_578TimeZone14formatCustomIDEiiiaRNS_13UnicodeStringE
00000000000049f0 T __ZN6icu_578TimeZone14getCanonicalIDERKNS_13UnicodeStringERS1_R10UErrorCode
0000000000004a30 T __ZN6icu_578TimeZone14getCanonicalIDERKNS_13UnicodeStringERS1_RaR10UErrorCode
0000000000001f20 T __ZN6icu_578TimeZone15getEquivalentIDERKNS_13UnicodeStringEi
00000000000025b0 T __ZN6icu_578TimeZone16dereferOlsonLinkERKNS_13UnicodeStringE
0000000000000440 T __ZN6icu_578TimeZone16getStaticClassIDEv
0000000000004870 T __ZN6icu_578TimeZone16getTZDataVersionER10UErrorCode
0000000000001cd0 T __ZN6icu_578TimeZone17createEnumerationEPKc
0000000000001ca0 T __ZN6icu_578TimeZone17createEnumerationEi
0000000000001c60 T __ZN6icu_578TimeZone17createEnumerationEv
0000000000005170 T __ZN6icu_578TimeZone17getIDForWindowsIDERKNS_13UnicodeStringEPKcRS1_R10UErrorCode
0000000000001d00 T __ZN6icu_578TimeZone18countEquivalentIDsERKNS_13UnicodeStringE
0000000000000a80 T __ZN6icu_578TimeZone18detectHostTimeZoneEv
00000000000008d0 T __ZN6icu_578TimeZone20createCustomTimeZoneERKNS_13UnicodeStringE
0000000000001530 T __ZN6icu_578TimeZone27createTimeZoneIDEnumerationE19USystemTimeZoneTypePKcPKiR10UErrorCode
00000000000022a0 T __ZN6icu_578TimeZone6findIDERKNS_13UnicodeStringE
0000000000000410 T __ZN6icu_578TimeZone6getGMTEv
0000000000000000 T __ZN6icu_578TimeZone8loadRuleEPK15UResourceBundleRKNS_13UnicodeStringEPS1_R10UErrorCode
00000000000026f0 T __ZN6icu_578TimeZone9getRegionERKNS_13UnicodeStringE
0000000000002820 T __ZN6icu_578TimeZone9getRegionERKNS_13UnicodeStringEPciR10UErrorCode
0000000000002720 T __ZN6icu_578TimeZone9getRegionERKNS_13UnicodeStringER10UErrorCode
0000000000000500 T __ZN6icu_578TimeZoneC2ERKNS_13UnicodeStringE
00000000000005e0 T __ZN6icu_578TimeZoneC2ERKS0_
0000000000000450 T __ZN6icu_578TimeZoneC2Ev
00000000000005d0 T __ZN6icu_578TimeZoneD0Ev
00000000000005c0 T __ZN6icu_578TimeZoneD1Ev
0000000000000570 T __ZN6icu_578TimeZoneD2Ev
0000000000000680 T __ZN6icu_578TimeZoneaSERKS0_
                 U __ZN6icu_578ZoneMeta18getCanonicalCLDRIDERKNS_13UnicodeStringERS1_R10UErrorCode
                 U __ZN6icu_578ZoneMeta18getCanonicalCLDRIDERKNS_8TimeZoneE
0000000000005b10 T __ZN6icu_579UInitOnce5resetEv
0000000000000f10 t __ZN6icu_57L11initDefaultEv
0000000000006590 t __ZN6icu_57L13getZoneByNameEPK15UResourceBundleRKNS_13UnicodeStringEPS0_R10UErrorCode
0000000000002360 t __ZN6icu_57L17findInStringArrayEP15UResourceBundleRKNS_13UnicodeStringER10UErrorCode
0000000000004950 t __ZN6icu_57L17initTZDataVersionER10UErrorCode
0000000000001e30 t __ZN6icu_57L17openOlsonResourceERKNS_13UnicodeStringER15UResourceBundleR10UErrorCode
0000000000005f60 t __ZN6icu_57L7initMapE19USystemTimeZoneTypeR10UErrorCode
0000000000004730 T __ZNK6icu_5711Formattable7getLongEv
00000000000046f0 T __ZNK6icu_5713ParsePosition8getIndexEv
0000000000001510 T __ZNK6icu_5713TZEnumeration17getDynamicClassIDEv
0000000000005520 T __ZNK6icu_5713TZEnumeration5cloneEv
00000000000055d0 T __ZNK6icu_5713TZEnumeration5countER10UErrorCode
0000000000006780 T __ZNK6icu_5713UnicodeString10pinIndicesERiS1_
0000000000004630 T __ZNK6icu_5713UnicodeString10startsWithEPKti
0000000000006830 T __ZNK6icu_5713UnicodeString13getArrayStartEv
0000000000005af0 T __ZNK6icu_5713UnicodeString14getShortLengthEv
0000000000005ad0 T __ZNK6icu_5713UnicodeString14hasShortLengthEv
0000000000000e60 T __ZNK6icu_5713UnicodeString6lengthEv
0000000000002940 T __ZNK6icu_5713UnicodeString7compareEPKti
0000000000006680 T __ZNK6icu_5713UnicodeString7compareERKS0_
                 U __ZNK6icu_5713UnicodeString7extractEiiPciNS0_10EInvariantE
00000000000057e0 T __ZNK6icu_5713UnicodeString7isBogusEv
0000000000003740 T __ZNK6icu_5713UnicodeString7isEmptyEv
0000000000006930 T __ZNK6icu_5713UnicodeString8doCharAtEi
                 U __ZNK6icu_5713UnicodeString8doEqualsERKS0_i
                 U __ZNK6icu_5713UnicodeString9doCompareEiiPKtii
00000000000066e0 T __ZNK6icu_5713UnicodeString9doCompareEiiRKS0_ii
0000000000000770 T __ZNK6icu_5713UnicodeStringeqERKS0_
00000000000046c0 T __ZNK6icu_5713UnicodeStringixEi
00000000000064d0 T __ZNK6icu_5713UnicodeStringneERKS0_
                 U __ZNK6icu_5714TimeZoneFormat24formatOffsetISO8601BasicEiaaaRNS_13UnicodeStringER10UErrorCode
                 U __ZNK6icu_5714TimeZoneFormat24formatOffsetLocalizedGMTEiRNS_13UnicodeStringER10UErrorCode
                 U __ZNK6icu_5714TimeZoneFormat29formatOffsetShortLocalizedGMTEiRNS_13UnicodeStringER10UErrorCode
0000000000003720 T __ZNK6icu_5716LocalPointerBaseINS_13TimeZoneNamesEEptEv
00000000000036b0 T __ZNK6icu_5716LocalPointerBaseINS_14TimeZoneFormatEEptEv
                 U __ZNK6icu_5717StringEnumerationeqERKS0_
                 U __ZNK6icu_5717StringEnumerationneERKS0_
00000000000047d0 T __ZNK6icu_578TimeZone12hasSameRulesERKS0_
00000000000035f0 T __ZNK6icu_578TimeZone13getDSTSavingsEv
0000000000003550 T __ZNK6icu_578TimeZone14getDisplayNameERKNS_6LocaleERNS_13UnicodeStringE
0000000000002990 T __ZNK6icu_578TimeZone14getDisplayNameERNS_13UnicodeStringE
00000000000029d0 T __ZNK6icu_578TimeZone14getDisplayNameEaNS0_12EDisplayTypeERKNS_6LocaleERNS_13UnicodeStringE
0000000000003590 T __ZNK6icu_578TimeZone14getDisplayNameEaNS0_12EDisplayTypeERNS_13UnicodeStringE
0000000000001180 T __ZNK6icu_578TimeZone9getOffsetEdaRiS1_R10UErrorCode
00000000000006d0 T __ZNK6icu_578TimeZoneeqERKS0_
                 U __ZSt9terminatev
00000000000074b0 S __ZTIN6icu_5713TZEnumerationE
                 U __ZTIN6icu_5717StringEnumerationE
                 U __ZTIN6icu_577UObjectE
0000000000007490 S __ZTIN6icu_578TimeZoneE
0000000000007520 S __ZTSN6icu_5713TZEnumerationE
0000000000007500 S __ZTSN6icu_578TimeZoneE
                 U __ZTVN10__cxxabiv120__si_class_type_infoE
                 U __ZTVN6icu_5711ReplaceableE
                 U __ZTVN6icu_5713ParsePositionE
0000000000007420 S __ZTVN6icu_5713TZEnumerationE
                 U __ZTVN6icu_5713UnicodeStringE
                 U __ZTVN6icu_577UObjectE
00000000000073a0 S __ZTVN6icu_578TimeZoneE
0000000000009ad0 b __ZZN6icu_5713TZEnumeration16getStaticClassIDEvE7classID
00000000000074e8 s __ZZN6icu_578TimeZone13parseCustomIDERKNS_13UnicodeStringERiS4_S4_S4_E12kParseFailed
0000000000009ac0 b __ZZN6icu_578TimeZone16getStaticClassIDEvE7classID
00000000000014a0 T ___clang_call_terminate
                 U ___cxa_bad_typeid
                 U ___cxa_begin_catch
                 U ___cxa_pure_virtual
                 U ___gxx_personality_v0
                 U ___stack_chk_fail
                 U ___stack_chk_guard
                 U _memcpy
                 U _memset
                 U _u_UCharsToChars_57
                 U _u_strchr_57
                 U _u_strcmp_57
                 U _u_strlen_57
                 U _u_terminateChars_57
                 U _ucln_i18n_registerCleanup_57
                 U _uprv_floor_57
                 U _uprv_free_57
                 U _uprv_malloc_57
                 U _uprv_min_57
                 U _uprv_realloc_57
                 U _uprv_stricmp_57
                 U _uprv_timezone_57
                 U _uprv_tzname_57
                 U _uprv_tzset_57
                 U _ures_close_57
                 U _ures_getByIndex_57
                 U _ures_getByKey_57
                 U _ures_getIntVector_57
                 U _ures_getInt_57
                 U _ures_getKey_57
                 U _ures_getNextResource_57
                 U _ures_getSize_57
                 U _ures_getStringByIndex_57
                 U _ures_getStringByKey_57
                 U _ures_getString_57
                 U _ures_getType_57
                 U _ures_hasNext_57
                 U _ures_initStackObject_57
                 U _ures_openDirect_57

libicui18n.a(simpletz.ao):
0000000000004a80 s GCC_except_table10
0000000000004aac s GCC_except_table13
0000000000004ac4 s GCC_except_table18
00000000000049fc s GCC_except_table2
0000000000004af0 s GCC_except_table22
0000000000004b10 s GCC_except_table46
0000000000004a28 s GCC_except_table5
0000000000004b30 s GCC_except_table52
0000000000004a54 s GCC_except_table8
                 U __Unwind_Resume
0000000000001eb0 t __ZL9U_FAILURE10UErrorCode
00000000000049a0 T __ZN6icu_5711ReplaceableC2Ev
                 U __ZN6icu_5712DateTimeRuleC1EiiiNS0_12TimeRuleTypeE
                 U __ZN6icu_5712DateTimeRuleC1EiiiaiNS0_12TimeRuleTypeE
                 U __ZN6icu_5712DateTimeRuleC1EiiiiNS0_12TimeRuleTypeE
                 U __ZN6icu_5713BasicTimeZoneC2ERKNS_13UnicodeStringE
                 U __ZN6icu_5713BasicTimeZoneC2ERKS0_
                 U __ZN6icu_5713BasicTimeZoneD2Ev
                 U __ZN6icu_5713UnicodeStringC1EPKt
0000000000004700 T __ZN6icu_5713UnicodeStringC1Ev
0000000000004960 T __ZN6icu_5713UnicodeStringC2Ev
                 U __ZN6icu_5713UnicodeStringD1Ev
                 U __ZN6icu_5713UnicodeStringaSERKS0_
0000000000001600 T __ZN6icu_5714SimpleTimeZone10setEndRuleEiiiNS0_8TimeModeER10UErrorCode
0000000000001320 T __ZN6icu_5714SimpleTimeZone10setEndRuleEiiiiNS0_8TimeModeER10UErrorCode
0000000000001650 T __ZN6icu_5714SimpleTimeZone10setEndRuleEiiiiNS0_8TimeModeEaR10UErrorCode
00000000000009e0 T __ZN6icu_5714SimpleTimeZone11decodeRulesER10UErrorCode
0000000000002600 T __ZN6icu_5714SimpleTimeZone12setRawOffsetEi
0000000000001240 T __ZN6icu_5714SimpleTimeZone12setStartRuleEiiiNS0_8TimeModeER10UErrorCode
0000000000000f60 T __ZN6icu_5714SimpleTimeZone12setStartRuleEiiiiNS0_8TimeModeER10UErrorCode
0000000000001290 T __ZN6icu_5714SimpleTimeZone12setStartRuleEiiiiNS0_8TimeModeEaR10UErrorCode
0000000000000f40 T __ZN6icu_5714SimpleTimeZone12setStartYearEi
0000000000001ed0 T __ZN6icu_5714SimpleTimeZone13compareToRuleEaaaaaiiNS0_5EModeEaaai
0000000000001390 T __ZN6icu_5714SimpleTimeZone13decodeEndRuleER10UErrorCode
0000000000002620 T __ZN6icu_5714SimpleTimeZone13setDSTSavingsEiR10UErrorCode
0000000000000fd0 T __ZN6icu_5714SimpleTimeZone15decodeStartRuleER10UErrorCode
0000000000000000 T __ZN6icu_5714SimpleTimeZone16getStaticClassIDEv
0000000000004ce0 S __ZN6icu_5714SimpleTimeZone17STATICMONTHLENGTHE
0000000000003080 T __ZN6icu_5714SimpleTimeZone19initTransitionRulesER10UErrorCode
00000000000000f0 T __ZN6icu_5714SimpleTimeZone20clearTransitionRulesEv
0000000000000a90 T __ZN6icu_5714SimpleTimeZone21deleteTransitionRulesEv
00000000000002a0 T __ZN6icu_5714SimpleTimeZone9constructEiaaaiNS0_8TimeModeEaaaiS1_iR10UErrorCode
0000000000000d90 T __ZN6icu_5714SimpleTimeZoneC1ERKS0_
0000000000000130 T __ZN6icu_5714SimpleTimeZoneC1EiRKNS_13UnicodeStringE
0000000000000870 T __ZN6icu_5714SimpleTimeZoneC1EiRKNS_13UnicodeStringEaaaiNS0_8TimeModeEaaaiS4_iR10UErrorCode
00000000000003a0 T __ZN6icu_5714SimpleTimeZoneC1EiRKNS_13UnicodeStringEaaaiaaaiR10UErrorCode
00000000000005f0 T __ZN6icu_5714SimpleTimeZoneC1EiRKNS_13UnicodeStringEaaaiaaaiiR10UErrorCode
0000000000000c10 T __ZN6icu_5714SimpleTimeZoneC2ERKS0_
0000000000000030 T __ZN6icu_5714SimpleTimeZoneC2EiRKNS_13UnicodeStringE
0000000000000720 T __ZN6icu_5714SimpleTimeZoneC2EiRKNS_13UnicodeStringEaaaiNS0_8TimeModeEaaaiS4_iR10UErrorCode
0000000000000160 T __ZN6icu_5714SimpleTimeZoneC2EiRKNS_13UnicodeStringEaaaiaaaiR10UErrorCode
00000000000004b0 T __ZN6icu_5714SimpleTimeZoneC2EiRKNS_13UnicodeStringEaaaiaaaiiR10UErrorCode
0000000000000be0 T __ZN6icu_5714SimpleTimeZoneD0Ev
0000000000000bc0 T __ZN6icu_5714SimpleTimeZoneD1Ev
0000000000000a30 T __ZN6icu_5714SimpleTimeZoneD2Ev
0000000000000c90 T __ZN6icu_5714SimpleTimeZoneaSERKS0_
                 U __ZN6icu_5717GregorianCalendarC1ERKNS_8TimeZoneER10UErrorCode
                 U __ZN6icu_5718AnnualTimeZoneRule8MAX_YEARE
                 U __ZN6icu_5718AnnualTimeZoneRuleC1ERKNS_13UnicodeStringEiiPNS_12DateTimeRuleEii
                 U __ZN6icu_5718TimeZoneTransition5setToERKNS_12TimeZoneRuleE
                 U __ZN6icu_5718TimeZoneTransition7setFromERKNS_12TimeZoneRuleE
                 U __ZN6icu_5718TimeZoneTransition7setTimeEd
                 U __ZN6icu_5718TimeZoneTransitionC1EdRKNS_12TimeZoneRuleES3_
                 U __ZN6icu_5718TimeZoneTransitionaSERKS0_
                 U __ZN6icu_5719InitialTimeZoneRuleC1ERKNS_13UnicodeStringEii
00000000000048f0 T __ZN6icu_575Grego10isLeapYearEi
0000000000002590 T __ZN6icu_575Grego11dayToFieldsEdRiS1_S1_S1_
                 U __ZN6icu_575Grego11dayToFieldsEdRiS1_S1_S1_S1_
0000000000001800 T __ZN6icu_575Grego11monthLengthEii
                 U __ZN6icu_575Grego12MONTH_LENGTHE
00000000000019a0 T __ZN6icu_575Grego19previousMonthLengthEii
                 U __ZN6icu_577UMemorydlEPv
                 U __ZN6icu_577UMemorynwEm
00000000000049e0 T __ZN6icu_577UObjectC2Ev
                 U __ZN6icu_578Calendar15setTimeInMillisEdR10UErrorCode
0000000000002810 T __ZN6icu_578Calendar7setTimeEdR10UErrorCode
                 U __ZN6icu_578TimeZoneaSERKS0_
0000000000004e08 d __ZN6icu_57L5gLockE
0000000000004cec s __ZN6icu_57L7DST_STRE
0000000000004cf8 s __ZN6icu_57L7STD_STRE
                 U __ZN6icu_57plERKNS_13UnicodeStringES2_
                 U __ZNK6icu_5712TimeZoneRule12getRawOffsetEv
                 U __ZNK6icu_5712TimeZoneRule13getDSTSavingsEv
                 U __ZNK6icu_5713BasicTimeZone18getSimpleRulesNearEdRPNS_19InitialTimeZoneRuleERPNS_18AnnualTimeZoneRuleES6_R10UErrorCode
                 U __ZNK6icu_5713BasicTimeZone24hasEquivalentTransitionsERKS0_ddaR10UErrorCode
00000000000025e0 T __ZNK6icu_5714SimpleTimeZone12getRawOffsetEv
0000000000002840 T __ZNK6icu_5714SimpleTimeZone12hasSameRulesERKNS_8TimeZoneE
0000000000002670 T __ZNK6icu_5714SimpleTimeZone13getDSTSavingsEv
00000000000026b0 T __ZNK6icu_5714SimpleTimeZone14inDaylightTimeEdR10UErrorCode
0000000000002690 T __ZNK6icu_5714SimpleTimeZone15useDaylightTimeEv
0000000000004790 T __ZNK6icu_5714SimpleTimeZone16getTimeZoneRulesERPKNS_19InitialTimeZoneRuleEPPKNS_12TimeZoneRuleERiR10UErrorCode
0000000000000010 T __ZNK6icu_5714SimpleTimeZone17getDynamicClassIDEv
0000000000002ae0 T __ZNK6icu_5714SimpleTimeZone17getNextTransitionEdaRNS_18TimeZoneTransitionE
0000000000002220 T __ZNK6icu_5714SimpleTimeZone18getOffsetFromLocalEdiiRiS1_R10UErrorCode
0000000000002d80 T __ZNK6icu_5714SimpleTimeZone20checkTransitionRulesER10UErrorCode
0000000000004760 T __ZNK6icu_5714SimpleTimeZone20countTransitionRulesER10UErrorCode
0000000000002e00 T __ZNK6icu_5714SimpleTimeZone21getPreviousTransitionEdaRNS_18TimeZoneTransitionE
0000000000000e90 T __ZNK6icu_5714SimpleTimeZone5cloneEv
0000000000004890 T __ZNK6icu_5714SimpleTimeZone9getOffsetEdaRiS1_R10UErrorCode
00000000000016e0 T __ZNK6icu_5714SimpleTimeZone9getOffsetEhiiihiR10UErrorCode
0000000000001850 T __ZNK6icu_5714SimpleTimeZone9getOffsetEhiiihiiR10UErrorCode
00000000000019f0 T __ZNK6icu_5714SimpleTimeZone9getOffsetEhiiihiiiR10UErrorCode
0000000000000dc0 T __ZNK6icu_5714SimpleTimeZoneeqERKNS_8TimeZoneE
                 U __ZNK6icu_5718TimeZoneTransition7getTimeEv
0000000000004720 T __ZNK6icu_578TimeZone5getIDERNS_13UnicodeStringE
                 U __ZNK6icu_578TimeZone9getOffsetEdaRiS1_R10UErrorCode
                 U __ZNK6icu_578TimeZoneeqERKS0_
                 U __ZSt9terminatev
                 U __ZTIN6icu_5713BasicTimeZoneE
0000000000004df0 S __ZTIN6icu_5714SimpleTimeZoneE
0000000000004d10 S __ZTSN6icu_5714SimpleTimeZoneE
                 U __ZTVN10__cxxabiv120__si_class_type_infoE
                 U __ZTVN6icu_5711ReplaceableE
                 U __ZTVN6icu_5713UnicodeStringE
0000000000004d30 S __ZTVN6icu_5714SimpleTimeZoneE
                 U __ZTVN6icu_577UObjectE
0000000000006038 b __ZZN6icu_5714SimpleTimeZone16getStaticClassIDEvE7classID
0000000000000bb0 T ___clang_call_terminate
                 U ___cxa_bad_typeid
                 U ___cxa_begin_catch
                 U ___gxx_personality_v0
                 U ___stack_chk_fail
                 U ___stack_chk_guard
                 U _umtx_lock_57
                 U _umtx_unlock_57
                 U _uprv_floor_57

libicui18n.a(olsontz.ao):
0000000000004d28 s GCC_except_table10
0000000000004d54 s GCC_except_table13
0000000000004d7c s GCC_except_table19
0000000000004cb8 s GCC_except_table3
0000000000004d9c s GCC_except_table44
0000000000004e9c s GCC_except_table47
0000000000004ed8 s GCC_except_table49
                 U __Unwind_Resume
0000000000002640 t __ZL10arrayEqualPKvS0_i
0000000000000d00 t __ZL9U_FAILURE10UErrorCode
0000000000000c90 t __ZL9U_SUCCESS10UErrorCode
0000000000004a90 T __ZN6icu_5711ReplaceableC2Ev
                 U __ZN6icu_5713BasicTimeZoneC2ERKNS_13UnicodeStringE
                 U __ZN6icu_5713BasicTimeZoneC2ERKS0_
                 U __ZN6icu_5713BasicTimeZoneD2Ev
0000000000001d00 T __ZN6icu_5713OlsonTimeZone12setRawOffsetEi
0000000000000030 T __ZN6icu_5713OlsonTimeZone14constructEmptyEv
0000000000000000 T __ZN6icu_5713OlsonTimeZone16getStaticClassIDEv
00000000000028c0 T __ZN6icu_5713OlsonTimeZone19initTransitionRulesER10UErrorCode
0000000000000c20 T __ZN6icu_5713OlsonTimeZone20clearTransitionRulesEv
0000000000000fe0 T __ZN6icu_5713OlsonTimeZone21deleteTransitionRulesEv
0000000000000d20 T __ZN6icu_5713OlsonTimeZoneC1EPK15UResourceBundleS3_RKNS_13UnicodeStringER10UErrorCode
0000000000000f30 T __ZN6icu_5713OlsonTimeZoneC1ERKS0_
00000000000000a0 T __ZN6icu_5713OlsonTimeZoneC2EPK15UResourceBundleS3_RKNS_13UnicodeStringER10UErrorCode
0000000000000d60 T __ZN6icu_5713OlsonTimeZoneC2ERKS0_
00000000000011d0 T __ZN6icu_5713OlsonTimeZoneD0Ev
00000000000011b0 T __ZN6icu_5713OlsonTimeZoneD1Ev
0000000000000f60 T __ZN6icu_5713OlsonTimeZoneD2Ev
0000000000000df0 T __ZN6icu_5713OlsonTimeZoneaSERKS0_
                 U __ZN6icu_5713UnicodeStringC1EaPKti
0000000000000ce0 T __ZN6icu_5713UnicodeStringC1Ev
0000000000004a50 T __ZN6icu_5713UnicodeStringC2Ev
                 U __ZN6icu_5713UnicodeStringD1Ev
                 U __ZN6icu_5713UnicodeStringaSERKS0_
00000000000027e0 T __ZN6icu_5713umtx_initOnceIPNS_13OlsonTimeZoneEEEvRNS_9UInitOnceEPFvT_R10UErrorCodeES5_S7_
                 U __ZN6icu_5714SimpleTimeZone12setStartYearEi
                 U __ZN6icu_5714SimpleTimeZoneC1EiRKNS_13UnicodeStringEaaaiNS0_8TimeModeEaaaiS4_iR10UErrorCode
0000000000004c10 T __ZN6icu_5716umtx_loadAcquireERNSt3__16atomicIiEE
                 U __ZN6icu_5718TimeZoneTransition7adoptToEPNS_12TimeZoneRuleE
                 U __ZN6icu_5718TimeZoneTransition7setTimeEd
                 U __ZN6icu_5718TimeZoneTransition9adoptFromEPNS_12TimeZoneRuleE
                 U __ZN6icu_5718TimeZoneTransitionC1EdRKNS_12TimeZoneRuleES3_
                 U __ZN6icu_5718TimeZoneTransitionC1Ev
                 U __ZN6icu_5718TimeZoneTransitionD1Ev
                 U __ZN6icu_5718TimeZoneTransitionaSERKS0_
                 U __ZN6icu_5719InitialTimeZoneRuleC1ERKNS_13UnicodeStringEii
                 U __ZN6icu_5720umtx_initImplPreInitERNS_9UInitOnceE
                 U __ZN6icu_5721TimeArrayTimeZoneRuleC1ERKNS_13UnicodeStringEiiPKdiNS_12DateTimeRule12TimeRuleTypeE
                 U __ZN6icu_5721umtx_initImplPostInitERNS_9UInitOnceE
0000000000004af0 T __ZN6icu_575Grego10isLeapYearEi
                 U __ZN6icu_575Grego11fieldsToDayEiii
00000000000014b0 T __ZN6icu_575Grego11monthLengthEii
                 U __ZN6icu_575Grego12MONTH_LENGTHE
                 U __ZN6icu_575Grego12timeToFieldsEdRiS1_S1_S1_S1_S1_
                 U __ZN6icu_577UMemorydlEPv
                 U __ZN6icu_577UMemorynwEm
0000000000004ad0 T __ZN6icu_577UObjectC2Ev
                 U __ZN6icu_578TimeZone8loadRuleEPK15UResourceBundleRKNS_13UnicodeStringEPS1_R10UErrorCode
                 U __ZN6icu_578ZoneMeta18getCanonicalCLDRIDERKNS_13UnicodeStringER10UErrorCode
00000000000026f0 T __ZN6icu_579UInitOnce5resetEv
0000000000004f20 s __ZN6icu_57L5ZEROSE
0000000000002890 t __ZN6icu_57L9initRulesEPNS_13OlsonTimeZoneER10UErrorCode
                 U __ZN6icu_57plERKNS_13UnicodeStringES2_
                 U __ZNK6icu_5712TimeZoneRule12getRawOffsetEv
                 U __ZNK6icu_5712TimeZoneRule13getDSTSavingsEv
                 U __ZNK6icu_5712TimeZoneRule7getNameERNS_13UnicodeStringE
                 U __ZNK6icu_5713BasicTimeZone18getSimpleRulesNearEdRPNS_19InitialTimeZoneRuleERPNS_18AnnualTimeZoneRuleES6_R10UErrorCode
                 U __ZNK6icu_5713BasicTimeZone24hasEquivalentTransitionsERKS0_ddaR10UErrorCode
0000000000001f30 T __ZNK6icu_5713OlsonTimeZone11dstOffsetAtEs
0000000000001fa0 T __ZNK6icu_5713OlsonTimeZone11rawOffsetAtEs
0000000000001d10 T __ZNK6icu_5713OlsonTimeZone12getRawOffsetEv
0000000000002270 T __ZNK6icu_5713OlsonTimeZone12hasSameRulesERKNS_8TimeZoneE
0000000000001eb0 T __ZNK6icu_5713OlsonTimeZone12zoneOffsetAtEs
00000000000021b0 T __ZNK6icu_5713OlsonTimeZone13getDSTSavingsEv
0000000000002210 T __ZNK6icu_5713OlsonTimeZone14inDaylightTimeEdR10UErrorCode
00000000000039a0 T __ZNK6icu_5713OlsonTimeZone14transitionTimeEs
0000000000000cb0 T __ZNK6icu_5713OlsonTimeZone15transitionCountEv
0000000000002010 T __ZNK6icu_5713OlsonTimeZone15useDaylightTimeEv
0000000000004880 T __ZNK6icu_5713OlsonTimeZone16getTimeZoneRulesERPKNS_19InitialTimeZoneRuleEPPKNS_12TimeZoneRuleERiR10UErrorCode
0000000000001e90 T __ZNK6icu_5713OlsonTimeZone16initialDstOffsetEv
0000000000001e70 T __ZNK6icu_5713OlsonTimeZone16initialRawOffsetEv
0000000000000010 T __ZNK6icu_5713OlsonTimeZone17getDynamicClassIDEv
00000000000039e0 T __ZNK6icu_5713OlsonTimeZone17getNextTransitionEdaRNS_18TimeZoneTransitionE
0000000000001c10 T __ZNK6icu_5713OlsonTimeZone18getOffsetFromLocalEdiiRiS1_R10UErrorCode
0000000000001720 T __ZNK6icu_5713OlsonTimeZone19getHistoricalOffsetEdaiiRiS1_
0000000000002790 T __ZNK6icu_5713OlsonTimeZone20checkTransitionRulesER10UErrorCode
0000000000004750 T __ZNK6icu_5713OlsonTimeZone20countTransitionRulesER10UErrorCode
0000000000004100 T __ZNK6icu_5713OlsonTimeZone21getPreviousTransitionEdaRNS_18TimeZoneTransitionE
0000000000001d70 T __ZNK6icu_5713OlsonTimeZone23transitionTimeInSecondsEs
00000000000012d0 T __ZNK6icu_5713OlsonTimeZone5cloneEv
0000000000001b20 T __ZNK6icu_5713OlsonTimeZone9getOffsetEdaRiS1_R10UErrorCode
0000000000001380 T __ZNK6icu_5713OlsonTimeZone9getOffsetEhiiihiR10UErrorCode
0000000000001500 T __ZNK6icu_5713OlsonTimeZone9getOffsetEhiiihiiR10UErrorCode
0000000000001200 T __ZNK6icu_5713OlsonTimeZoneeqERKNS_8TimeZoneE
0000000000004bf0 T __ZNK6icu_5713UnicodeString14getShortLengthEv
0000000000004bd0 T __ZNK6icu_5713UnicodeString14hasShortLengthEv
0000000000004b80 T __ZNK6icu_5713UnicodeString6lengthEv
0000000000004b60 T __ZNK6icu_5713UnicodeString7isBogusEv
                 U __ZNK6icu_5713UnicodeString8doEqualsERKS0_i
0000000000004050 T __ZNK6icu_5713UnicodeStringeqERKS0_
                 U __ZNK6icu_5718TimeZoneTransition5getToEv
                 U __ZNK6icu_5718TimeZoneTransition7getTimeEv
                 U __ZNK6icu_578TimeZone13getDSTSavingsEv
0000000000003960 T __ZNK6icu_578TimeZone5getIDERNS_13UnicodeStringE
                 U __ZNK6icu_578TimeZoneeqERKS0_
00000000000025f0 T __ZNK6icu_578TimeZoneneERKS0_
                 U __ZSt9terminatev
                 U __ZTIN6icu_5713BasicTimeZoneE
0000000000005010 S __ZTIN6icu_5713OlsonTimeZoneE
                 U __ZTIN6icu_578TimeZoneE
0000000000004f30 S __ZTSN6icu_5713OlsonTimeZoneE
                 U __ZTVN10__cxxabiv120__si_class_type_infoE
                 U __ZTVN6icu_5711ReplaceableE
0000000000004f50 S __ZTVN6icu_5713OlsonTimeZoneE
                 U __ZTVN6icu_5713UnicodeStringE
                 U __ZTVN6icu_577UObjectE
00000000000061e8 b __ZZN6icu_5713OlsonTimeZone16getStaticClassIDEvE7classID
00000000000011a0 T ___clang_call_terminate
                 U ___cxa_bad_typeid
                 U ___cxa_begin_catch
                 U ___dynamic_cast
                 U ___gxx_personality_v0
                 U ___stack_chk_fail
                 U ___stack_chk_guard
                 U _memcmp
                 U _uprv_floor_57
                 U _uprv_free_57
                 U _uprv_getUTCtime_57
                 U _uprv_malloc_57
                 U _ures_close_57
                 U _ures_getBinary_57
                 U _ures_getByKey_57
                 U _ures_getIntVector_57
                 U _ures_getInt_57
                 U _ures_getStringByKey_57
                 U _ures_initStackObject_57
0000000000005076 s l_.str.8
0000000000005082 s l_.str.9

libicui18n.a(astro.ao):
00000000000029e8 s GCC_except_table43
0000000000002a08 s GCC_except_table52
0000000000002a34 s GCC_except_table64
0000000000002a54 s GCC_except_table70
0000000000002a74 s GCC_except_table76
0000000000002aa0 s GCC_except_table83
                 U __Unwind_Resume
0000000000002140 t __ZL22calendar_astro_cleanupv
0000000000002bf0 d __ZL6ccLock
0000000000002180 t __ZL9U_FAILURE10UErrorCode
0000000000000440 t __ZL9isINVALIDd
00000000000026c0 T __ZN6icu_5711ReplaceableC2Ev
0000000000002010 T __ZN6icu_5713CalendarCache11createCacheEPPS0_R10UErrorCode
00000000000021a0 T __ZN6icu_5713CalendarCache3getEPPS0_iR10UErrorCode
0000000000002260 T __ZN6icu_5713CalendarCache3putEPPS0_iiR10UErrorCode
0000000000002150 T __ZN6icu_5713CalendarCacheC1EiR10UErrorCode
0000000000002310 T __ZN6icu_5713CalendarCacheC2EiR10UErrorCode
0000000000002410 T __ZN6icu_5713CalendarCacheD0Ev
00000000000023f0 T __ZN6icu_5713CalendarCacheD1Ev
0000000000002380 T __ZN6icu_5713CalendarCacheD2Ev
0000000000001f90 T __ZN6icu_5713UnicodeStringC1Ev
0000000000002680 T __ZN6icu_5713UnicodeStringC2Ev
0000000000002460 T __ZN6icu_5716RiseSetCoordFunc4evalERNS_18CalendarAstronomer10EquatorialERS1_
0000000000001520 T __ZN6icu_5716RiseSetCoordFuncC1Ev
0000000000002580 T __ZN6icu_5716RiseSetCoordFuncC2Ev
00000000000013c0 T __ZN6icu_5716RiseSetCoordFuncD0Ev
00000000000013a0 T __ZN6icu_5716RiseSetCoordFuncD1Ev
0000000000001380 T __ZN6icu_5716RiseSetCoordFuncD2Ev
0000000000002440 T __ZN6icu_5716SunTimeAngleFunc4evalERNS_18CalendarAstronomerE
0000000000001030 T __ZN6icu_5716SunTimeAngleFuncC1Ev
0000000000002520 T __ZN6icu_5716SunTimeAngleFuncC2Ev
0000000000000f70 T __ZN6icu_5716SunTimeAngleFuncD0Ev
0000000000000f50 T __ZN6icu_5716SunTimeAngleFuncD1Ev
0000000000000f30 T __ZN6icu_5716SunTimeAngleFuncD2Ev
0000000000002490 T __ZN6icu_5717MoonTimeAngleFunc4evalERNS_18CalendarAstronomerE
0000000000001df0 T __ZN6icu_5717MoonTimeAngleFuncC1Ev
0000000000002600 T __ZN6icu_5717MoonTimeAngleFuncC2Ev
0000000000001d30 T __ZN6icu_5717MoonTimeAngleFuncD0Ev
0000000000001d10 T __ZN6icu_5717MoonTimeAngleFuncD1Ev
0000000000001cf0 T __ZN6icu_5717MoonTimeAngleFuncD2Ev
00000000000009e0 T __ZN6icu_5718CalendarAstronomer10Equatorial3setEdd
0000000000000060 T __ZN6icu_5718CalendarAstronomer10EquatorialC1Edd
00000000000024f0 T __ZN6icu_5718CalendarAstronomer10EquatorialC2Edd
0000000000000090 T __ZN6icu_5718CalendarAstronomer10clearCacheEv
0000000000001be0 T __ZN6icu_5718CalendarAstronomer10getMoonAgeEv
0000000000000fa0 T __ZN6icu_5718CalendarAstronomer10getSunTimeEda
0000000000001e10 T __ZN6icu_5718CalendarAstronomer11getMoonTimeERKNS0_7MoonAgeEa
0000000000001d60 T __ZN6icu_5718CalendarAstronomer11getMoonTimeEda
0000000000001050 T __ZN6icu_5718CalendarAstronomer11timeOfAngleERNS0_9AngleFuncEddda
00000000000003e0 T __ZN6icu_5718CalendarAstronomer12getJulianDayEv
0000000000001c20 T __ZN6icu_5718CalendarAstronomer12getMoonPhaseEv
0000000000000370 T __ZN6icu_5718CalendarAstronomer12setJulianDayEd
0000000000002ac0 S __ZN6icu_5718CalendarAstronomer13SYNODIC_MONTHE
00000000000013f0 T __ZN6icu_5718CalendarAstronomer13getSunRiseSetEa
0000000000001eb0 T __ZN6icu_5718CalendarAstronomer14getMoonRiseSetEa
0000000000000ea0 T __ZN6icu_5718CalendarAstronomer14getSunPositionERNS0_10EquatorialE
0000000000000ee0 T __ZN6icu_5718CalendarAstronomer15SUMMER_SOLSTICEEv
0000000000000ef0 T __ZN6icu_5718CalendarAstronomer15WINTER_SOLSTICEEv
0000000000001810 T __ZN6icu_5718CalendarAstronomer15getMoonPositionEv
0000000000000c90 T __ZN6icu_5718CalendarAstronomer15getSunLongitudeEdRdS1_
0000000000000c20 T __ZN6icu_5718CalendarAstronomer15getSunLongitudeEv
0000000000000460 T __ZN6icu_5718CalendarAstronomer16getJulianCenturyEv
0000000000000690 T __ZN6icu_5718CalendarAstronomer16getLocalSiderealEv
0000000000000910 T __ZN6icu_5718CalendarAstronomer17eclipticObliquityEv
0000000000000a40 T __ZN6icu_5718CalendarAstronomer17eclipticToHorizonERNS0_7HorizonEd
00000000000005b0 T __ZN6icu_5718CalendarAstronomer17getSiderealOffsetEv
00000000000007c0 T __ZN6icu_5718CalendarAstronomer20eclipticToEquatorialERNS0_10EquatorialERKNS0_8EclipticE
0000000000000a10 T __ZN6icu_5718CalendarAstronomer20eclipticToEquatorialERNS0_10EquatorialEd
0000000000000800 T __ZN6icu_5718CalendarAstronomer20eclipticToEquatorialERNS0_10EquatorialEdd
00000000000004c0 T __ZN6icu_5718CalendarAstronomer20getGreenwichSiderealEv
0000000000002ac8 S __ZN6icu_5718CalendarAstronomer2PIE
0000000000000bf0 T __ZN6icu_5718CalendarAstronomer7Horizon3setEdd
0000000000001c90 T __ZN6icu_5718CalendarAstronomer7MoonAgeC1Ed
00000000000025e0 T __ZN6icu_5718CalendarAstronomer7MoonAgeC2Ed
00000000000003c0 T __ZN6icu_5718CalendarAstronomer7getTimeEv
00000000000006e0 T __ZN6icu_5718CalendarAstronomer7lstToUTEd
0000000000000340 T __ZN6icu_5718CalendarAstronomer7setTimeEd
0000000000001c70 T __ZN6icu_5718CalendarAstronomer8NEW_MOONEv
0000000000002560 T __ZN6icu_5718CalendarAstronomer9AngleFuncC2Ev
0000000000000f20 T __ZN6icu_5718CalendarAstronomer9AngleFuncD0Ev
0000000000000f10 T __ZN6icu_5718CalendarAstronomer9AngleFuncD1Ev
0000000000000f00 T __ZN6icu_5718CalendarAstronomer9AngleFuncD2Ev
00000000000025c0 T __ZN6icu_5718CalendarAstronomer9CoordFuncC2Ev
0000000000001370 T __ZN6icu_5718CalendarAstronomer9CoordFuncD0Ev
0000000000001360 T __ZN6icu_5718CalendarAstronomer9CoordFuncD1Ev
0000000000001350 T __ZN6icu_5718CalendarAstronomer9CoordFuncD2Ev
0000000000001cc0 T __ZN6icu_5718CalendarAstronomer9FULL_MOONEv
0000000000001540 T __ZN6icu_5718CalendarAstronomer9riseOrSetERNS0_9CoordFuncEaddd
00000000000001b0 T __ZN6icu_5718CalendarAstronomerC1Ed
00000000000002e0 T __ZN6icu_5718CalendarAstronomerC1Edd
0000000000000130 T __ZN6icu_5718CalendarAstronomerC1Ev
0000000000000150 T __ZN6icu_5718CalendarAstronomerC2Ed
00000000000001e0 T __ZN6icu_5718CalendarAstronomerC2Edd
0000000000000000 T __ZN6icu_5718CalendarAstronomerC2Ev
0000000000000320 T __ZN6icu_5718CalendarAstronomerD1Ev
0000000000000310 T __ZN6icu_5718CalendarAstronomerD2Ev
00000000000024b0 T __ZN6icu_5720MoonRiseSetCoordFunc4evalERNS_18CalendarAstronomer10EquatorialERS1_
0000000000001f40 T __ZN6icu_5720MoonRiseSetCoordFuncC1Ev
0000000000002640 T __ZN6icu_5720MoonRiseSetCoordFuncC2Ev
0000000000001e80 T __ZN6icu_5720MoonRiseSetCoordFuncD0Ev
0000000000001e60 T __ZN6icu_5720MoonRiseSetCoordFuncD1Ev
0000000000001e40 T __ZN6icu_5720MoonRiseSetCoordFuncD2Ev
                 U __ZN6icu_577UMemorydlEPv
                 U __ZN6icu_577UMemorynwEm
0000000000002700 T __ZN6icu_577UObjectC2Ev
                 U __ZN6icu_578Calendar6getNowEv
0000000000000790 T __ZN6icu_579ClockMath11floorDivideEdd
0000000000000d70 t __ZN6icu_57L11trueAnomalyEdd
00000000000002a0 t __ZN6icu_57L6normPIEd
0000000000000d40 t __ZN6icu_57L7norm2PIEd
0000000000000550 t __ZN6icu_57L9normalizeEdd
0000000000001fb0 T __ZNK6icu_5718CalendarAstronomer10Equatorial8toStringEv
0000000000001fe0 T __ZNK6icu_5718CalendarAstronomer7Horizon8toStringEv
0000000000001f60 T __ZNK6icu_5718CalendarAstronomer8Ecliptic8toStringEv
                 U __ZSt9terminatev
0000000000002df0 S __ZTIN6icu_5713CalendarCacheE
0000000000002d50 S __ZTIN6icu_5716RiseSetCoordFuncE
0000000000002cd0 S __ZTIN6icu_5716SunTimeAngleFuncE
0000000000002d90 S __ZTIN6icu_5717MoonTimeAngleFuncE
0000000000002c90 S __ZTIN6icu_5718CalendarAstronomer9AngleFuncE
0000000000002d10 S __ZTIN6icu_5718CalendarAstronomer9CoordFuncE
0000000000002dd0 S __ZTIN6icu_5720MoonRiseSetCoordFuncE
0000000000002c30 D __ZTIN6icu_577UMemoryE
0000000000002bd0 S __ZTSN6icu_5713CalendarCacheE
0000000000002b70 S __ZTSN6icu_5716RiseSetCoordFuncE
0000000000002b20 S __ZTSN6icu_5716SunTimeAngleFuncE
0000000000002b90 S __ZTSN6icu_5717MoonTimeAngleFuncE
0000000000002ad0 S __ZTSN6icu_5718CalendarAstronomer9AngleFuncE
0000000000002b40 S __ZTSN6icu_5718CalendarAstronomer9CoordFuncE
0000000000002bb0 S __ZTSN6icu_5720MoonRiseSetCoordFuncE
0000000000002b00 S __ZTSN6icu_577UMemoryE
                 U __ZTVN10__cxxabiv117__class_type_infoE
                 U __ZTVN10__cxxabiv120__si_class_type_infoE
                 U __ZTVN6icu_5711ReplaceableE
0000000000002c40 S __ZTVN6icu_5713CalendarCacheE
                 U __ZTVN6icu_5713UnicodeStringE
0000000000002d28 S __ZTVN6icu_5716RiseSetCoordFuncE
0000000000002ca8 S __ZTVN6icu_5716SunTimeAngleFuncE
0000000000002d68 S __ZTVN6icu_5717MoonTimeAngleFuncE
0000000000002c60 S __ZTVN6icu_5718CalendarAstronomer9AngleFuncE
0000000000002ce8 S __ZTVN6icu_5718CalendarAstronomer9CoordFuncE
0000000000002da8 S __ZTVN6icu_5720MoonRiseSetCoordFuncE
                 U __ZTVN6icu_577UObjectE
00000000000023e0 T ___clang_call_terminate
                 U ___cxa_begin_catch
                 U ___cxa_pure_virtual
                 U ___gxx_personality_v0
                 U _acos
                 U _asin
                 U _atan
                 U _atan2
                 U _cos
                 U _sin
                 U _tan
                 U _ucln_i18n_registerCleanup_57
                 U _uhash_close_57
                 U _uhash_compareLong_57
                 U _uhash_hashLong_57
                 U _uhash_igeti_57
                 U _uhash_iputi_57
                 U _uhash_openSize_57
                 U _umtx_lock_57
                 U _umtx_unlock_57
                 U _uprv_ceil_57
                 U _uprv_fabs_57
                 U _uprv_floor_57
                 U _uprv_getNaN_57
                 U _uprv_isNaN_57

libicui18n.a(taiwncal.ao):
0000000000000980 s GCC_except_table10
0000000000000954 s GCC_except_table2
00000000000009a0 s GCC_except_table21
                 U __Unwind_Resume
00000000000008e0 t __ZL9U_SUCCESS10UErrorCode
0000000000000600 T __ZN6icu_5713umtx_initOnceERNS_9UInitOnceEPFvvE
0000000000000000 T __ZN6icu_5714TaiwanCalendar16getStaticClassIDEv
0000000000000440 T __ZN6icu_5714TaiwanCalendar19handleComputeFieldsEiR10UErrorCode
00000000000002f0 T __ZN6icu_5714TaiwanCalendar21handleGetExtendedYearEv
00000000000000d0 T __ZN6icu_5714TaiwanCalendarC1ERKNS_6LocaleER10UErrorCode
00000000000001b0 T __ZN6icu_5714TaiwanCalendarC1ERKS0_
0000000000000030 T __ZN6icu_5714TaiwanCalendarC2ERKNS_6LocaleER10UErrorCode
0000000000000170 T __ZN6icu_5714TaiwanCalendarC2ERKS0_
0000000000000140 T __ZN6icu_5714TaiwanCalendarD0Ev
0000000000000120 T __ZN6icu_5714TaiwanCalendarD1Ev
0000000000000100 T __ZN6icu_5714TaiwanCalendarD2Ev
00000000000001e0 T __ZN6icu_5714TaiwanCalendaraSERKS0_
0000000000000860 T __ZN6icu_5716umtx_loadAcquireERNSt3__16atomicIiEE
                 U __ZN6icu_5717GregorianCalendar11getEpochDayER10UErrorCode
                 U __ZN6icu_5717GregorianCalendar19handleComputeFieldsEiR10UErrorCode
                 U __ZN6icu_5717GregorianCalendar22handleComputeJulianDayE19UCalendarDateFields
                 U __ZN6icu_5717GregorianCalendar35handleGetExtendedYearFromWeekFieldsEii
                 U __ZN6icu_5717GregorianCalendar4rollE19UCalendarDateFieldsiR10UErrorCode
                 U __ZN6icu_5717GregorianCalendar4rollENS_8Calendar11EDateFieldsEiR10UErrorCode
                 U __ZN6icu_5717GregorianCalendarC2ERKNS_6LocaleER10UErrorCode
                 U __ZN6icu_5717GregorianCalendarC2ERKS0_
                 U __ZN6icu_5717GregorianCalendarD2Ev
                 U __ZN6icu_5717GregorianCalendaraSERKS0_
                 U __ZN6icu_5720umtx_initImplPreInitERNS_9UInitOnceE
                 U __ZN6icu_5721umtx_initImplPostInitERNS_9UInitOnceE
                 U __ZN6icu_576LocaleC1EPKcS2_S2_S2_
                 U __ZN6icu_576LocaleD1Ev
                 U __ZN6icu_577UMemorydlEPv
                 U __ZN6icu_577UMemorynwEm
                 U __ZN6icu_578Calendar11computeTimeER10UErrorCode
0000000000000510 T __ZN6icu_578Calendar11internalSetE19UCalendarDateFieldsi
                 U __ZN6icu_578Calendar13computeFieldsER10UErrorCode
                 U __ZN6icu_578Calendar13validateFieldE19UCalendarDateFieldsR10UErrorCode
                 U __ZN6icu_578Calendar14setRelatedYearEi
                 U __ZN6icu_578Calendar15fieldDifferenceEd19UCalendarDateFieldsR10UErrorCode
                 U __ZN6icu_578Calendar15fieldDifferenceEdNS0_11EDateFieldsER10UErrorCode
                 U __ZN6icu_578Calendar15setTimeInMillisEdR10UErrorCode
                 U __ZN6icu_578Calendar16prepareGetActualE19UCalendarDateFieldsaR10UErrorCode
                 U __ZN6icu_578Calendar20getDefaultDayInMonthEii
                 U __ZN6icu_578Calendar21getDefaultMonthInYearEi
                 U __ZN6icu_578Calendar3addE19UCalendarDateFieldsiR10UErrorCode
                 U __ZN6icu_578Calendar3addENS0_11EDateFieldsEiR10UErrorCode
                 U __ZN6icu_578Calendar6getNowEv
0000000000000900 T __ZN6icu_578Calendar7setTimeEdR10UErrorCode
                 U __ZN6icu_578Calendar8pinFieldE19UCalendarDateFieldsR10UErrorCode
00000000000013ec b __ZN6icu_57L25gSystemDefaultCenturyInitE
0000000000000bd0 d __ZN6icu_57L26gSystemDefaultCenturyStartE
0000000000000bd8 d __ZN6icu_57L30gSystemDefaultCenturyStartYearE
0000000000000650 t __ZN6icu_57L30initializeSystemDefaultCenturyEv
0000000000000550 T __ZNK6icu_5714TaiwanCalendar14handleGetLimitE19UCalendarDateFieldsNS_8Calendar10ELimitTypeE
0000000000000010 T __ZNK6icu_5714TaiwanCalendar17getDynamicClassIDEv
00000000000005c0 T __ZNK6icu_5714TaiwanCalendar18haveDefaultCenturyEv
00000000000005d0 T __ZNK6icu_5714TaiwanCalendar19defaultCenturyStartEv
0000000000000830 T __ZNK6icu_5714TaiwanCalendar23defaultCenturyStartYearEv
0000000000000220 T __ZNK6icu_5714TaiwanCalendar5cloneEv
00000000000002d0 T __ZNK6icu_5714TaiwanCalendar7getTypeEv
                 U __ZNK6icu_5717GregorianCalendar11monthLengthEi
                 U __ZNK6icu_5717GregorianCalendar11monthLengthEii
                 U __ZNK6icu_5717GregorianCalendar14handleGetLimitE19UCalendarDateFieldsNS_8Calendar10ELimitTypeE
                 U __ZNK6icu_5717GregorianCalendar14inDaylightTimeER10UErrorCode
                 U __ZNK6icu_5717GregorianCalendar14internalGetEraEv
                 U __ZNK6icu_5717GregorianCalendar14isEquivalentToERKNS_8CalendarE
                 U __ZNK6icu_5717GregorianCalendar16getActualMaximumE19UCalendarDateFieldsR10UErrorCode
                 U __ZNK6icu_5717GregorianCalendar16getActualMinimumE19UCalendarDateFieldsR10UErrorCode
                 U __ZNK6icu_5717GregorianCalendar19handleGetYearLengthEi
                 U __ZNK6icu_5717GregorianCalendar20handleGetMonthLengthEii
                 U __ZNK6icu_5717GregorianCalendar23handleComputeMonthStartEiia
                 U __ZNK6icu_578Calendar10getMaximumE19UCalendarDateFields
                 U __ZNK6icu_578Calendar10getMaximumENS0_11EDateFieldsE
                 U __ZNK6icu_578Calendar10getMinimumE19UCalendarDateFields
                 U __ZNK6icu_578Calendar10getMinimumENS0_11EDateFieldsE
                 U __ZNK6icu_578Calendar10newerFieldE19UCalendarDateFieldsS1_
00000000000004f0 T __ZNK6icu_578Calendar11internalGetE19UCalendarDateFields
00000000000003f0 T __ZNK6icu_578Calendar11internalGetE19UCalendarDateFieldsi
                 U __ZNK6icu_578Calendar14getRelatedYearER10UErrorCode
                 U __ZNK6icu_578Calendar15getLeastMaximumE19UCalendarDateFields
                 U __ZNK6icu_578Calendar15getLeastMaximumENS0_11EDateFieldsE
                 U __ZNK6icu_578Calendar15getTimeInMillisER10UErrorCode
                 U __ZNK6icu_578Calendar16getDayOfWeekTypeE19UCalendarDaysOfWeekR10UErrorCode
                 U __ZNK6icu_578Calendar18getGreatestMinimumE19UCalendarDateFields
                 U __ZNK6icu_578Calendar18getGreatestMinimumENS0_11EDateFieldsE
                 U __ZNK6icu_578Calendar20getWeekendTransitionE19UCalendarDaysOfWeekR10UErrorCode
                 U __ZNK6icu_578Calendar23getFieldResolutionTableEv
                 U __ZNK6icu_578Calendar3getE19UCalendarDateFieldsR10UErrorCode
0000000000000930 T __ZNK6icu_578Calendar7getTimeER10UErrorCode
                 U __ZNK6icu_578Calendar8getLimitE19UCalendarDateFieldsNS0_10ELimitTypeE
                 U __ZNK6icu_578Calendar9isWeekendEdR10UErrorCode
                 U __ZNK6icu_578Calendar9isWeekendEv
                 U __ZNK6icu_578CalendareqERKS0_
0000000000000ba0 S __ZTIN6icu_5714TaiwanCalendarE
                 U __ZTIN6icu_5717GregorianCalendarE
0000000000000be0 S __ZTSN6icu_5714TaiwanCalendarE
                 U __ZTVN10__cxxabiv120__si_class_type_infoE
00000000000009e0 S __ZTVN6icu_5714TaiwanCalendarE
00000000000013e8 b __ZZN6icu_5714TaiwanCalendar16getStaticClassIDEvE7classID
                 U ___gxx_personality_v0
                 U ___stack_chk_fail
                 U ___stack_chk_guard

libicui18n.a(buddhcal.ao):
0000000000000900 s GCC_except_table10
00000000000008d4 s GCC_except_table2
0000000000000920 s GCC_except_table22
                 U __Unwind_Resume
0000000000000860 t __ZL9U_SUCCESS10UErrorCode
0000000000000560 T __ZN6icu_5713umtx_initOnceERNS_9UInitOnceEPFvvE
0000000000000000 T __ZN6icu_5716BuddhistCalendar16getStaticClassIDEv
00000000000003f0 T __ZN6icu_5716BuddhistCalendar19handleComputeFieldsEiR10UErrorCode
00000000000002f0 T __ZN6icu_5716BuddhistCalendar21handleGetExtendedYearEv
00000000000000d0 T __ZN6icu_5716BuddhistCalendarC1ERKNS_6LocaleER10UErrorCode
00000000000001b0 T __ZN6icu_5716BuddhistCalendarC1ERKS0_
0000000000000030 T __ZN6icu_5716BuddhistCalendarC2ERKNS_6LocaleER10UErrorCode
0000000000000170 T __ZN6icu_5716BuddhistCalendarC2ERKS0_
0000000000000140 T __ZN6icu_5716BuddhistCalendarD0Ev
0000000000000120 T __ZN6icu_5716BuddhistCalendarD1Ev
0000000000000100 T __ZN6icu_5716BuddhistCalendarD2Ev
00000000000001e0 T __ZN6icu_5716BuddhistCalendaraSERKS0_
00000000000007e0 T __ZN6icu_5716umtx_loadAcquireERNSt3__16atomicIiEE
                 U __ZN6icu_5717GregorianCalendar11getEpochDayER10UErrorCode
                 U __ZN6icu_5717GregorianCalendar19handleComputeFieldsEiR10UErrorCode
                 U __ZN6icu_5717GregorianCalendar22handleComputeJulianDayE19UCalendarDateFields
                 U __ZN6icu_5717GregorianCalendar35handleGetExtendedYearFromWeekFieldsEii
                 U __ZN6icu_5717GregorianCalendar4rollE19UCalendarDateFieldsiR10UErrorCode
                 U __ZN6icu_5717GregorianCalendar4rollENS_8Calendar11EDateFieldsEiR10UErrorCode
                 U __ZN6icu_5717GregorianCalendarC2ERKNS_6LocaleER10UErrorCode
                 U __ZN6icu_5717GregorianCalendarC2ERKS0_
                 U __ZN6icu_5717GregorianCalendarD2Ev
                 U __ZN6icu_5717GregorianCalendaraSERKS0_
                 U __ZN6icu_5720umtx_initImplPreInitERNS_9UInitOnceE
                 U __ZN6icu_5721umtx_initImplPostInitERNS_9UInitOnceE
                 U __ZN6icu_576LocaleC1EPKcS2_S2_S2_
                 U __ZN6icu_576LocaleD1Ev
                 U __ZN6icu_577UMemorydlEPv
                 U __ZN6icu_577UMemorynwEm
                 U __ZN6icu_578Calendar11computeTimeER10UErrorCode
0000000000000490 T __ZN6icu_578Calendar11internalSetE19UCalendarDateFieldsi
                 U __ZN6icu_578Calendar13computeFieldsER10UErrorCode
                 U __ZN6icu_578Calendar13validateFieldE19UCalendarDateFieldsR10UErrorCode
                 U __ZN6icu_578Calendar14setRelatedYearEi
                 U __ZN6icu_578Calendar15fieldDifferenceEd19UCalendarDateFieldsR10UErrorCode
                 U __ZN6icu_578Calendar15fieldDifferenceEdNS0_11EDateFieldsER10UErrorCode
                 U __ZN6icu_578Calendar15setTimeInMillisEdR10UErrorCode
                 U __ZN6icu_578Calendar16prepareGetActualE19UCalendarDateFieldsaR10UErrorCode
                 U __ZN6icu_578Calendar20getDefaultDayInMonthEii
                 U __ZN6icu_578Calendar21getDefaultMonthInYearEi
                 U __ZN6icu_578Calendar3addE19UCalendarDateFieldsiR10UErrorCode
                 U __ZN6icu_578Calendar3addENS0_11EDateFieldsEiR10UErrorCode
                 U __ZN6icu_578Calendar6getNowEv
0000000000000880 T __ZN6icu_578Calendar7setTimeEdR10UErrorCode
                 U __ZN6icu_578Calendar8pinFieldE19UCalendarDateFieldsR10UErrorCode
00000000000013c4 b __ZN6icu_57L11gBCInitOnceE
0000000000000b58 d __ZN6icu_57L26gSystemDefaultCenturyStartE
0000000000000b60 d __ZN6icu_57L30gSystemDefaultCenturyStartYearE
00000000000005b0 t __ZN6icu_57L30initializeSystemDefaultCenturyEv
00000000000004d0 T __ZNK6icu_5716BuddhistCalendar14handleGetLimitE19UCalendarDateFieldsNS_8Calendar10ELimitTypeE
0000000000000010 T __ZNK6icu_5716BuddhistCalendar17getDynamicClassIDEv
0000000000000520 T __ZNK6icu_5716BuddhistCalendar18haveDefaultCenturyEv
0000000000000530 T __ZNK6icu_5716BuddhistCalendar19defaultCenturyStartEv
00000000000007b0 T __ZNK6icu_5716BuddhistCalendar23defaultCenturyStartYearEv
00000000000003c0 T __ZNK6icu_5716BuddhistCalendar23handleComputeMonthStartEiia
0000000000000220 T __ZNK6icu_5716BuddhistCalendar5cloneEv
00000000000002d0 T __ZNK6icu_5716BuddhistCalendar7getTypeEv
                 U __ZNK6icu_5717GregorianCalendar11monthLengthEi
                 U __ZNK6icu_5717GregorianCalendar11monthLengthEii
                 U __ZNK6icu_5717GregorianCalendar14handleGetLimitE19UCalendarDateFieldsNS_8Calendar10ELimitTypeE
                 U __ZNK6icu_5717GregorianCalendar14inDaylightTimeER10UErrorCode
                 U __ZNK6icu_5717GregorianCalendar14internalGetEraEv
                 U __ZNK6icu_5717GregorianCalendar14isEquivalentToERKNS_8CalendarE
                 U __ZNK6icu_5717GregorianCalendar16getActualMaximumE19UCalendarDateFieldsR10UErrorCode
                 U __ZNK6icu_5717GregorianCalendar16getActualMinimumE19UCalendarDateFieldsR10UErrorCode
                 U __ZNK6icu_5717GregorianCalendar19handleGetYearLengthEi
                 U __ZNK6icu_5717GregorianCalendar20handleGetMonthLengthEii
                 U __ZNK6icu_5717GregorianCalendar23handleComputeMonthStartEiia
                 U __ZNK6icu_578Calendar10getMaximumE19UCalendarDateFields
                 U __ZNK6icu_578Calendar10getMaximumENS0_11EDateFieldsE
                 U __ZNK6icu_578Calendar10getMinimumE19UCalendarDateFields
                 U __ZNK6icu_578Calendar10getMinimumENS0_11EDateFieldsE
                 U __ZNK6icu_578Calendar10newerFieldE19UCalendarDateFieldsS1_
0000000000000470 T __ZNK6icu_578Calendar11internalGetE19UCalendarDateFields
0000000000000370 T __ZNK6icu_578Calendar11internalGetE19UCalendarDateFieldsi
                 U __ZNK6icu_578Calendar14getRelatedYearER10UErrorCode
                 U __ZNK6icu_578Calendar15getLeastMaximumE19UCalendarDateFields
                 U __ZNK6icu_578Calendar15getLeastMaximumENS0_11EDateFieldsE
                 U __ZNK6icu_578Calendar15getTimeInMillisER10UErrorCode
                 U __ZNK6icu_578Calendar16getDayOfWeekTypeE19UCalendarDaysOfWeekR10UErrorCode
                 U __ZNK6icu_578Calendar18getGreatestMinimumE19UCalendarDateFields
                 U __ZNK6icu_578Calendar18getGreatestMinimumENS0_11EDateFieldsE
                 U __ZNK6icu_578Calendar20getWeekendTransitionE19UCalendarDaysOfWeekR10UErrorCode
                 U __ZNK6icu_578Calendar23getFieldResolutionTableEv
                 U __ZNK6icu_578Calendar3getE19UCalendarDateFieldsR10UErrorCode
00000000000008b0 T __ZNK6icu_578Calendar7getTimeER10UErrorCode
                 U __ZNK6icu_578Calendar8getLimitE19UCalendarDateFieldsNS0_10ELimitTypeE
                 U __ZNK6icu_578Calendar9isWeekendEdR10UErrorCode
                 U __ZNK6icu_578Calendar9isWeekendEv
                 U __ZNK6icu_578CalendareqERKS0_
0000000000000b20 S __ZTIN6icu_5716BuddhistCalendarE
                 U __ZTIN6icu_5717GregorianCalendarE
0000000000000b70 S __ZTSN6icu_5716BuddhistCalendarE
                 U __ZTVN10__cxxabiv120__si_class_type_infoE
0000000000000960 S __ZTVN6icu_5716BuddhistCalendarE
00000000000013c0 b __ZZN6icu_5716BuddhistCalendar16getStaticClassIDEvE7classID
                 U ___gxx_personality_v0
                 U ___stack_chk_fail
                 U ___stack_chk_guard

libicui18n.a(persncal.ao):
0000000000000c04 s GCC_except_table1
0000000000000c50 s GCC_except_table27
0000000000000c24 s GCC_except_table3
                 U __Unwind_Resume
0000000000001000 s __ZL15kPersianNumDays
0000000000000fec s __ZL19kPersianMonthLength
0000000000000e70 s __ZL22kPersianCalendarLimits
0000000000000fe0 s __ZL23kPersianLeapMonthLength
0000000000000800 t __ZL9U_FAILURE10UErrorCode
0000000000000820 t __ZL9U_SUCCESS10UErrorCode
00000000000008a0 T __ZN6icu_5713umtx_initOnceERNS_9UInitOnceEPFvvE
00000000000002b0 T __ZN6icu_5715PersianCalendar10isLeapYearEi
0000000000000b00 T __ZN6icu_5715PersianCalendar16getStaticClassIDEv
00000000000005a0 T __ZN6icu_5715PersianCalendar19handleComputeFieldsEiR10UErrorCode
00000000000004d0 T __ZN6icu_5715PersianCalendar21handleGetExtendedYearEv
00000000000002f0 T __ZN6icu_5715PersianCalendar9yearStartEi
00000000000001a0 T __ZN6icu_5715PersianCalendarC1ERKNS_6LocaleER10UErrorCode
00000000000000d0 T __ZN6icu_5715PersianCalendarC1ERKS0_
0000000000000100 T __ZN6icu_5715PersianCalendarC2ERKNS_6LocaleER10UErrorCode
00000000000001d0 T __ZN6icu_5715PersianCalendarC2ERKS0_
0000000000000250 T __ZN6icu_5715PersianCalendarD0Ev
0000000000000230 T __ZN6icu_5715PersianCalendarD1Ev
0000000000000210 T __ZN6icu_5715PersianCalendarD2Ev
0000000000000b30 T __ZN6icu_5716umtx_loadAcquireERNSt3__16atomicIiEE
                 U __ZN6icu_5720umtx_initImplPreInitERNS_9UInitOnceE
                 U __ZN6icu_5721umtx_initImplPostInitERNS_9UInitOnceE
                 U __ZN6icu_576LocaleC1EPKcS2_S2_S2_
                 U __ZN6icu_576LocaleD1Ev
                 U __ZN6icu_577UMemorydlEPv
                 U __ZN6icu_577UMemorynwEm
                 U __ZN6icu_578Calendar11computeTimeER10UErrorCode
0000000000000700 T __ZN6icu_578Calendar11internalSetE19UCalendarDateFieldsi
                 U __ZN6icu_578Calendar13computeFieldsER10UErrorCode
                 U __ZN6icu_578Calendar13validateFieldE19UCalendarDateFieldsR10UErrorCode
                 U __ZN6icu_578Calendar14setRelatedYearEi
                 U __ZN6icu_578Calendar15fieldDifferenceEd19UCalendarDateFieldsR10UErrorCode
                 U __ZN6icu_578Calendar15fieldDifferenceEdNS0_11EDateFieldsER10UErrorCode
                 U __ZN6icu_578Calendar15setTimeInMillisEdR10UErrorCode
                 U __ZN6icu_578Calendar16prepareGetActualE19UCalendarDateFieldsaR10UErrorCode
                 U __ZN6icu_578Calendar20getDefaultDayInMonthEii
                 U __ZN6icu_578Calendar21getDefaultMonthInYearEi
                 U __ZN6icu_578Calendar22handleComputeJulianDayE19UCalendarDateFields
                 U __ZN6icu_578Calendar35handleGetExtendedYearFromWeekFieldsEii
                 U __ZN6icu_578Calendar3addE19UCalendarDateFieldsiR10UErrorCode
                 U __ZN6icu_578Calendar3addENS0_11EDateFieldsEiR10UErrorCode
                 U __ZN6icu_578Calendar4rollE19UCalendarDateFieldsiR10UErrorCode
                 U __ZN6icu_578Calendar4rollENS0_11EDateFieldsEiR10UErrorCode
                 U __ZN6icu_578Calendar6getNowEv
0000000000000bb0 T __ZN6icu_578Calendar7setTimeEdR10UErrorCode
                 U __ZN6icu_578Calendar8completeER10UErrorCode
                 U __ZN6icu_578Calendar8pinFieldE19UCalendarDateFieldsR10UErrorCode
                 U __ZN6icu_578CalendarC2EPNS_8TimeZoneERKNS_6LocaleER10UErrorCode
                 U __ZN6icu_578CalendarC2ERKS0_
                 U __ZN6icu_578CalendarD2Ev
                 U __ZN6icu_578TimeZone13createDefaultEv
                 U __ZN6icu_579ClockMath11floorDivideEdiRi
                 U __ZN6icu_579ClockMath11floorDivideEii
0000000000001a34 b __ZN6icu_57L25gSystemDefaultCenturyInitE
0000000000001040 d __ZN6icu_57L26gSystemDefaultCenturyStartE
0000000000001048 d __ZN6icu_57L30gSystemDefaultCenturyStartYearE
00000000000008f0 t __ZN6icu_57L30initializeSystemDefaultCenturyEv
0000000000000330 T __ZNK6icu_5715PersianCalendar10monthStartEii
0000000000000280 T __ZNK6icu_5715PersianCalendar14handleGetLimitE19UCalendarDateFieldsNS_8Calendar10ELimitTypeE
0000000000000740 T __ZNK6icu_5715PersianCalendar14inDaylightTimeER10UErrorCode
0000000000000b10 T __ZNK6icu_5715PersianCalendar17getDynamicClassIDEv
0000000000000860 T __ZNK6icu_5715PersianCalendar18haveDefaultCenturyEv
0000000000000870 T __ZNK6icu_5715PersianCalendar19defaultCenturyStartEv
0000000000000400 T __ZNK6icu_5715PersianCalendar19handleGetYearLengthEi
0000000000000370 T __ZNK6icu_5715PersianCalendar20handleGetMonthLengthEii
0000000000000ad0 T __ZNK6icu_5715PersianCalendar23defaultCenturyStartYearEv
0000000000000430 T __ZNK6icu_5715PersianCalendar23handleComputeMonthStartEiia
0000000000000020 T __ZNK6icu_5715PersianCalendar5cloneEv
0000000000000000 T __ZNK6icu_5715PersianCalendar7getTypeEv
                 U __ZNK6icu_578Calendar10getMaximumE19UCalendarDateFields
                 U __ZNK6icu_578Calendar10getMaximumENS0_11EDateFieldsE
                 U __ZNK6icu_578Calendar10getMinimumE19UCalendarDateFields
                 U __ZNK6icu_578Calendar10getMinimumENS0_11EDateFieldsE
                 U __ZNK6icu_578Calendar10newerFieldE19UCalendarDateFieldsS1_
                 U __ZNK6icu_578Calendar11getTimeZoneEv
0000000000000840 T __ZNK6icu_578Calendar11internalGetE19UCalendarDateFields
0000000000000550 T __ZNK6icu_578Calendar11internalGetE19UCalendarDateFieldsi
                 U __ZNK6icu_578Calendar14getRelatedYearER10UErrorCode
                 U __ZNK6icu_578Calendar14isEquivalentToERKS0_
                 U __ZNK6icu_578Calendar15getLeastMaximumE19UCalendarDateFields
                 U __ZNK6icu_578Calendar15getLeastMaximumENS0_11EDateFieldsE
                 U __ZNK6icu_578Calendar15getTimeInMillisER10UErrorCode
                 U __ZNK6icu_578Calendar16getActualMaximumE19UCalendarDateFieldsR10UErrorCode
                 U __ZNK6icu_578Calendar16getActualMinimumE19UCalendarDateFieldsR10UErrorCode
                 U __ZNK6icu_578Calendar16getDayOfWeekTypeE19UCalendarDaysOfWeekR10UErrorCode
                 U __ZNK6icu_578Calendar18getGreatestMinimumE19UCalendarDateFields
                 U __ZNK6icu_578Calendar18getGreatestMinimumENS0_11EDateFieldsE
                 U __ZNK6icu_578Calendar20getWeekendTransitionE19UCalendarDaysOfWeekR10UErrorCode
                 U __ZNK6icu_578Calendar23getFieldResolutionTableEv
                 U __ZNK6icu_578Calendar3getE19UCalendarDateFieldsR10UErrorCode
0000000000000be0 T __ZNK6icu_578Calendar7getTimeER10UErrorCode
                 U __ZNK6icu_578Calendar8getLimitE19UCalendarDateFieldsNS0_10ELimitTypeE
                 U __ZNK6icu_578Calendar9isWeekendEdR10UErrorCode
                 U __ZNK6icu_578Calendar9isWeekendEv
                 U __ZNK6icu_578CalendareqERKS0_
0000000000000e50 S __ZTIN6icu_5715PersianCalendarE
                 U __ZTIN6icu_578CalendarE
0000000000001020 S __ZTSN6icu_5715PersianCalendarE
                 U __ZTVN10__cxxabiv120__si_class_type_infoE
0000000000000cb0 S __ZTVN6icu_5715PersianCalendarE
0000000000001a30 b __ZZN6icu_5715PersianCalendar16getStaticClassIDEvE7classID
                 U ___gxx_personality_v0
                 U ___stack_chk_fail
                 U ___stack_chk_guard

libicui18n.a(islamcal.ao):
0000000000001924 s GCC_except_table17
00000000000018d8 s GCC_except_table2
0000000000001950 s GCC_except_table35
00000000000018f8 s GCC_except_table4
                 U __Unwind_Resume
0000000000002fe0 b __ZL11gMonthCache
0000000000002fe8 b __ZL21gIslamicCalendarAstro
0000000000000a70 t __ZL24calendar_islamic_cleanupv
0000000000000a20 t __ZL9U_FAILURE10UErrorCode
00000000000014e0 t __ZL9U_SUCCESS10UErrorCode
0000000000002368 d __ZL9astroLock
                 U __ZN6icu_5713CalendarCache3getEPPS0_iR10UErrorCode
                 U __ZN6icu_5713CalendarCache3putEPPS0_iiR10UErrorCode
0000000000001560 T __ZN6icu_5713umtx_initOnceERNS_9UInitOnceEPFvvE
0000000000000450 T __ZN6icu_5715IslamicCalendar13civilLeapYearEi
0000000000001830 T __ZN6icu_5715IslamicCalendar16getStaticClassIDEv
0000000000000390 T __ZN6icu_5715IslamicCalendar18setCalculationTypeENS0_16ECalculationTypeER10UErrorCode
0000000000000ee0 T __ZN6icu_5715IslamicCalendar19handleComputeFieldsEiR10UErrorCode
0000000000000e10 T __ZN6icu_5715IslamicCalendar21handleGetExtendedYearEv
00000000000015b0 T __ZN6icu_5715IslamicCalendar30initializeSystemDefaultCenturyEv
0000000000000400 T __ZN6icu_5715IslamicCalendar7isCivilEv
0000000000000890 T __ZN6icu_5715IslamicCalendar7moonAgeEdR10UErrorCode
0000000000000290 T __ZN6icu_5715IslamicCalendarC1ERKNS_6LocaleER10UErrorCodeNS0_16ECalculationTypeE
00000000000001c0 T __ZN6icu_5715IslamicCalendarC1ERKS0_
00000000000001f0 T __ZN6icu_5715IslamicCalendarC2ERKNS_6LocaleER10UErrorCodeNS0_16ECalculationTypeE
00000000000002d0 T __ZN6icu_5715IslamicCalendarC2ERKS0_
0000000000000360 T __ZN6icu_5715IslamicCalendarD0Ev
0000000000000340 T __ZN6icu_5715IslamicCalendarD1Ev
0000000000000320 T __ZN6icu_5715IslamicCalendarD2Ev
0000000000001860 T __ZN6icu_5716umtx_loadAcquireERNSt3__16atomicIiEE
                 U __ZN6icu_5718CalendarAstronomer10getMoonAgeEv
                 U __ZN6icu_5718CalendarAstronomer13SYNODIC_MONTHE
                 U __ZN6icu_5718CalendarAstronomer2PIE
                 U __ZN6icu_5718CalendarAstronomer7setTimeEd
                 U __ZN6icu_5718CalendarAstronomerC1Ev
                 U __ZN6icu_5718CalendarAstronomerD1Ev
                 U __ZN6icu_5720umtx_initImplPreInitERNS_9UInitOnceE
                 U __ZN6icu_5721umtx_initImplPostInitERNS_9UInitOnceE
0000000000000000 T __ZN6icu_5723getUmalqura_MonthLengthEii
                 U __ZN6icu_576LocaleC1EPKcS2_S2_S2_
                 U __ZN6icu_576LocaleD1Ev
                 U __ZN6icu_577UMemorydlEPv
                 U __ZN6icu_577UMemorynwEm
                 U __ZN6icu_578Calendar11computeTimeER10UErrorCode
00000000000013e0 T __ZN6icu_578Calendar11internalSetE19UCalendarDateFieldsi
                 U __ZN6icu_578Calendar13computeFieldsER10UErrorCode
                 U __ZN6icu_578Calendar13validateFieldE19UCalendarDateFieldsR10UErrorCode
                 U __ZN6icu_578Calendar14setRelatedYearEi
                 U __ZN6icu_578Calendar15fieldDifferenceEd19UCalendarDateFieldsR10UErrorCode
                 U __ZN6icu_578Calendar15fieldDifferenceEdNS0_11EDateFieldsER10UErrorCode
                 U __ZN6icu_578Calendar15setTimeInMillisEdR10UErrorCode
                 U __ZN6icu_578Calendar16prepareGetActualE19UCalendarDateFieldsaR10UErrorCode
                 U __ZN6icu_578Calendar20getDefaultDayInMonthEii
                 U __ZN6icu_578Calendar21getDefaultMonthInYearEi
                 U __ZN6icu_578Calendar22handleComputeJulianDayE19UCalendarDateFields
                 U __ZN6icu_578Calendar35handleGetExtendedYearFromWeekFieldsEii
                 U __ZN6icu_578Calendar3addE19UCalendarDateFieldsiR10UErrorCode
                 U __ZN6icu_578Calendar3addENS0_11EDateFieldsEiR10UErrorCode
                 U __ZN6icu_578Calendar4rollE19UCalendarDateFieldsiR10UErrorCode
                 U __ZN6icu_578Calendar4rollENS0_11EDateFieldsEiR10UErrorCode
                 U __ZN6icu_578Calendar5clearEv
                 U __ZN6icu_578Calendar6getNowEv
00000000000017d0 T __ZN6icu_578Calendar7setTimeEdR10UErrorCode
                 U __ZN6icu_578Calendar8completeER10UErrorCode
                 U __ZN6icu_578Calendar8pinFieldE19UCalendarDateFieldsR10UErrorCode
                 U __ZN6icu_578CalendarC2EPNS_8TimeZoneERKNS_6LocaleER10UErrorCode
                 U __ZN6icu_578CalendarC2ERKS0_
                 U __ZN6icu_578CalendarD2Ev
                 U __ZN6icu_578TimeZone13createDefaultEv
0000000000000a40 T __ZN6icu_579ClockMath11floorDivideEdd
                 U __ZN6icu_579ClockMath11floorDivideEii
00000000000019e0 s __ZN6icu_57L20UMALQURA_MONTHLENGTHE
0000000000002ff4 b __ZN6icu_57L25gSystemDefaultCenturyInitE
00000000000023a8 d __ZN6icu_57L26gSystemDefaultCenturyStartE
0000000000002010 s __ZN6icu_57L26umAlQuraYrStartEstimateFixE
00000000000023b0 d __ZN6icu_57L30gSystemDefaultCenturyStartYearE
0000000000001ea0 s __ZN6icu_57L6LIMITSE
0000000000000770 T __ZNK6icu_5715IslamicCalendar10monthStartEii
0000000000000420 T __ZNK6icu_5715IslamicCalendar14handleGetLimitE19UCalendarDateFieldsNS_8Calendar10ELimitTypeE
0000000000001420 T __ZNK6icu_5715IslamicCalendar14inDaylightTimeER10UErrorCode
00000000000005a0 T __ZNK6icu_5715IslamicCalendar14trueMonthStartEi
0000000000001840 T __ZNK6icu_5715IslamicCalendar17getDynamicClassIDEv
0000000000001520 T __ZNK6icu_5715IslamicCalendar18haveDefaultCenturyEv
0000000000001530 T __ZNK6icu_5715IslamicCalendar19defaultCenturyStartEv
0000000000000c20 T __ZNK6icu_5715IslamicCalendar19handleGetYearLengthEi
0000000000000b00 T __ZNK6icu_5715IslamicCalendar20handleGetMonthLengthEii
00000000000017a0 T __ZNK6icu_5715IslamicCalendar23defaultCenturyStartYearEv
0000000000000d40 T __ZNK6icu_5715IslamicCalendar23handleComputeMonthStartEiia
0000000000000110 T __ZNK6icu_5715IslamicCalendar5cloneEv
0000000000000060 T __ZNK6icu_5715IslamicCalendar7getTypeEv
0000000000000480 T __ZNK6icu_5715IslamicCalendar9yearStartEi
                 U __ZNK6icu_578Calendar10getMaximumE19UCalendarDateFields
                 U __ZNK6icu_578Calendar10getMaximumENS0_11EDateFieldsE
                 U __ZNK6icu_578Calendar10getMinimumE19UCalendarDateFields
                 U __ZNK6icu_578Calendar10getMinimumENS0_11EDateFieldsE
                 U __ZNK6icu_578Calendar10newerFieldE19UCalendarDateFieldsS1_
                 U __ZNK6icu_578Calendar11getTimeZoneEv
0000000000001500 T __ZNK6icu_578Calendar11internalGetE19UCalendarDateFields
0000000000000e90 T __ZNK6icu_578Calendar11internalGetE19UCalendarDateFieldsi
                 U __ZNK6icu_578Calendar14getRelatedYearER10UErrorCode
                 U __ZNK6icu_578Calendar14isEquivalentToERKS0_
                 U __ZNK6icu_578Calendar15getLeastMaximumE19UCalendarDateFields
                 U __ZNK6icu_578Calendar15getLeastMaximumENS0_11EDateFieldsE
                 U __ZNK6icu_578Calendar15getTimeInMillisER10UErrorCode
00000000000013c0 T __ZNK6icu_578Calendar15internalGetTimeEv
                 U __ZNK6icu_578Calendar16getActualMaximumE19UCalendarDateFieldsR10UErrorCode
                 U __ZNK6icu_578Calendar16getActualMinimumE19UCalendarDateFieldsR10UErrorCode
                 U __ZNK6icu_578Calendar16getDayOfWeekTypeE19UCalendarDaysOfWeekR10UErrorCode
                 U __ZNK6icu_578Calendar18getGreatestMinimumE19UCalendarDateFields
                 U __ZNK6icu_578Calendar18getGreatestMinimumENS0_11EDateFieldsE
                 U __ZNK6icu_578Calendar20getWeekendTransitionE19UCalendarDaysOfWeekR10UErrorCode
                 U __ZNK6icu_578Calendar23getFieldResolutionTableEv
                 U __ZNK6icu_578Calendar3getE19UCalendarDateFieldsR10UErrorCode
0000000000001800 T __ZNK6icu_578Calendar7getTimeER10UErrorCode
                 U __ZNK6icu_578Calendar8getLimitE19UCalendarDateFieldsNS0_10ELimitTypeE
                 U __ZNK6icu_578Calendar9isWeekendEdR10UErrorCode
                 U __ZNK6icu_578Calendar9isWeekendEv
                 U __ZNK6icu_578CalendareqERKS0_
0000000000002350 S __ZTIN6icu_5715IslamicCalendarE
                 U __ZTIN6icu_578CalendarE
0000000000002140 S __ZTSN6icu_5715IslamicCalendarE
                 U __ZTVN10__cxxabiv120__si_class_type_infoE
00000000000021b0 S __ZTVN6icu_5715IslamicCalendarE
0000000000002ff0 b __ZZN6icu_5715IslamicCalendar16getStaticClassIDEvE7classID
                 U ___gxx_personality_v0
                 U ___stack_chk_fail
                 U ___stack_chk_guard
                 U _ucln_i18n_registerCleanup_57
                 U _umtx_lock_57
                 U _umtx_unlock_57
                 U _uprv_ceil_57
                 U _uprv_floor_57

libicui18n.a(japancal.ao):
00000000000009d4 s GCC_except_table11
00000000000009a8 s GCC_except_table3
                 U __Unwind_Resume
0000000000000990 t __ZL9U_FAILURE10UErrorCode
0000000000000030 T __ZN6icu_5716JapaneseCalendar13getCurrentEraEv
0000000000000000 T __ZN6icu_5716JapaneseCalendar16getStaticClassIDEv
0000000000000550 T __ZN6icu_5716JapaneseCalendar19handleComputeFieldsEiR10UErrorCode
0000000000000370 T __ZN6icu_5716JapaneseCalendar20getDefaultDayInMonthEii
0000000000000300 T __ZN6icu_5716JapaneseCalendar21getDefaultMonthInYearEi
0000000000000480 T __ZN6icu_5716JapaneseCalendar21handleGetExtendedYearEv
00000000000000e0 T __ZN6icu_5716JapaneseCalendarC1ERKNS_6LocaleER10UErrorCode
00000000000001c0 T __ZN6icu_5716JapaneseCalendarC1ERKS0_
0000000000000040 T __ZN6icu_5716JapaneseCalendarC2ERKNS_6LocaleER10UErrorCode
0000000000000180 T __ZN6icu_5716JapaneseCalendarC2ERKS0_
0000000000000150 T __ZN6icu_5716JapaneseCalendarD0Ev
0000000000000130 T __ZN6icu_5716JapaneseCalendarD1Ev
0000000000000110 T __ZN6icu_5716JapaneseCalendarD2Ev
00000000000001f0 T __ZN6icu_5716JapaneseCalendaraSERKS0_
                 U __ZN6icu_5717GregorianCalendar11getEpochDayER10UErrorCode
                 U __ZN6icu_5717GregorianCalendar19handleComputeFieldsEiR10UErrorCode
                 U __ZN6icu_5717GregorianCalendar22handleComputeJulianDayE19UCalendarDateFields
                 U __ZN6icu_5717GregorianCalendar35handleGetExtendedYearFromWeekFieldsEii
                 U __ZN6icu_5717GregorianCalendar4rollE19UCalendarDateFieldsiR10UErrorCode
                 U __ZN6icu_5717GregorianCalendar4rollENS_8Calendar11EDateFieldsEiR10UErrorCode
                 U __ZN6icu_5717GregorianCalendarC2ERKNS_6LocaleER10UErrorCode
                 U __ZN6icu_5717GregorianCalendarC2ERKS0_
                 U __ZN6icu_5717GregorianCalendarD2Ev
                 U __ZN6icu_5717GregorianCalendaraSERKS0_
                 U __ZN6icu_577UMemorydlEPv
                 U __ZN6icu_577UMemorynwEm
                 U __ZN6icu_578Calendar11computeTimeER10UErrorCode
00000000000006d0 T __ZN6icu_578Calendar11internalSetE19UCalendarDateFieldsi
                 U __ZN6icu_578Calendar13computeFieldsER10UErrorCode
                 U __ZN6icu_578Calendar13validateFieldE19UCalendarDateFieldsR10UErrorCode
                 U __ZN6icu_578Calendar14setRelatedYearEi
                 U __ZN6icu_578Calendar15fieldDifferenceEd19UCalendarDateFieldsR10UErrorCode
                 U __ZN6icu_578Calendar15fieldDifferenceEdNS0_11EDateFieldsER10UErrorCode
                 U __ZN6icu_578Calendar15setTimeInMillisEdR10UErrorCode
                 U __ZN6icu_578Calendar16prepareGetActualE19UCalendarDateFieldsaR10UErrorCode
                 U __ZN6icu_578Calendar3addE19UCalendarDateFieldsiR10UErrorCode
                 U __ZN6icu_578Calendar3addENS0_11EDateFieldsEiR10UErrorCode
                 U __ZN6icu_578Calendar6getNowEv
                 U __ZN6icu_578Calendar8pinFieldE19UCalendarDateFieldsR10UErrorCode
0000000000000bf0 s __ZN6icu_57L8kEraInfoE
0000000000000750 T __ZNK6icu_5716JapaneseCalendar14handleGetLimitE19UCalendarDateFieldsNS_8Calendar10ELimitTypeE
0000000000000400 T __ZNK6icu_5716JapaneseCalendar14internalGetEraEv
0000000000000870 T __ZNK6icu_5716JapaneseCalendar16getActualMaximumE19UCalendarDateFieldsR10UErrorCode
0000000000000010 T __ZNK6icu_5716JapaneseCalendar17getDynamicClassIDEv
0000000000000710 T __ZNK6icu_5716JapaneseCalendar18haveDefaultCenturyEv
0000000000000730 T __ZNK6icu_5716JapaneseCalendar19defaultCenturyStartEv
0000000000000740 T __ZNK6icu_5716JapaneseCalendar23defaultCenturyStartYearEv
0000000000000230 T __ZNK6icu_5716JapaneseCalendar5cloneEv
00000000000002e0 T __ZNK6icu_5716JapaneseCalendar7getTypeEv
                 U __ZNK6icu_5717GregorianCalendar11monthLengthEi
                 U __ZNK6icu_5717GregorianCalendar11monthLengthEii
                 U __ZNK6icu_5717GregorianCalendar14handleGetLimitE19UCalendarDateFieldsNS_8Calendar10ELimitTypeE
                 U __ZNK6icu_5717GregorianCalendar14inDaylightTimeER10UErrorCode
                 U __ZNK6icu_5717GregorianCalendar14isEquivalentToERKNS_8CalendarE
                 U __ZNK6icu_5717GregorianCalendar16getActualMaximumE19UCalendarDateFieldsR10UErrorCode
                 U __ZNK6icu_5717GregorianCalendar16getActualMinimumE19UCalendarDateFieldsR10UErrorCode
                 U __ZNK6icu_5717GregorianCalendar19handleGetYearLengthEi
                 U __ZNK6icu_5717GregorianCalendar20handleGetMonthLengthEii
                 U __ZNK6icu_5717GregorianCalendar23handleComputeMonthStartEiia
                 U __ZNK6icu_578Calendar10getMaximumE19UCalendarDateFields
                 U __ZNK6icu_578Calendar10getMaximumENS0_11EDateFieldsE
                 U __ZNK6icu_578Calendar10getMinimumE19UCalendarDateFields
                 U __ZNK6icu_578Calendar10getMinimumENS0_11EDateFieldsE
                 U __ZNK6icu_578Calendar10newerFieldE19UCalendarDateFieldsS1_
0000000000000530 T __ZNK6icu_578Calendar11internalGetE19UCalendarDateFields
0000000000000430 T __ZNK6icu_578Calendar11internalGetE19UCalendarDateFieldsi
                 U __ZNK6icu_578Calendar14getRelatedYearER10UErrorCode
                 U __ZNK6icu_578Calendar15getLeastMaximumE19UCalendarDateFields
                 U __ZNK6icu_578Calendar15getLeastMaximumENS0_11EDateFieldsE
                 U __ZNK6icu_578Calendar16getDayOfWeekTypeE19UCalendarDaysOfWeekR10UErrorCode
                 U __ZNK6icu_578Calendar18getGreatestMinimumE19UCalendarDateFields
                 U __ZNK6icu_578Calendar18getGreatestMinimumENS0_11EDateFieldsE
                 U __ZNK6icu_578Calendar20getWeekendTransitionE19UCalendarDaysOfWeekR10UErrorCode
                 U __ZNK6icu_578Calendar23getFieldResolutionTableEv
                 U __ZNK6icu_578Calendar3getE19UCalendarDateFieldsR10UErrorCode
                 U __ZNK6icu_578Calendar8getLimitE19UCalendarDateFieldsNS0_10ELimitTypeE
                 U __ZNK6icu_578Calendar9isWeekendEdR10UErrorCode
                 U __ZNK6icu_578Calendar9isWeekendEv
                 U __ZNK6icu_578CalendareqERKS0_
0000000000000bc0 S __ZTIN6icu_5716JapaneseCalendarE
                 U __ZTIN6icu_5717GregorianCalendarE
0000000000000fa0 S __ZTSN6icu_5716JapaneseCalendarE
                 U __ZTVN10__cxxabiv120__si_class_type_infoE
0000000000000a00 S __ZTVN6icu_5716JapaneseCalendarE
00000000000017a0 b __ZZN6icu_5716JapaneseCalendar16getStaticClassIDEvE7classID
                 U ___gxx_personality_v0

libicui18n.a(gregoimp.ao):
0000000000000cb0 s GCC_except_table14
00000000000009e0 t __ZL9U_FAILURE10UErrorCode
0000000000000910 T __ZN6icu_5712CalendarData8getByKeyEPKcR10UErrorCode
0000000000000730 T __ZN6icu_5712CalendarData8initDataEPKcS2_R10UErrorCode
0000000000000a00 T __ZN6icu_5712CalendarData9getByKey2EPKcS2_R10UErrorCode
0000000000000b40 T __ZN6icu_5712CalendarData9getByKey3EPKcS2_S2_R10UErrorCode
0000000000000830 T __ZN6icu_5712CalendarDataC1ERKNS_6LocaleEPKcR10UErrorCode
00000000000006c0 T __ZN6icu_5712CalendarDataC2ERKNS_6LocaleEPKcR10UErrorCode
00000000000008f0 T __ZN6icu_5712CalendarDataD1Ev
0000000000000870 T __ZN6icu_5712CalendarDataD2Ev
0000000000000290 T __ZN6icu_575Grego10isLeapYearEi
0000000000000cd0 S __ZN6icu_575Grego11DAYS_BEFOREE
0000000000000300 T __ZN6icu_575Grego11dayToFieldsEdRiS1_S1_S1_S1_
00000000000001c0 T __ZN6icu_575Grego11fieldsToDayEiii
0000000000000670 T __ZN6icu_575Grego11monthLengthEii
0000000000000d00 S __ZN6icu_575Grego12MONTH_LENGTHE
0000000000000500 T __ZN6icu_575Grego12timeToFieldsEdRiS1_S1_S1_S1_S1_
00000000000005e0 T __ZN6icu_575Grego16dayOfWeekInMonthEiii
0000000000000580 T __ZN6icu_575Grego9dayOfWeekEd
0000000000000190 T __ZN6icu_579ClockMath11floorDivideEdd
00000000000000a0 T __ZN6icu_579ClockMath11floorDivideEddRd
0000000000000040 T __ZN6icu_579ClockMath11floorDivideEdiRi
0000000000000000 T __ZN6icu_579ClockMath11floorDivideEii
                 U __ZNK6icu_576Locale11getBaseNameEv
                 U __ZSt9terminatev
00000000000008e0 T ___clang_call_terminate
                 U ___cxa_begin_catch
                 U ___gxx_personality_v0
                 U _strcmp
                 U _uprv_floor_57
                 U _uprv_fmod_57
                 U _ures_close_57
                 U _ures_getByKeyWithFallback_57
                 U _ures_getByKey_57
                 U _ures_open_57

libicui18n.a(hebrwcal.ao):
0000000000001564 s GCC_except_table0
00000000000015b0 s GCC_except_table35
0000000000001590 s GCC_except_table6
                 U __Unwind_Resume
00000000000019f0 s __ZL11MONTH_START
0000000000001960 s __ZL12MONTH_LENGTH
0000000000001990 s __ZL16LEAP_MONTH_START
00000000000008c0 t __ZL23calendar_hebrew_cleanupv
00000000000017f0 s __ZL6LIMITS
00000000000026a0 b __ZL6gCache
0000000000000460 t __ZL9U_FAILURE10UErrorCode
00000000000011a0 t __ZL9U_SUCCESS10UErrorCode
                 U __ZN6icu_5713CalendarCache3getEPPS0_iR10UErrorCode
                 U __ZN6icu_5713CalendarCache3putEPPS0_iiR10UErrorCode
0000000000001200 T __ZN6icu_5713umtx_initOnceERNS_9UInitOnceEPFvvE
0000000000000480 T __ZN6icu_5714HebrewCalendar10isLeapYearEi
0000000000000720 T __ZN6icu_5714HebrewCalendar11startOfYearEiR10UErrorCode
00000000000006a0 T __ZN6icu_5714HebrewCalendar12monthsInYearEi
0000000000000b50 T __ZN6icu_5714HebrewCalendar13validateFieldE19UCalendarDateFieldsR10UErrorCode
0000000000001460 T __ZN6icu_5714HebrewCalendar16getStaticClassIDEv
0000000000000c00 T __ZN6icu_5714HebrewCalendar19handleComputeFieldsEiR10UErrorCode
0000000000000ec0 T __ZN6icu_5714HebrewCalendar21handleGetExtendedYearEv
0000000000000900 T __ZN6icu_5714HebrewCalendar22absoluteDayToDayOfWeekEi
0000000000000280 T __ZN6icu_5714HebrewCalendar3addE19UCalendarDateFieldsiR10UErrorCode
00000000000004d0 T __ZN6icu_5714HebrewCalendar3addENS_8Calendar11EDateFieldsEiR10UErrorCode
0000000000000520 T __ZN6icu_5714HebrewCalendar4rollE19UCalendarDateFieldsiR10UErrorCode
00000000000006d0 T __ZN6icu_5714HebrewCalendar4rollENS_8Calendar11EDateFieldsEiR10UErrorCode
00000000000000a0 T __ZN6icu_5714HebrewCalendarC1ERKNS_6LocaleER10UErrorCode
0000000000000210 T __ZN6icu_5714HebrewCalendarC1ERKS0_
0000000000000000 T __ZN6icu_5714HebrewCalendarC2ERKNS_6LocaleER10UErrorCode
0000000000000240 T __ZN6icu_5714HebrewCalendarC2ERKS0_
0000000000000110 T __ZN6icu_5714HebrewCalendarD0Ev
00000000000000f0 T __ZN6icu_5714HebrewCalendarD1Ev
00000000000000d0 T __ZN6icu_5714HebrewCalendarD2Ev
0000000000001490 T __ZN6icu_5716umtx_loadAcquireERNSt3__16atomicIiEE
                 U __ZN6icu_5720umtx_initImplPreInitERNS_9UInitOnceE
                 U __ZN6icu_5721umtx_initImplPostInitERNS_9UInitOnceE
                 U __ZN6icu_576LocaleC1EPKcS2_S2_S2_
                 U __ZN6icu_576LocaleD1Ev
                 U __ZN6icu_577UMemorydlEPv
                 U __ZN6icu_577UMemorynwEm
                 U __ZN6icu_578Calendar11computeTimeER10UErrorCode
0000000000000e80 T __ZN6icu_578Calendar11internalSetE19UCalendarDateFieldsi
                 U __ZN6icu_578Calendar13computeFieldsER10UErrorCode
                 U __ZN6icu_578Calendar13validateFieldE19UCalendarDateFieldsR10UErrorCode
                 U __ZN6icu_578Calendar14setRelatedYearEi
                 U __ZN6icu_578Calendar15fieldDifferenceEd19UCalendarDateFieldsR10UErrorCode
                 U __ZN6icu_578Calendar15fieldDifferenceEdNS0_11EDateFieldsER10UErrorCode
                 U __ZN6icu_578Calendar15setTimeInMillisEdR10UErrorCode
                 U __ZN6icu_578Calendar16prepareGetActualE19UCalendarDateFieldsaR10UErrorCode
                 U __ZN6icu_578Calendar20getDefaultDayInMonthEii
                 U __ZN6icu_578Calendar21getDefaultMonthInYearEi
                 U __ZN6icu_578Calendar22handleComputeJulianDayE19UCalendarDateFields
                 U __ZN6icu_578Calendar35handleGetExtendedYearFromWeekFieldsEii
                 U __ZN6icu_578Calendar3addE19UCalendarDateFieldsiR10UErrorCode
                 U __ZN6icu_578Calendar3setE19UCalendarDateFieldsi
                 U __ZN6icu_578Calendar4rollE19UCalendarDateFieldsiR10UErrorCode
                 U __ZN6icu_578Calendar6getNowEv
0000000000001510 T __ZN6icu_578Calendar7setTimeEdR10UErrorCode
                 U __ZN6icu_578Calendar8completeER10UErrorCode
                 U __ZN6icu_578Calendar8pinFieldE19UCalendarDateFieldsR10UErrorCode
                 U __ZN6icu_578CalendarC2EPNS_8TimeZoneERKNS_6LocaleER10UErrorCode
                 U __ZN6icu_578CalendarC2ERKS0_
                 U __ZN6icu_578CalendarD2Ev
                 U __ZN6icu_578TimeZone13createDefaultEv
00000000000026ac b __ZN6icu_57L25gSystemDefaultCenturyInitE
0000000000001a70 d __ZN6icu_57L26gSystemDefaultCenturyStartE
0000000000001a78 d __ZN6icu_57L30gSystemDefaultCenturyStartYearE
0000000000001250 t __ZN6icu_57L30initializeSystemDefaultCenturyEv
00000000000009f0 T __ZNK6icu_5714HebrewCalendar14handleGetLimitE19UCalendarDateFieldsNS_8Calendar10ELimitTypeE
00000000000010e0 T __ZNK6icu_5714HebrewCalendar14inDaylightTimeER10UErrorCode
0000000000001470 T __ZNK6icu_5714HebrewCalendar17getDynamicClassIDEv
00000000000011c0 T __ZNK6icu_5714HebrewCalendar18haveDefaultCenturyEv
00000000000011d0 T __ZNK6icu_5714HebrewCalendar19defaultCenturyStartEv
0000000000000b00 T __ZNK6icu_5714HebrewCalendar19handleGetYearLengthEi
0000000000000a20 T __ZNK6icu_5714HebrewCalendar20handleGetMonthLengthEii
0000000000001430 T __ZNK6icu_5714HebrewCalendar23defaultCenturyStartYearEv
0000000000000f90 T __ZNK6icu_5714HebrewCalendar23handleComputeMonthStartEiia
0000000000000160 T __ZNK6icu_5714HebrewCalendar5cloneEv
0000000000000140 T __ZNK6icu_5714HebrewCalendar7getTypeEv
0000000000000930 T __ZNK6icu_5714HebrewCalendar8yearTypeEi
                 U __ZNK6icu_578Calendar10getMaximumE19UCalendarDateFields
                 U __ZNK6icu_578Calendar10getMaximumENS0_11EDateFieldsE
                 U __ZNK6icu_578Calendar10getMinimumE19UCalendarDateFields
                 U __ZNK6icu_578Calendar10getMinimumENS0_11EDateFieldsE
                 U __ZNK6icu_578Calendar10newerFieldE19UCalendarDateFieldsS1_
                 U __ZNK6icu_578Calendar11getTimeZoneEv
0000000000000be0 T __ZNK6icu_578Calendar11internalGetE19UCalendarDateFields
0000000000000f40 T __ZNK6icu_578Calendar11internalGetE19UCalendarDateFieldsi
                 U __ZNK6icu_578Calendar14getRelatedYearER10UErrorCode
                 U __ZNK6icu_578Calendar14isEquivalentToERKS0_
                 U __ZNK6icu_578Calendar15getLeastMaximumE19UCalendarDateFields
                 U __ZNK6icu_578Calendar15getLeastMaximumENS0_11EDateFieldsE
                 U __ZNK6icu_578Calendar15getTimeInMillisER10UErrorCode
                 U __ZNK6icu_578Calendar16getActualMaximumE19UCalendarDateFieldsR10UErrorCode
                 U __ZNK6icu_578Calendar16getActualMinimumE19UCalendarDateFieldsR10UErrorCode
                 U __ZNK6icu_578Calendar16getDayOfWeekTypeE19UCalendarDaysOfWeekR10UErrorCode
                 U __ZNK6icu_578Calendar18getGreatestMinimumE19UCalendarDateFields
                 U __ZNK6icu_578Calendar18getGreatestMinimumENS0_11EDateFieldsE
                 U __ZNK6icu_578Calendar20getWeekendTransitionE19UCalendarDaysOfWeekR10UErrorCode
                 U __ZNK6icu_578Calendar23getFieldResolutionTableEv
                 U __ZNK6icu_578Calendar3getE19UCalendarDateFieldsR10UErrorCode
0000000000001540 T __ZNK6icu_578Calendar7getTimeER10UErrorCode
                 U __ZNK6icu_578Calendar8getLimitE19UCalendarDateFieldsNS0_10ELimitTypeE
                 U __ZNK6icu_578Calendar9isWeekendEdR10UErrorCode
                 U __ZNK6icu_578Calendar9isWeekendEv
                 U __ZNK6icu_578CalendareqERKS0_
00000000000017c0 S __ZTIN6icu_5714HebrewCalendarE
                 U __ZTIN6icu_578CalendarE
0000000000001a50 S __ZTSN6icu_5714HebrewCalendarE
                 U __ZTVN10__cxxabiv120__si_class_type_infoE
0000000000001620 S __ZTVN6icu_5714HebrewCalendarE
00000000000026a8 b __ZZN6icu_5714HebrewCalendar16getStaticClassIDEvE7classID
                 U ___gxx_personality_v0
                 U ___stack_chk_fail
                 U ___stack_chk_guard
                 U _ucln_i18n_registerCleanup_57

libicui18n.a(indiancal.ao):
0000000000001350 s GCC_except_table0
0000000000001370 s GCC_except_table2
000000000000139c s GCC_except_table32
00000000000013d8 s GCC_except_table38
                 U __Unwind_Resume
0000000000000e20 t __ZL9U_FAILURE10UErrorCode
0000000000000e40 t __ZL9U_SUCCESS10UErrorCode
00000000000012b0 T __ZN6icu_5714IndianCalendar16getStaticClassIDEv
0000000000000690 T __ZN6icu_5714IndianCalendar19handleComputeFieldsEiR10UErrorCode
00000000000005c0 T __ZN6icu_5714IndianCalendar21handleGetExtendedYearEv
00000000000017b0 S __ZN6icu_5714IndianCalendar22fgSystemDefaultCenturyE
00000000000017b8 S __ZN6icu_5714IndianCalendar26fgSystemDefaultCenturyYearE
00000000000017e0 D __ZN6icu_5714IndianCalendar27fgSystemDefaultCenturyStartE
0000000000001000 T __ZN6icu_5714IndianCalendar30initializeSystemDefaultCenturyEv
00000000000017e8 D __ZN6icu_5714IndianCalendar31fgSystemDefaultCenturyStartYearE
0000000000000180 T __ZN6icu_5714IndianCalendarC1ERKNS_6LocaleER10UErrorCode
00000000000000b0 T __ZN6icu_5714IndianCalendarC1ERKS0_
00000000000000e0 T __ZN6icu_5714IndianCalendarC2ERKNS_6LocaleER10UErrorCode
00000000000001b0 T __ZN6icu_5714IndianCalendarC2ERKS0_
0000000000000230 T __ZN6icu_5714IndianCalendarD0Ev
0000000000000210 T __ZN6icu_5714IndianCalendarD1Ev
00000000000001f0 T __ZN6icu_5714IndianCalendarD2Ev
0000000000000fb0 T __ZN6icu_575MutexC1EP6UMutex
00000000000012e0 T __ZN6icu_575MutexC2EP6UMutex
0000000000000fe0 T __ZN6icu_575MutexD1Ev
0000000000001310 T __ZN6icu_575MutexD2Ev
                 U __ZN6icu_576LocaleC1EPKcS2_S2_S2_
                 U __ZN6icu_576LocaleD1Ev
                 U __ZN6icu_577UMemorydlEPv
                 U __ZN6icu_577UMemorynwEm
                 U __ZN6icu_578Calendar11computeTimeER10UErrorCode
0000000000000d20 T __ZN6icu_578Calendar11internalSetE19UCalendarDateFieldsi
                 U __ZN6icu_578Calendar13computeFieldsER10UErrorCode
                 U __ZN6icu_578Calendar13validateFieldE19UCalendarDateFieldsR10UErrorCode
                 U __ZN6icu_578Calendar14setRelatedYearEi
                 U __ZN6icu_578Calendar15fieldDifferenceEd19UCalendarDateFieldsR10UErrorCode
                 U __ZN6icu_578Calendar15fieldDifferenceEdNS0_11EDateFieldsER10UErrorCode
                 U __ZN6icu_578Calendar15setTimeInMillisEdR10UErrorCode
                 U __ZN6icu_578Calendar16prepareGetActualE19UCalendarDateFieldsaR10UErrorCode
                 U __ZN6icu_578Calendar20getDefaultDayInMonthEii
                 U __ZN6icu_578Calendar21getDefaultMonthInYearEi
                 U __ZN6icu_578Calendar22handleComputeJulianDayE19UCalendarDateFields
                 U __ZN6icu_578Calendar35handleGetExtendedYearFromWeekFieldsEii
                 U __ZN6icu_578Calendar3addE19UCalendarDateFieldsiR10UErrorCode
                 U __ZN6icu_578Calendar3addENS0_11EDateFieldsEiR10UErrorCode
                 U __ZN6icu_578Calendar4rollE19UCalendarDateFieldsiR10UErrorCode
                 U __ZN6icu_578Calendar4rollENS0_11EDateFieldsEiR10UErrorCode
                 U __ZN6icu_578Calendar6getNowEv
0000000000001250 T __ZN6icu_578Calendar7setTimeEdR10UErrorCode
                 U __ZN6icu_578Calendar8completeER10UErrorCode
                 U __ZN6icu_578Calendar8pinFieldE19UCalendarDateFieldsR10UErrorCode
                 U __ZN6icu_578CalendarC2EPNS_8TimeZoneERKNS_6LocaleER10UErrorCode
                 U __ZN6icu_578CalendarC2ERKS0_
                 U __ZN6icu_578CalendarD2Ev
                 U __ZN6icu_578TimeZone13createDefaultEv
                 U __ZN6icu_579ClockMath11floorDivideEdiRi
00000000000004a0 t __ZN6icu_57L10IndianToJDEiii
0000000000000bd0 t __ZN6icu_57L13gregorianToJDEiii
00000000000008f0 t __ZN6icu_57L13jdToGregorianEdPi
0000000000000350 t __ZN6icu_57L15isGregorianLeapEi
0000000000001640 s __ZN6icu_57L6LIMITSE
0000000000000280 T __ZNK6icu_5714IndianCalendar14handleGetLimitE19UCalendarDateFieldsNS_8Calendar10ELimitTypeE
0000000000000d60 T __ZNK6icu_5714IndianCalendar14inDaylightTimeER10UErrorCode
00000000000012c0 T __ZNK6icu_5714IndianCalendar17getDynamicClassIDEv
0000000000000e80 T __ZNK6icu_5714IndianCalendar18haveDefaultCenturyEv
0000000000000e90 T __ZNK6icu_5714IndianCalendar19defaultCenturyStartEv
00000000000003d0 T __ZNK6icu_5714IndianCalendar19handleGetYearLengthEi
00000000000002b0 T __ZNK6icu_5714IndianCalendar20handleGetMonthLengthEii
0000000000000f20 T __ZNK6icu_5714IndianCalendar23defaultCenturyStartYearEv
0000000000000410 T __ZNK6icu_5714IndianCalendar23handleComputeMonthStartEiia
0000000000000eb0 T __ZNK6icu_5714IndianCalendar30internalGetDefaultCenturyStartEv
0000000000000f40 T __ZNK6icu_5714IndianCalendar34internalGetDefaultCenturyStartYearEv
0000000000000000 T __ZNK6icu_5714IndianCalendar5cloneEv
0000000000000260 T __ZNK6icu_5714IndianCalendar7getTypeEv
                 U __ZNK6icu_578Calendar10getMaximumE19UCalendarDateFields
                 U __ZNK6icu_578Calendar10getMaximumENS0_11EDateFieldsE
                 U __ZNK6icu_578Calendar10getMinimumE19UCalendarDateFields
                 U __ZNK6icu_578Calendar10getMinimumENS0_11EDateFieldsE
                 U __ZNK6icu_578Calendar10newerFieldE19UCalendarDateFieldsS1_
                 U __ZNK6icu_578Calendar11getTimeZoneEv
0000000000000e60 T __ZNK6icu_578Calendar11internalGetE19UCalendarDateFields
0000000000000640 T __ZNK6icu_578Calendar11internalGetE19UCalendarDateFieldsi
                 U __ZNK6icu_578Calendar14getRelatedYearER10UErrorCode
                 U __ZNK6icu_578Calendar14isEquivalentToERKS0_
                 U __ZNK6icu_578Calendar15getLeastMaximumE19UCalendarDateFields
                 U __ZNK6icu_578Calendar15getLeastMaximumENS0_11EDateFieldsE
                 U __ZNK6icu_578Calendar15getTimeInMillisER10UErrorCode
                 U __ZNK6icu_578Calendar16getActualMaximumE19UCalendarDateFieldsR10UErrorCode
                 U __ZNK6icu_578Calendar16getActualMinimumE19UCalendarDateFieldsR10UErrorCode
                 U __ZNK6icu_578Calendar16getDayOfWeekTypeE19UCalendarDaysOfWeekR10UErrorCode
                 U __ZNK6icu_578Calendar18getGreatestMinimumE19UCalendarDateFields
                 U __ZNK6icu_578Calendar18getGreatestMinimumENS0_11EDateFieldsE
                 U __ZNK6icu_578Calendar20getWeekendTransitionE19UCalendarDaysOfWeekR10UErrorCode
                 U __ZNK6icu_578Calendar23getFieldResolutionTableEv
                 U __ZNK6icu_578Calendar3getE19UCalendarDateFieldsR10UErrorCode
0000000000001280 T __ZNK6icu_578Calendar7getTimeER10UErrorCode
                 U __ZNK6icu_578Calendar8getLimitE19UCalendarDateFieldsNS0_10ELimitTypeE
                 U __ZNK6icu_578Calendar9isWeekendEdR10UErrorCode
                 U __ZNK6icu_578Calendar9isWeekendEv
                 U __ZNK6icu_578CalendareqERKS0_
                 U __ZSt9terminatev
0000000000001610 S __ZTIN6icu_5714IndianCalendarE
                 U __ZTIN6icu_578CalendarE
00000000000017c0 S __ZTSN6icu_5714IndianCalendarE
                 U __ZTVN10__cxxabiv120__si_class_type_infoE
0000000000001470 S __ZTVN6icu_5714IndianCalendarE
0000000000002340 b __ZZN6icu_5714IndianCalendar16getStaticClassIDEvE7classID
0000000000001340 T ___clang_call_terminate
                 U ___cxa_begin_catch
                 U ___gxx_personality_v0
                 U ___stack_chk_fail
                 U ___stack_chk_guard
                 U _umtx_lock_57
                 U _umtx_unlock_57
                 U _uprv_floor_57

libicui18n.a(chnsecal.ao):
0000000000002404 s GCC_except_table0
000000000000247c s GCC_except_table13
0000000000002424 s GCC_except_table2
00000000000024a8 s GCC_except_table34
00000000000024d4 s GCC_except_table36
0000000000002500 s GCC_except_table38
0000000000002450 s GCC_except_table5
000000000000252c s GCC_except_table50
                 U __Unwind_Resume
0000000000003ef8 b __ZL21gChineseCalendarAstro
0000000000001280 t __ZL24calendar_chinese_cleanupv
0000000000003f00 b __ZL28gChineseCalendarNewYearCache
0000000000003ee8 b __ZL29gChineseCalendarZoneAstroCalc
0000000000003ef0 b __ZL35gChineseCalendarWinterSolsticeCache
0000000000003f0c b __ZL37gChineseCalendarZoneAstroCalcInitOnce
0000000000000aa0 t __ZL9U_FAILURE10UErrorCode
0000000000000fc0 t __ZL9U_SUCCESS10UErrorCode
0000000000002e00 d __ZL9astroLock
                 U __ZN6icu_5713CalendarCache3getEPPS0_iR10UErrorCode
                 U __ZN6icu_5713CalendarCache3putEPPS0_iiR10UErrorCode
                 U __ZN6icu_5713UnicodeStringC1EaPKti
                 U __ZN6icu_5713UnicodeStringD1Ev
0000000000000420 T __ZN6icu_5713umtx_initOnceERNS_9UInitOnceEPFvvE
                 U __ZN6icu_5714SimpleTimeZoneC1EiRKNS_13UnicodeStringE
0000000000001dd0 T __ZN6icu_5715ChineseCalendar11offsetMonthEiii
0000000000002260 T __ZN6icu_5715ChineseCalendar16getStaticClassIDEv
0000000000000760 T __ZN6icu_5715ChineseCalendar19handleComputeFieldsEiR10UErrorCode
0000000000001810 T __ZN6icu_5715ChineseCalendar20computeChineseFieldsEiiia
00000000000005f0 T __ZN6icu_5715ChineseCalendar21handleGetExtendedYearEv
0000000000002960 S __ZN6icu_5715ChineseCalendar23CHINESE_DATE_PRECEDENCEE
0000000000000b00 T __ZN6icu_5715ChineseCalendar3addE19UCalendarDateFieldsiR10UErrorCode
0000000000000c00 T __ZN6icu_5715ChineseCalendar3addENS_8Calendar11EDateFieldsEiR10UErrorCode
0000000000000c50 T __ZN6icu_5715ChineseCalendar4rollE19UCalendarDateFieldsiR10UErrorCode
0000000000000eb0 T __ZN6icu_5715ChineseCalendar4rollENS_8Calendar11EDateFieldsEiR10UErrorCode
00000000000001e0 T __ZN6icu_5715ChineseCalendarC1ERKNS_6LocaleER10UErrorCode
00000000000002d0 T __ZN6icu_5715ChineseCalendarC1ERKNS_6LocaleEiPKNS_8TimeZoneER10UErrorCode
00000000000000b0 T __ZN6icu_5715ChineseCalendarC1ERKS0_
00000000000000e0 T __ZN6icu_5715ChineseCalendarC2ERKNS_6LocaleER10UErrorCode
0000000000000210 T __ZN6icu_5715ChineseCalendarC2ERKNS_6LocaleEiPKNS_8TimeZoneER10UErrorCode
0000000000000310 T __ZN6icu_5715ChineseCalendarC2ERKS0_
00000000000003d0 T __ZN6icu_5715ChineseCalendarD0Ev
00000000000003b0 T __ZN6icu_5715ChineseCalendarD1Ev
0000000000000390 T __ZN6icu_5715ChineseCalendarD2Ev
0000000000002290 T __ZN6icu_5716umtx_loadAcquireERNSt3__16atomicIiEE
                 U __ZN6icu_5718CalendarAstronomer10getSunTimeEda
                 U __ZN6icu_5718CalendarAstronomer11getMoonTimeERKNS0_7MoonAgeEa
                 U __ZN6icu_5718CalendarAstronomer13SYNODIC_MONTHE
                 U __ZN6icu_5718CalendarAstronomer15WINTER_SOLSTICEEv
                 U __ZN6icu_5718CalendarAstronomer15getSunLongitudeEv
                 U __ZN6icu_5718CalendarAstronomer2PIE
                 U __ZN6icu_5718CalendarAstronomer7setTimeEd
                 U __ZN6icu_5718CalendarAstronomer8NEW_MOONEv
                 U __ZN6icu_5718CalendarAstronomerC1Ev
                 U __ZN6icu_5718CalendarAstronomerD1Ev
                 U __ZN6icu_5720umtx_initImplPreInitERNS_9UInitOnceE
                 U __ZN6icu_5721umtx_initImplPostInitERNS_9UInitOnceE
                 U __ZN6icu_575Grego11fieldsToDayEiii
                 U __ZN6icu_576LocaleC1EPKcS2_S2_S2_
                 U __ZN6icu_576LocaleD1Ev
                 U __ZN6icu_577UMemorydlEPv
                 U __ZN6icu_577UMemorynwEm
                 U __ZN6icu_578Calendar11computeTimeER10UErrorCode
0000000000000ac0 T __ZN6icu_578Calendar11internalSetE19UCalendarDateFieldsi
                 U __ZN6icu_578Calendar13computeFieldsER10UErrorCode
                 U __ZN6icu_578Calendar13validateFieldE19UCalendarDateFieldsR10UErrorCode
                 U __ZN6icu_578Calendar14setRelatedYearEi
                 U __ZN6icu_578Calendar15fieldDifferenceEd19UCalendarDateFieldsR10UErrorCode
                 U __ZN6icu_578Calendar15fieldDifferenceEdNS0_11EDateFieldsER10UErrorCode
                 U __ZN6icu_578Calendar15setTimeInMillisEdR10UErrorCode
                 U __ZN6icu_578Calendar16prepareGetActualE19UCalendarDateFieldsaR10UErrorCode
                 U __ZN6icu_578Calendar20getDefaultDayInMonthEii
                 U __ZN6icu_578Calendar21getDefaultMonthInYearEi
                 U __ZN6icu_578Calendar22computeGregorianFieldsEiR10UErrorCode
                 U __ZN6icu_578Calendar22handleComputeJulianDayE19UCalendarDateFields
                 U __ZN6icu_578Calendar35handleGetExtendedYearFromWeekFieldsEii
                 U __ZN6icu_578Calendar3addE19UCalendarDateFieldsiR10UErrorCode
                 U __ZN6icu_578Calendar3setE19UCalendarDateFieldsi
                 U __ZN6icu_578Calendar4rollE19UCalendarDateFieldsiR10UErrorCode
                 U __ZN6icu_578Calendar6getNowEv
00000000000023b0 T __ZN6icu_578Calendar7setTimeEdR10UErrorCode
                 U __ZN6icu_578Calendar8completeER10UErrorCode
                 U __ZN6icu_578Calendar8pinFieldE19UCalendarDateFieldsR10UErrorCode
                 U __ZN6icu_578CalendarC2EPNS_8TimeZoneERKNS_6LocaleER10UErrorCode
                 U __ZN6icu_578CalendarC2ERKS0_
                 U __ZN6icu_578CalendarD2Ev
                 U __ZN6icu_578TimeZone13createDefaultEv
00000000000010a0 T __ZN6icu_579ClockMath11floorDivideEdd
                 U __ZN6icu_579ClockMath11floorDivideEddRd
                 U __ZN6icu_579ClockMath11floorDivideEdiRi
0000000000002310 T __ZN6icu_579UInitOnce5resetEv
0000000000002e40 d __ZN6icu_57L26gSystemDefaultCenturyStartE
0000000000000470 t __ZN6icu_57L27initChineseCalZoneAstroCalcEv
0000000000003f14 b __ZN6icu_57L29gSystemDefaultCenturyInitOnceE
0000000000002e48 d __ZN6icu_57L30gSystemDefaultCenturyStartYearE
0000000000002080 t __ZN6icu_57L30initializeSystemDefaultCenturyEv
00000000000027f0 s __ZN6icu_57L6LIMITSE
00000000000013a0 T __ZNK6icu_5715ChineseCalendar11newMoonNearEda
0000000000000f00 T __ZNK6icu_5715ChineseCalendar12daysToMillisEd
0000000000000fe0 T __ZNK6icu_5715ChineseCalendar12millisToDaysEd
00000000000005c0 T __ZNK6icu_5715ChineseCalendar14handleGetLimitE19UCalendarDateFieldsNS_8Calendar10ELimitTypeE
0000000000001f10 T __ZNK6icu_5715ChineseCalendar14inDaylightTimeER10UErrorCode
0000000000001570 T __ZNK6icu_5715ChineseCalendar14majorSolarTermEi
00000000000010d0 T __ZNK6icu_5715ChineseCalendar14winterSolsticeEi
0000000000002270 T __ZNK6icu_5715ChineseCalendar17getDynamicClassIDEv
0000000000001fd0 T __ZNK6icu_5715ChineseCalendar18haveDefaultCenturyEv
0000000000001750 T __ZNK6icu_5715ChineseCalendar18isLeapMonthBetweenEii
0000000000001fe0 T __ZNK6icu_5715ChineseCalendar19defaultCenturyStartEv
00000000000016d0 T __ZNK6icu_5715ChineseCalendar19hasNoMajorSolarTermEi
00000000000006f0 T __ZNK6icu_5715ChineseCalendar20handleGetMonthLengthEii
0000000000001500 T __ZNK6icu_5715ChineseCalendar20synodicMonthsBetweenEii
0000000000002030 T __ZNK6icu_5715ChineseCalendar23defaultCenturyStartYearEv
0000000000000810 T __ZNK6icu_5715ChineseCalendar23getFieldResolutionTableEv
0000000000000830 T __ZNK6icu_5715ChineseCalendar23handleComputeMonthStartEiia
00000000000001b0 T __ZNK6icu_5715ChineseCalendar26getChineseCalZoneAstroCalcEv
0000000000002000 T __ZNK6icu_5715ChineseCalendar30internalGetDefaultCenturyStartEv
0000000000002050 T __ZNK6icu_5715ChineseCalendar34internalGetDefaultCenturyStartYearEv
0000000000000000 T __ZNK6icu_5715ChineseCalendar5cloneEv
0000000000000400 T __ZNK6icu_5715ChineseCalendar7getTypeEv
0000000000001bf0 T __ZNK6icu_5715ChineseCalendar7newYearEi
                 U __ZNK6icu_578Calendar10getMaximumE19UCalendarDateFields
                 U __ZNK6icu_578Calendar10getMaximumENS0_11EDateFieldsE
                 U __ZNK6icu_578Calendar10getMinimumE19UCalendarDateFields
                 U __ZNK6icu_578Calendar10getMinimumENS0_11EDateFieldsE
                 U __ZNK6icu_578Calendar11getTimeZoneEv
0000000000000a80 T __ZNK6icu_578Calendar11internalGetE19UCalendarDateFields
00000000000006a0 T __ZNK6icu_578Calendar11internalGetE19UCalendarDateFieldsi
                 U __ZNK6icu_578Calendar11newestStampE19UCalendarDateFieldsS1_i
                 U __ZNK6icu_578Calendar14getRelatedYearER10UErrorCode
                 U __ZNK6icu_578Calendar14isEquivalentToERKS0_
                 U __ZNK6icu_578Calendar15getLeastMaximumE19UCalendarDateFields
                 U __ZNK6icu_578Calendar15getLeastMaximumENS0_11EDateFieldsE
                 U __ZNK6icu_578Calendar15getTimeInMillisER10UErrorCode
                 U __ZNK6icu_578Calendar16getActualMaximumE19UCalendarDateFieldsR10UErrorCode
                 U __ZNK6icu_578Calendar16getActualMinimumE19UCalendarDateFieldsR10UErrorCode
                 U __ZNK6icu_578Calendar16getDayOfWeekTypeE19UCalendarDaysOfWeekR10UErrorCode
00000000000007d0 T __ZNK6icu_578Calendar16getGregorianYearEv
00000000000007f0 T __ZNK6icu_578Calendar17getGregorianMonthEv
                 U __ZNK6icu_578Calendar18getGreatestMinimumE19UCalendarDateFields
                 U __ZNK6icu_578Calendar18getGreatestMinimumENS0_11EDateFieldsE
                 U __ZNK6icu_578Calendar19handleGetYearLengthEi
                 U __ZNK6icu_578Calendar20getWeekendTransitionE19UCalendarDaysOfWeekR10UErrorCode
                 U __ZNK6icu_578Calendar3getE19UCalendarDateFieldsR10UErrorCode
00000000000023e0 T __ZNK6icu_578Calendar7getTimeER10UErrorCode
                 U __ZNK6icu_578Calendar8getLimitE19UCalendarDateFieldsNS0_10ELimitTypeE
                 U __ZNK6icu_578Calendar9isWeekendEdR10UErrorCode
                 U __ZNK6icu_578Calendar9isWeekendEv
                 U __ZNK6icu_578CalendareqERKS0_
00000000000027b0 S __ZTIN6icu_5715ChineseCalendarE
                 U __ZTIN6icu_578CalendarE
0000000000002de0 S __ZTSN6icu_5715ChineseCalendarE
                 U __ZTVN10__cxxabiv120__si_class_type_infoE
00000000000025c0 S __ZTVN6icu_5715ChineseCalendarE
0000000000003f08 b __ZZN6icu_5715ChineseCalendar16getStaticClassIDEvE7classID
                 U ___gxx_personality_v0
                 U ___stack_chk_fail
                 U ___stack_chk_guard
                 U _ucln_i18n_registerCleanup_57
                 U _umtx_lock_57
                 U _umtx_unlock_57
                 U _uprv_floor_57
0000000000002e4c s l_.str.2

libicui18n.a(cecal.ao):
0000000000000494 s GCC_except_table0
                 U __Unwind_Resume
0000000000000350 t __ZL9U_FAILURE10UErrorCode
0000000000000370 t __ZL9U_SUCCESS10UErrorCode
00000000000001b0 T __ZN6icu_5710CECalendar6ceToJDEiiii
00000000000003c0 T __ZN6icu_5710CECalendar6jdToCEEiiRiS1_S1_
0000000000000000 T __ZN6icu_5710CECalendarC2ERKNS_6LocaleER10UErrorCode
00000000000000a0 T __ZN6icu_5710CECalendarC2ERKS0_
0000000000000110 T __ZN6icu_5710CECalendarD0Ev
0000000000000100 T __ZN6icu_5710CECalendarD1Ev
00000000000000e0 T __ZN6icu_5710CECalendarD2Ev
0000000000000120 T __ZN6icu_5710CECalendaraSERKS0_
                 U __ZN6icu_578Calendar11computeTimeER10UErrorCode
                 U __ZN6icu_578Calendar13computeFieldsER10UErrorCode
                 U __ZN6icu_578Calendar13validateFieldE19UCalendarDateFieldsR10UErrorCode
                 U __ZN6icu_578Calendar14setRelatedYearEi
                 U __ZN6icu_578Calendar15fieldDifferenceEd19UCalendarDateFieldsR10UErrorCode
                 U __ZN6icu_578Calendar15fieldDifferenceEdNS0_11EDateFieldsER10UErrorCode
                 U __ZN6icu_578Calendar15setTimeInMillisEdR10UErrorCode
                 U __ZN6icu_578Calendar16prepareGetActualE19UCalendarDateFieldsaR10UErrorCode
                 U __ZN6icu_578Calendar19handleComputeFieldsEiR10UErrorCode
                 U __ZN6icu_578Calendar20getDefaultDayInMonthEii
                 U __ZN6icu_578Calendar21getDefaultMonthInYearEi
                 U __ZN6icu_578Calendar22handleComputeJulianDayE19UCalendarDateFields
                 U __ZN6icu_578Calendar35handleGetExtendedYearFromWeekFieldsEii
                 U __ZN6icu_578Calendar3addE19UCalendarDateFieldsiR10UErrorCode
                 U __ZN6icu_578Calendar3addENS0_11EDateFieldsEiR10UErrorCode
                 U __ZN6icu_578Calendar4rollE19UCalendarDateFieldsiR10UErrorCode
                 U __ZN6icu_578Calendar4rollENS0_11EDateFieldsEiR10UErrorCode
                 U __ZN6icu_578Calendar6getNowEv
                 U __ZN6icu_578Calendar8completeER10UErrorCode
                 U __ZN6icu_578Calendar8pinFieldE19UCalendarDateFieldsR10UErrorCode
                 U __ZN6icu_578CalendarC2EPNS_8TimeZoneERKNS_6LocaleER10UErrorCode
                 U __ZN6icu_578CalendarC2ERKS0_
                 U __ZN6icu_578CalendarD2Ev
                 U __ZN6icu_578CalendaraSERKS0_
                 U __ZN6icu_578TimeZone13createDefaultEv
                 U __ZN6icu_579ClockMath11floorDivideEdiRi
                 U __ZN6icu_579ClockMath11floorDivideEii
0000000000000690 s __ZN6icu_57L6LIMITSE
0000000000000260 T __ZNK6icu_5710CECalendar14handleGetLimitE19UCalendarDateFieldsNS_8Calendar10ELimitTypeE
0000000000000290 T __ZNK6icu_5710CECalendar14inDaylightTimeER10UErrorCode
00000000000003b0 T __ZNK6icu_5710CECalendar18haveDefaultCenturyEv
0000000000000160 T __ZNK6icu_5710CECalendar23handleComputeMonthStartEiia
                 U __ZNK6icu_578Calendar10getMaximumE19UCalendarDateFields
                 U __ZNK6icu_578Calendar10getMaximumENS0_11EDateFieldsE
                 U __ZNK6icu_578Calendar10getMinimumE19UCalendarDateFields
                 U __ZNK6icu_578Calendar10getMinimumENS0_11EDateFieldsE
                 U __ZNK6icu_578Calendar11getTimeZoneEv
0000000000000390 T __ZNK6icu_578Calendar11internalGetE19UCalendarDateFields
                 U __ZNK6icu_578Calendar14getRelatedYearER10UErrorCode
                 U __ZNK6icu_578Calendar14isEquivalentToERKS0_
                 U __ZNK6icu_578Calendar15getLeastMaximumE19UCalendarDateFields
                 U __ZNK6icu_578Calendar15getLeastMaximumENS0_11EDateFieldsE
                 U __ZNK6icu_578Calendar16getActualMaximumE19UCalendarDateFieldsR10UErrorCode
                 U __ZNK6icu_578Calendar16getActualMinimumE19UCalendarDateFieldsR10UErrorCode
                 U __ZNK6icu_578Calendar16getDayOfWeekTypeE19UCalendarDaysOfWeekR10UErrorCode
                 U __ZNK6icu_578Calendar18getGreatestMinimumE19UCalendarDateFields
                 U __ZNK6icu_578Calendar18getGreatestMinimumENS0_11EDateFieldsE
                 U __ZNK6icu_578Calendar19handleGetYearLengthEi
                 U __ZNK6icu_578Calendar20getWeekendTransitionE19UCalendarDaysOfWeekR10UErrorCode
                 U __ZNK6icu_578Calendar20handleGetMonthLengthEii
                 U __ZNK6icu_578Calendar23getFieldResolutionTableEv
                 U __ZNK6icu_578Calendar8getLimitE19UCalendarDateFieldsNS0_10ELimitTypeE
                 U __ZNK6icu_578Calendar9isWeekendEdR10UErrorCode
                 U __ZNK6icu_578Calendar9isWeekendEv
                 U __ZNK6icu_578CalendareqERKS0_
0000000000000670 S __ZTIN6icu_5710CECalendarE
                 U __ZTIN6icu_578CalendarE
0000000000000800 S __ZTSN6icu_5710CECalendarE
                 U __ZTVN10__cxxabiv120__si_class_type_infoE
00000000000004c0 S __ZTVN6icu_5710CECalendarE
                 U ___cxa_pure_virtual
                 U ___gxx_personality_v0

libicui18n.a(coptccal.ao):
0000000000000864 s GCC_except_table17
0000000000000844 s GCC_except_table9
                 U __Unwind_Resume
00000000000007d0 t __ZL9U_SUCCESS10UErrorCode
